 OmniMIDI

 Timestamp is 62c9dbdc (Sat Jul  9 21:49:48 2022)

 Preferred load address is 10000000

 Start         Length     Name                   Class
 0001:00000000 00000260H .text$di                CODE
 0001:00000260 0005b660H .text$mn                CODE
 0001:0005b8c0 00002890H .text$x                 CODE
 0001:0005e150 00000166H .text$yd                CODE
 0002:00000000 000002acH .idata$5                DATA
 0002:000002ac 00000008H .00cfg                  DATA
 0002:000002b4 00000004H .CRT$XCA                DATA
 0002:000002b8 0000000cH .CRT$XCC                DATA
 0002:000002c4 0000000cH .CRT$XCL                DATA
 0002:000002d0 00000018H .CRT$XCU                DATA
 0002:000002e8 00000004H .CRT$XCZ                DATA
 0002:000002ec 00000004H .CRT$XIA                DATA
 0002:000002f0 00000018H .CRT$XIC                DATA
 0002:00000308 00000004H .CRT$XIZ                DATA
 0002:0000030c 00000004H .CRT$XPA                DATA
 0002:00000310 00000008H .CRT$XPX                DATA
 0002:00000318 00000004H .CRT$XPXA               DATA
 0002:0000031c 00000004H .CRT$XPZ                DATA
 0002:00000320 00000004H .CRT$XTA                DATA
 0002:00000324 0000000cH .CRT$XTZ                DATA
 0002:00000328 00000000H .gfids$y                DATA
 0002:00000330 0001aad0H .rdata                  DATA
 0002:0001ae00 00000000H .rdata$CastGuardVftablesA DATA
 0002:0001ae00 00000000H .rdata$CastGuardVftablesC DATA
 0002:0001ae00 00001668H .rdata$r                DATA
 0002:0001c468 00000294H .rdata$voltmd           DATA
 0002:0001c6fc 00000364H .rdata$zzzdbg           DATA
 0002:0001ca60 00000004H .rtc$IAA                DATA
 0002:0001ca64 00000004H .rtc$IZZ                DATA
 0002:0001ca68 00000004H .rtc$TAA                DATA
 0002:0001ca6c 00000004H .rtc$TZZ                DATA
 0002:0001ca70 000039a0H .xdata$x                DATA
 0002:00020404 00000000H ATL$__a                 DATA
 0002:00020404 00000000H ATL$__z                 DATA
 0002:00020410 0000148cH .edata                  DATA
 0002:0002189c 000000b4H .idata$2                DATA
 0002:00021950 00000014H .idata$3                DATA
 0002:00021964 000002acH .idata$4                DATA
 0002:00021c10 00000c7eH .idata$6                DATA
 0003:00000000 00001230H .data                   DATA
 0003:00001230 00000180H .data$r                 DATA
 0003:000013b0 00000bf0H .data$rs                DATA
 0003:00001fa0 00029d30H .bss                    DATA
 0004:00000000 00000220H .rsrc$01                DATA
 0004:00000220 00027178H .rsrc$02                DATA

  Address         Publics by Value              Rva+Base       Lib:Object

 0000:00000000       ___AbsoluteZero            00000000     <absolute>
 0000:00000000       ___arm64x_extra_rfe_table  00000000     <absolute>
 0000:00000000       ___arm64x_extra_rfe_table_size 00000000     <absolute>
 0000:00000000       ___arm64x_native_entrypoint 00000000     <absolute>
 0000:00000000       ___arm64x_redirection_metadata 00000000     <absolute>
 0000:00000000       ___arm64x_redirection_metadata_count 00000000     <absolute>
 0000:00000000       ___dynamic_value_reloc_table 00000000     <absolute>
 0000:00000000       ___enclave_config          00000000     <absolute>
 0000:00000000       ___guard_check_icall_a64n_fptr 00000000     <absolute>
 0000:00000000       ___guard_eh_cont_count     00000000     <absolute>
 0000:00000000       ___guard_eh_cont_table     00000000     <absolute>
 0000:00000000       ___guard_fids_count        00000000     <absolute>
 0000:00000000       ___guard_fids_table        00000000     <absolute>
 0000:00000000       ___guard_iat_count         00000000     <absolute>
 0000:00000000       ___guard_iat_table         00000000     <absolute>
 0000:00000000       ___guard_longjmp_count     00000000     <absolute>
 0000:00000000       ___guard_longjmp_table     00000000     <absolute>
 0000:00000000       ___hybrid_auxiliary_iat    00000000     <absolute>
 0000:00000000       ___hybrid_auxiliary_iat_copy 00000000     <absolute>
 0000:00000000       ___hybrid_code_map         00000000     <absolute>
 0000:00000000       ___hybrid_code_map_count   00000000     <absolute>
 0000:00000000       ___safe_se_handler_count   00000000     <absolute>
 0000:00000000       ___safe_se_handler_table   00000000     <absolute>
 0000:00000000       ___x64_code_ranges_to_entry_points 00000000     <absolute>
 0000:00000000       ___x64_code_ranges_to_entry_points_count 00000000     <absolute>
 0000:00000000       __except_list              00000000     <absolute>
 0000:00000100       ___guard_flags             00000100     <absolute>
 0000:00000000       ___ImageBase               10000000     <linker-defined>
 0001:00000260       _IsolationAwareActivateActCtx@8 10001260 f i OmniMIDI.obj
 0001:000002c0       _IsolationAwareDeactivateActCtx@8 100012c0 f i OmniMIDI.obj
 0001:00000310       _IsolationAwareFindActCtxSectionStringW@20 10001310 f i OmniMIDI.obj
 0001:00000370       _IsolationAwareLoadLibraryA@4 10001370 f i OmniMIDI.obj
 0001:000004a0       _IsolationAwareLoadLibraryW@4 100014a0 f i OmniMIDI.obj
 0001:000005d0       _WinbaseIsolationAwarePrivatetRgzlnPgpgk@0 100015d0 f i OmniMIDI.obj
 0001:00000800       _IsolationAwarePrivatenPgViNgRzlnPgpgk@4 10001800 f i OmniMIDI.obj
 0001:000008c0       _WinbaseIsolationAwarePrivatetRgCebPnQQeRff_xReaRYQP_QYY@4 100018c0 f i OmniMIDI.obj
 0001:000008f0       ___local_stdio_printf_options 100018f0 f i OmniMIDI.obj
 0001:00000900       __vfwprintf_l              10001900 f i OmniMIDI.obj
 0001:00000930       _fwprintf                  10001930 f i OmniMIDI.obj
 0001:00000950       __vswprintf_c_l            10001950 f i OmniMIDI.obj
 0001:00000990       __vswprintf_s_l            10001990 f i OmniMIDI.obj
 0001:000009c0       __vscwprintf_l             100019c0 f i OmniMIDI.obj
 0001:00000a00       _swprintf_s                10001a00 f i OmniMIDI.obj
 0001:00000a20       __scwprintf                10001a20 f i OmniMIDI.obj
 0001:00000a40       ?swprintf@@YAHQA_WQB_WZZ   10001a40 f i OmniMIDI.obj
 0001:00000a90       _wmemset                   10001a90 f i OmniMIDI.obj
 0001:00000ac0       __vfprintf_l               10001ac0 f i OmniMIDI.obj
 0001:00000af0       _fprintf                   10001af0 f i OmniMIDI.obj
 0001:00000b10       __vsnprintf_l              10001b10 f i OmniMIDI.obj
 0001:00000b50       __vsprintf_s_l             10001b50 f i OmniMIDI.obj
 0001:00000b90       _sprintf                   10001b90 f i OmniMIDI.obj
 0001:00000bb0       _sprintf_s                 10001bb0 f i OmniMIDI.obj
 0001:00000bd0       ?Init@CComCriticalSection@ATL@@QAEJXZ 10001bd0 f i OmniMIDI.obj
 0001:00000c30       ??0exception@std@@QAE@QBD@Z 10001c30 f i OmniMIDI.obj
 0001:00000c90       ??0exception@std@@QAE@ABV01@@Z 10001c90 f i OmniMIDI.obj
 0001:00000cf0       ??1exception@std@@UAE@XZ   10001cf0 f i OmniMIDI.obj
 0001:00000d30       ?what@exception@std@@UBEPBDXZ 10001d30 f i OmniMIDI.obj
 0001:00000d40       ??_Eexception@std@@UAEPAXI@Z 10001d40 f i * CIL library *:* CIL module *
 0001:00000d40       ??_Gexception@std@@UAEPAXI@Z 10001d40 f i OmniMIDI.obj
 0001:00000da0       ??_Ebad_alloc@std@@UAEPAXI@Z 10001da0 f i * CIL library *:* CIL module *
 0001:00000da0       ??_Ebad_cast@std@@UAEPAXI@Z 10001da0 f i * CIL library *:* CIL module *
 0001:00000da0       ??_Eruntime_error@std@@UAEPAXI@Z 10001da0 f i * CIL library *:* CIL module *
 0001:00000da0       ??_Gbad_alloc@std@@UAEPAXI@Z 10001da0 f i OmniMIDI.obj
 0001:00000da0       ??_Gbad_cast@std@@UAEPAXI@Z 10001da0 f i OmniMIDI.obj
 0001:00000da0       ??_Gruntime_error@std@@UAEPAXI@Z 10001da0 f i OmniMIDI.obj
 0001:00000e00       ??1bad_alloc@std@@UAE@XZ   10001e00 f i OmniMIDI.obj
 0001:00000e00       ??1bad_cast@std@@UAE@XZ    10001e00 f i OmniMIDI.obj
 0001:00000e00       ??1runtime_error@std@@UAE@XZ 10001e00 f i OmniMIDI.obj
 0001:00000e50       ??0bad_array_new_length@std@@QAE@XZ 10001e50 f i OmniMIDI.obj
 0001:00000ec0       ??_Ebad_array_new_length@std@@UAEPAXI@Z 10001ec0 f i * CIL library *:* CIL module *
 0001:00000ec0       ??_Gbad_array_new_length@std@@UAEPAXI@Z 10001ec0 f i OmniMIDI.obj
 0001:00000f20       ??1_System_error@std@@UAE@XZ 10001f20 f i OmniMIDI.obj
 0001:00000f20       ??1bad_array_new_length@std@@UAE@XZ 10001f20 f i OmniMIDI.obj
 0001:00000f70       ?_Throw_bad_array_new_length@std@@YGXXZ 10001f70 f i OmniMIDI.obj
 0001:00000f90       ??0bad_array_new_length@std@@QAE@ABV01@@Z 10001f90 f i OmniMIDI.obj
 0001:00001010       ??0bad_alloc@std@@QAE@ABV01@@Z 10002010 f i OmniMIDI.obj
 0001:00001080       ?_Xlen_string@std@@YAXXZ   10002080 f i libcpmt:locale.obj
 0001:00001080       ?_Xlen_string@std@@YGXXZ   10002080 f i OmniMIDI.obj
 0001:00001090       ??0runtime_error@std@@QAE@ABV01@@Z 10002090 f i OmniMIDI.obj
 0001:00001100       ?default_error_condition@error_category@std@@UBE?AVerror_condition@2@H@Z 10002100 f i OmniMIDI.obj
 0001:00001120       ?equivalent@error_category@std@@UBE_NHABVerror_condition@2@@Z 10002120 f i OmniMIDI.obj
 0001:00001160       ?equivalent@error_category@std@@UBE_NABVerror_code@2@H@Z 10002160 f i OmniMIDI.obj
 0001:00001190       ?make_error_code@std@@YG?AVerror_code@1@W4io_errc@1@@Z 10002190 f i OmniMIDI.obj
 0001:000011b0       ??0_System_error@std@@IAE@Verror_code@1@ABV?$basic_string@DU?$char_traits@D@std@@V?$allocator@D@2@@1@@Z 100021b0 f i OmniMIDI.obj
 0001:00001460       ??_E_System_error@std@@UAEPAXI@Z 10002460 f i * CIL library *:* CIL module *
 0001:00001460       ??_G_System_error@std@@UAEPAXI@Z 10002460 f i OmniMIDI.obj
 0001:000014c0       ??_Esystem_error@std@@UAEPAXI@Z 100024c0 f i * CIL library *:* CIL module *
 0001:000014c0       ??_Gsystem_error@std@@UAEPAXI@Z 100024c0 f i OmniMIDI.obj
 0001:00001520       ??1system_error@std@@UAE@XZ 10002520 f i OmniMIDI.obj
 0001:00001570       ??0system_error@std@@QAE@ABV01@@Z 10002570 f i OmniMIDI.obj
 0001:00001600       ??0_System_error@std@@QAE@ABV01@@Z 10002600 f i OmniMIDI.obj
 0001:00001690       ?name@_Iostream_error_category2@std@@UBEPBDXZ 10002690 f i OmniMIDI.obj
 0001:000016a0       ?message@_Iostream_error_category2@std@@UBE?AV?$basic_string@DU?$char_traits@D@std@@V?$allocator@D@2@@2@H@Z 100026a0 f i OmniMIDI.obj
 0001:00001780       ??_E_Iostream_error_category2@std@@UAEPAXI@Z 10002780 f i * CIL library *:* CIL module *
 0001:00001780       ??_G_Iostream_error_category2@std@@UAEPAXI@Z 10002780 f i OmniMIDI.obj
 0001:000017a0       ??0bad_cast@std@@QAE@XZ    100027a0 f i OmniMIDI.obj
 0001:00001800       ?_Throw_bad_cast@std@@YGXXZ 10002800 f i OmniMIDI.obj
 0001:00001820       ??0bad_cast@std@@QAE@ABV01@@Z 10002820 f i OmniMIDI.obj
 0001:00001890       ??1_Facet_base@std@@UAE@XZ 10002890 f i OmniMIDI.obj
 0001:00001890       ??1money_base@std@@UAE@XZ  10002890 f i libcpmt:wlocale.obj
 0001:00001890       ??1time_base@std@@UAE@XZ   10002890 f i libcpmt:wlocale.obj
 0001:000018a0       ??_E_Facet_base@std@@UAEPAXI@Z 100028a0 f i * CIL library *:* CIL module *
 0001:000018a0       ??_G_Facet_base@std@@UAEPAXI@Z 100028a0 f i OmniMIDI.obj
 0001:000018d0       ??0_Locinfo@std@@QAE@PBD@Z 100028d0 f i OmniMIDI.obj
 0001:00001990       ??1_Locinfo@std@@QAE@XZ    10002990 f i OmniMIDI.obj
 0001:00001a80       ??Bid@locale@std@@QAEIXZ   10002a80 f i OmniMIDI.obj
 0001:00001af0       ?_Incref@facet@locale@std@@UAEXXZ 10002af0 f i OmniMIDI.obj
 0001:00001b00       ?_Decref@facet@locale@std@@UAEPAV_Facet_base@3@XZ 10002b00 f i OmniMIDI.obj
 0001:00001b20       ??1facet@locale@std@@MAE@XZ 10002b20 f i OmniMIDI.obj
 0001:00001b60       ??0locale@std@@QAE@ABV01@@Z 10002b60 f i OmniMIDI.obj
 0001:00001b80       ??1locale@std@@QAE@XZ      10002b80 f i OmniMIDI.obj
 0001:00001ba0       ?c_str@locale@std@@QBEPBDXZ 10002ba0 f i OmniMIDI.obj
 0001:00001bc0       ?_Getfacet@locale@std@@QBEPBVfacet@12@I@Z 10002bc0 f i OmniMIDI.obj
 0001:00001c10       ??_Efacet@locale@std@@MAEPAXI@Z 10002c10 f i * CIL library *:* CIL module *
 0001:00001c10       ??_Gfacet@locale@std@@MAEPAXI@Z 10002c10 f i OmniMIDI.obj
 0001:00001c70       ??$_Maklocstr@_W@std@@YAPA_WPBDPA_WABU_Cvtvec@@@Z 10002c70 f i OmniMIDI.obj
 0001:00001d30       ??1codecvt_base@std@@UAE@XZ 10002d30 f i OmniMIDI.obj
 0001:00001d80       ?do_always_noconv@?$codecvt@GDU_Mbstatet@@@std@@MBE_NXZ 10002d80 f i libcpmt:wlocale.obj
 0001:00001d80       ?do_always_noconv@?$codecvt@_WDU_Mbstatet@@@std@@MBE_NXZ 10002d80 f i OmniMIDI.obj
 0001:00001d80       ?do_always_noconv@?$codecvt_utf8@_W$0BAPPPP@$0A@@std@@MBE_NXZ 10002d80 f i OmniMIDI.obj
 0001:00001d80       ?do_always_noconv@codecvt_base@std@@MBE_NXZ 10002d80 f i OmniMIDI.obj
 0001:00001d90       ?EnableMIDIFeedbackMode@@YGHXZ 10002d90 f i OmniMIDI.obj
 0001:00001d90       ?KDMAPI_midiOutGetNumDevs@@YGIXZ 10002d90 f i OmniMIDI.obj
 0001:00001d90       ?do_encoding@codecvt_base@std@@MBEHXZ 10002d90 f i OmniMIDI.obj
 0001:00001d90       ?do_max_length@codecvt_base@std@@MBEHXZ 10002d90 f i OmniMIDI.obj
 0001:00001da0       ??_Ecodecvt_base@std@@UAEPAXI@Z 10002da0 f i * CIL library *:* CIL module *
 0001:00001da0       ??_Gcodecvt_base@std@@UAEPAXI@Z 10002da0 f i OmniMIDI.obj
 0001:00001e10       ??0?$codecvt@_WDU_Mbstatet@@@std@@QAE@I@Z 10002e10 f i OmniMIDI.obj
 0001:00001fe0       ??0?$codecvt@_WDU_Mbstatet@@@std@@QAE@ABV_Locinfo@1@I@Z 10002fe0 f i OmniMIDI.obj
 0001:00002080       ??1?$codecvt@_WDU_Mbstatet@@@std@@MAE@XZ 10003080 f i OmniMIDI.obj
 0001:000020e0       ?do_in@?$codecvt@_WDU_Mbstatet@@@std@@MBEHAAU_Mbstatet@@PBD1AAPBDPA_W3AAPA_W@Z 100030e0 f i OmniMIDI.obj
 0001:00002180       ?do_out@?$codecvt@_WDU_Mbstatet@@@std@@MBEHAAU_Mbstatet@@PB_W1AAPB_WPAD3AAPAD@Z 10003180 f i OmniMIDI.obj
 0001:00002290       ?do_unshift@?$codecvt@_WDU_Mbstatet@@@std@@MBEHAAU_Mbstatet@@PAD1AAPAD@Z 10003290 f i OmniMIDI.obj
 0001:00002320       ?do_length@?$codecvt@_WDU_Mbstatet@@@std@@MBEHAAU_Mbstatet@@PBD1I@Z 10003320 f i OmniMIDI.obj
 0001:00002390       ?do_max_length@?$codecvt@GDU_Mbstatet@@@std@@MBEHXZ 10003390 f i libcpmt:wlocale.obj
 0001:00002390       ?do_max_length@?$codecvt@_WDU_Mbstatet@@@std@@MBEHXZ 10003390 f i OmniMIDI.obj
 0001:000023a0       ?do_encoding@?$codecvt@GDU_Mbstatet@@@std@@MBEHXZ 100033a0 f i libcpmt:wlocale.obj
 0001:000023a0       ?do_encoding@?$codecvt@_WDU_Mbstatet@@@std@@MBEHXZ 100033a0 f i OmniMIDI.obj
 0001:000023b0       ??_E?$codecvt@_WDU_Mbstatet@@@std@@MAEPAXI@Z 100033b0 f i * CIL library *:* CIL module *
 0001:000023b0       ??_G?$codecvt@_WDU_Mbstatet@@@std@@MAEPAXI@Z 100033b0 f i OmniMIDI.obj
 0001:00002420       ??1ctype_base@std@@UAE@XZ  10003420 f i OmniMIDI.obj
 0001:00002470       ??_Ectype_base@std@@UAEPAXI@Z 10003470 f i * CIL library *:* CIL module *
 0001:00002470       ??_Gctype_base@std@@UAEPAXI@Z 10003470 f i OmniMIDI.obj
 0001:000024e0       ?widen@?$ctype@_W@std@@QBEPBDPBD0PA_W@Z 100034e0 f i OmniMIDI.obj
 0001:000024f0       ?_Init@?$ctype@_W@std@@IAEXABV_Locinfo@2@@Z 100034f0 f i OmniMIDI.obj
 0001:00002540       ?do_is@?$ctype@_W@std@@MBE_NF_W@Z 10003540 f i OmniMIDI.obj
 0001:00002560       ?do_is@?$ctype@_W@std@@MBEPB_WPB_W0PAF@Z 10003560 f i OmniMIDI.obj
 0001:00002580       ?do_scan_is@?$ctype@_W@std@@MBEPB_WFPB_W0@Z 10003580 f i OmniMIDI.obj
 0001:000025c0       ?do_scan_not@?$ctype@_W@std@@MBEPB_WFPB_W0@Z 100035c0 f i OmniMIDI.obj
 0001:00002600       ?do_tolower@?$ctype@_W@std@@MBE_W_W@Z 10003600 f i OmniMIDI.obj
 0001:00002620       ?do_tolower@?$ctype@_W@std@@MBEPB_WPA_WPB_W@Z 10003620 f i OmniMIDI.obj
 0001:00002660       ?do_toupper@?$ctype@_W@std@@MBE_W_W@Z 10003660 f i OmniMIDI.obj
 0001:00002680       ?do_toupper@?$ctype@_W@std@@MBEPB_WPA_WPB_W@Z 10003680 f i OmniMIDI.obj
 0001:000026c0       ?do_widen@?$ctype@_W@std@@MBE_WD@Z 100036c0 f i OmniMIDI.obj
 0001:00002710       ?do_widen@?$ctype@_W@std@@MBEPBDPBD0PA_W@Z 10003710 f i OmniMIDI.obj
 0001:00002790       ?do_narrow@?$ctype@_W@std@@MBED_WD@Z 10003790 f i OmniMIDI.obj
 0001:000027d0       ?do_narrow@?$ctype@_W@std@@MBEPB_WPB_W0DPAD@Z 100037d0 f i OmniMIDI.obj
 0001:00002840       ??_E?$ctype@_W@std@@MAEPAXI@Z 10003840 f i * CIL library *:* CIL module *
 0001:00002840       ??_G?$ctype@_W@std@@MAEPAXI@Z 10003840 f i OmniMIDI.obj
 0001:000028e0       ??0failure@ios_base@std@@QAE@PBDABVerror_code@2@@Z 100038e0 f i OmniMIDI.obj
 0001:000029f0       ?clear@ios_base@std@@QAEXH_N@Z 100039f0 f i OmniMIDI.obj
 0001:00002a60       ??1ios_base@std@@UAE@XZ    10003a60 f i OmniMIDI.obj
 0001:00002aa0       ?_Callfns@ios_base@std@@AAEXW4event@12@@Z 10003aa0 f i OmniMIDI.obj
 0001:00002ad0       ??_Efailure@ios_base@std@@UAEPAXI@Z 10003ad0 f i * CIL library *:* CIL module *
 0001:00002ad0       ??_Gfailure@ios_base@std@@UAEPAXI@Z 10003ad0 f i OmniMIDI.obj
 0001:00002b30       ??1failure@ios_base@std@@UAE@XZ 10003b30 f i OmniMIDI.obj
 0001:00002b80       ??0failure@ios_base@std@@QAE@ABV012@@Z 10003b80 f i OmniMIDI.obj
 0001:00002c20       ??_Eios_base@std@@UAEPAXI@Z 10003c20 f i * CIL library *:* CIL module *
 0001:00002c20       ??_Gios_base@std@@UAEPAXI@Z 10003c20 f i OmniMIDI.obj
 0001:00002c80       ?to_wstring@std@@YG?AV?$basic_string@_WU?$char_traits@_W@std@@V?$allocator@_W@2@@1@N@Z 10003c80 f i OmniMIDI.obj
 0001:00002d50       ??1_Mutex_base@std@@QAE@XZ 10003d50 f i OmniMIDI.obj
 0001:00002d90       ?StringCchPrintfW@@YAJPA_WIPB_WZZ 10003d90 f i OmniMIDI.obj
 0001:00002e10       _LockForWriting@4          10003e10 f   OmniMIDI.obj
 0001:00002e30       _UnlockForWriting@4        10003e30 f   OmniMIDI.obj
 0001:00002e40       ?DummyPlayBufData@@YGXXZ   10003e40 f   OmniMIDI.obj
 0001:00002e40       ?ResetTimings@@YGXXZ       10003e40 f   OmniMIDI.obj
 0001:00002e40       ?TightenTimings@@YGXXZ     10003e40 f   OmniMIDI.obj
 0001:00002e40       ?_Lock@?$basic_streambuf@_WU?$char_traits@_W@std@@@std@@UAEXXZ 10003e40 f   OmniMIDI.obj
 0001:00002e40       ?_Unlock@?$basic_streambuf@_WU?$char_traits@_W@std@@@std@@UAEXXZ 10003e40 f   OmniMIDI.obj
 0001:00002e40       ?destroy@stl_critical_section_win7@details@Concurrency@@UAEXXZ 10003e40 f   libcpmt:mutex.obj
 0001:00002e40       @_guard_check_icall_nop@4  10003e40 f   LIBCMT:guard_support.obj
 0001:00002e50       ?DummyPrepareForBASSMIDI@@YGXKK@Z 10003e50 f   OmniMIDI.obj
 0001:00002e60       ?DummyParseData@@YGXK@Z    10003e60 f   OmniMIDI.obj
 0001:00002e60       ?do_close@?$messages@D@std@@MBEXH@Z 10003e60 f   libcpmt:xlocale.obj
 0001:00002e60       ?do_close@?$messages@G@std@@MBEXH@Z 10003e60 f   libcpmt:wlocale.obj
 0001:00002e60       ?do_close@?$messages@_W@std@@MBEXH@Z 10003e60 f   libcpmt:wlocale.obj
 0001:00002e60       ?imbue@?$basic_streambuf@_WU?$char_traits@_W@std@@@std@@MAEXABVlocale@2@@Z 10003e60 f   OmniMIDI.obj
 0001:00002e70       ?DummyBMSE@@YGHKKKK@Z      10003e70 f   OmniMIDI.obj
 0001:00002e80       ?DummyBMSEs@@YGKKKPBXK@Z   10003e80 f   OmniMIDI.obj
 0001:00002e80       ?KDMAPI_midiOutCacheDrumPatches@@YGIPAUHMIDIOUT__@@IPAGI@Z 10003e80 f   OmniMIDI.obj
 0001:00002e80       ?KDMAPI_midiOutCachePatches@@YGIPAUHMIDIOUT__@@IPAGI@Z 10003e80 f   OmniMIDI.obj
 0001:00002e80       ?KDMAPI_midiOutMessage@@YGIPAUHMIDIOUT__@@IKK@Z 10003e80 f   OmniMIDI.obj
 0001:00002e90       ?DummyProcData@@YGKPAXK0@Z 10003e90 f   OmniMIDI.obj
 0001:00002e90       ?DummymidiOutLongMsg@@YGIPAUHMIDIOUT__@@PAUmidihdr_tag@@I@Z 10003e90 f   OmniMIDI.obj
 0001:00002ea0       ?DummymidiOutShortMsg@@YGIPAUHMIDIOUT__@@K@Z 10003ea0 f   OmniMIDI.obj
 0001:00002eb0       ?GetAppName@@YGXXZ         10003eb0 f   OmniMIDI.obj
 0001:00002f20       ?GetFolderPath@@YGHU_GUID@@HPA_WI@Z 10003f20 f   OmniMIDI.obj
 0001:00002f70       ?RoundFloat@@YGMM@Z        10003f70 f   OmniMIDI.obj
 0001:000030f0       ?ErrorMessage@@YGXPB_W00H@Z 100040f0 f   OmniMIDI.obj
 0001:00003210       ?GetVersionInfo@@YG_NPB_WAAH111@Z 10004210 f   OmniMIDI.obj
 0001:000032b0       ?CreateConsole@@YGXXZ      100042b0 f   OmniMIDI.obj
 0001:000034f0       ?CloseConsole@@YGXXZ       100044f0 f   OmniMIDI.obj
 0001:00003580       ?PrintCurrentTime@@YGXXZ   10004580 f   OmniMIDI.obj
 0001:00003600       ?PrintCurrentTimeW@@YGXXZ  10004600 f   OmniMIDI.obj
 0001:00003680       ?PrintLoadedDLLToDebugLog@@YGXPB_WPBD@Z 10004680 f   OmniMIDI.obj
 0001:00003790       ?PrintSoundFontToDebugLog@@YGXPB_WPBD@Z 10004790 f   OmniMIDI.obj
 0001:000038a0       ?PrintMessageToDebugLog@@YGXPBD0@Z 100048a0 f   OmniMIDI.obj
 0001:00003970       ?PrintMessageWToDebugLog@@YGXPB_W0@Z 10004970 f   OmniMIDI.obj
 0001:00003a30       ?PrintVarToDebugLog@@YGXPBD0PAXH@Z 10004a30 f   OmniMIDI.obj
 0001:00003c10       ?PrintBASSErrorMessageToDebugLog@@YGXPB_W0@Z 10004c10 f   OmniMIDI.obj
 0001:00003cd0       ?PrintMemoryMessageToDebugLog@@YGXPBD0H_K@Z 10004cd0 f   OmniMIDI.obj
 0001:00003da0       ?PrintMIDIOPENDESCToDebugLog@@YGXPBDPAUMIDIOPENDESC@@KK@Z 10004da0 f   OmniMIDI.obj
 0001:00003e80       ?PrintMIDIHDRToDebugLog@@YGXPBDPAUmidihdr_tag@@@Z 10004e80 f   OmniMIDI.obj
 0001:00003fb0       ?PrintEventToDebugLog@@YGXK@Z 10004fb0 f   OmniMIDI.obj
 0001:000045f0       ?PrintLongMessageToDebugLog@@YGXPAUmidihdr_tag@@@Z 100055f0 f   OmniMIDI.obj
 0001:00004720       ?StartDebugPipe@@YGXH@Z    10005720 f   OmniMIDI.obj
 0001:00004800       ?DebugResult@@YGIPBDI0@Z   10005800 f   OmniMIDI.obj
 0001:00004a30       ?WINMM_OpenDriver@@YGPAUHDRVR__@@PB_W0J@Z 10005a30 f   OmniMIDI.obj
 0001:00004a40       ?WINMM_CloseDriver@@YGJPAUHDRVR__@@JJ@Z 10005a40 f   OmniMIDI.obj
 0001:00004a50       ?WINMM_SendDriverMessage@@YGJPAUHDRVR__@@IJJ@Z 10005a50 f   OmniMIDI.obj
 0001:00004a60       ?WINMM_mmGetCurrentTask@@YGKXZ 10005a60 f   OmniMIDI.obj
 0001:00004a70       ?WINMM_DrvGetModuleHandle@@YGPAUHINSTANCE__@@PAUHDRVR__@@@Z 10005a70 f   OmniMIDI.obj
 0001:00004a80       ?WINMM_GetDriverModuleHandle@@YGPAUHINSTANCE__@@PAUHDRVR__@@@Z 10005a80 f   OmniMIDI.obj
 0001:00004a90       ?WINMM_DefDriverProc@@YGJKPAUHDRVR__@@IJJ@Z 10005a90 f   OmniMIDI.obj
 0001:00004aa0       ?WINMM_DriverCallback@@YGJKKPAUHDRVR__@@KKKK@Z 10005aa0 f   OmniMIDI.obj
 0001:00004ab0       ?WINMM_midiOutGetErrorTextA@@YGIIPADI@Z 10005ab0 f   OmniMIDI.obj
 0001:00004ac0       ?WINMM_midiOutGetErrorTextW@@YGIIPA_WI@Z 10005ac0 f   OmniMIDI.obj
 0001:00004ad0       ?WINMM_midiConnect@@YGIPAUHMIDI__@@PAUHMIDIIN__@@PAX@Z 10005ad0 f   OmniMIDI.obj
 0001:00004ae0       ?WINMM_midiDisconnect@@YGIPAUHMIDI__@@PAUHMIDIIN__@@PAX@Z 10005ae0 f   OmniMIDI.obj
 0001:00004af0       ?WINMM_midiInAddBuffer@@YGIPAUHMIDIIN__@@PAUmidihdr_tag@@I@Z 10005af0 f   OmniMIDI.obj
 0001:00004b00       ?WINMM_midiInPrepareHeader@@YGIPAUHMIDIIN__@@PAUmidihdr_tag@@I@Z 10005b00 f   OmniMIDI.obj
 0001:00004b00       ?WINMM_midiInUnprepareHeader@@YGIPAUHMIDIIN__@@PAUmidihdr_tag@@I@Z 10005b00 f   OmniMIDI.obj
 0001:00004b10       ?WINMM_midiInOpen@@YGIPAPAUHMIDIIN__@@IKKK@Z 10005b10 f   OmniMIDI.obj
 0001:00004b20       ?WINMM_midiInStart@@YGIPAUHMIDIIN__@@@Z 10005b20 f   OmniMIDI.obj
 0001:00004b30       ?WINMM_midiInReset@@YGIPAUHMIDIIN__@@@Z 10005b30 f   OmniMIDI.obj
 0001:00004b40       ?WINMM_midiInStop@@YGIPAUHMIDIIN__@@@Z 10005b40 f   OmniMIDI.obj
 0001:00004b50       ?WINMM_midiInClose@@YGIPAUHMIDIIN__@@@Z 10005b50 f   OmniMIDI.obj
 0001:00004b60       ?WINMM_midiInGetID@@YGIPAUHMIDIIN__@@PAI@Z 10005b60 f   OmniMIDI.obj
 0001:00004b70       ?WINMM_midiInGetDevCapsA@@YGIIPAUtagMIDIINCAPSA@@I@Z 10005b70 f   OmniMIDI.obj
 0001:00004b80       ?WINMM_midiInGetDevCapsW@@YGIIPAUtagMIDIINCAPSW@@I@Z 10005b80 f   OmniMIDI.obj
 0001:00004b90       ?WINMM_midiInGetErrorTextA@@YGIIPADI@Z 10005b90 f   OmniMIDI.obj
 0001:00004ba0       ?WINMM_midiInGetErrorTextW@@YGIIPA_WI@Z 10005ba0 f   OmniMIDI.obj
 0001:00004bb0       ?WINMM_midiInMessage@@YGIPAUHMIDIIN__@@IKK@Z 10005bb0 f   OmniMIDI.obj
 0001:00004bc0       ?WINMM_midiInGetNumDevs@@YGIXZ 10005bc0 f   OmniMIDI.obj
 0001:00004bd0       ?WINMM_joyConfigChanged@@YGIK@Z 10005bd0 f   OmniMIDI.obj
 0001:00004be0       ?WINMM_joyGetDevCapsA@@YGIIPAUtagJOYCAPSA@@I@Z 10005be0 f   OmniMIDI.obj
 0001:00004bf0       ?WINMM_joyGetDevCapsW@@YGIIPAUtagJOYCAPSW@@I@Z 10005bf0 f   OmniMIDI.obj
 0001:00004c00       ?WINMM_joyGetPos@@YGIIPAUjoyinfo_tag@@@Z 10005c00 f   OmniMIDI.obj
 0001:00004c10       ?WINMM_joyGetPosEx@@YGIIPAUjoyinfoex_tag@@@Z 10005c10 f   OmniMIDI.obj
 0001:00004c20       ?WINMM_joyGetThreshold@@YGIIPAI@Z 10005c20 f   OmniMIDI.obj
 0001:00004c30       ?WINMM_joySetThreshold@@YGIII@Z 10005c30 f   OmniMIDI.obj
 0001:00004c40       ?WINMM_joyReleaseCapture@@YGII@Z 10005c40 f   OmniMIDI.obj
 0001:00004c50       ?WINMM_joySetCapture@@YGIPAUHWND__@@IIH@Z 10005c50 f   OmniMIDI.obj
 0001:00004c60       ?WINMM_joyGetNumDevs@@YGIXZ 10005c60 f   OmniMIDI.obj
 0001:00004c70       ?WINMM_mciDriverNotify@@YGHPAUHWND__@@II@Z 10005c70 f   OmniMIDI.obj
 0001:00004c80       ?WINMM_mciExecute@@YGHPBD@Z 10005c80 f   OmniMIDI.obj
 0001:00004c90       ?WINMM_mciLoadCommandResource@@YGIPAXPB_WI@Z 10005c90 f   OmniMIDI.obj
 0001:00004ca0       ?WINMM_mciFreeCommandResource@@YGHI@Z 10005ca0 f   OmniMIDI.obj
 0001:00004cb0       ?WINMM_mciGetErrorStringA@@YGHKPA_WI@Z 10005cb0 f   OmniMIDI.obj
 0001:00004cc0       ?WINMM_mciGetErrorStringW@@YGHKPA_WI@Z 10005cc0 f   OmniMIDI.obj
 0001:00004cd0       ?WINMM_mciSetDriverData@@YGHIK@Z 10005cd0 f   OmniMIDI.obj
 0001:00004ce0       ?WINMM_mciGetDriverData@@YGHI@Z 10005ce0 f   OmniMIDI.obj
 0001:00004cf0       ?WINMM_mciGetCreatorTask@@YGPAXI@Z 10005cf0 f   OmniMIDI.obj
 0001:00004d00       ?WINMM_mciGetDeviceIDA@@YGIPB_W@Z 10005d00 f   OmniMIDI.obj
 0001:00004d10       ?WINMM_mciGetDeviceIDW@@YGIPB_W@Z 10005d10 f   OmniMIDI.obj
 0001:00004d20       ?WINMM_mciGetDeviceIDFromElementIDA@@YGIKPB_W@Z 10005d20 f   OmniMIDI.obj
 0001:00004d30       ?WINMM_mciGetDeviceIDFromElementIDW@@YGIKPB_W@Z 10005d30 f   OmniMIDI.obj
 0001:00004d40       ?WINMM_mciSendCommandA@@YGKIIKK@Z 10005d40 f   OmniMIDI.obj
 0001:00004d50       ?WINMM_mciSendCommandW@@YGKIIKK@Z 10005d50 f   OmniMIDI.obj
 0001:00004d60       ?WINMM_mciSendStringA@@YGKPB_WPA_WIPAX@Z 10005d60 f   OmniMIDI.obj
 0001:00004d70       ?WINMM_mciSendStringW@@YGKPB_WPA_WIPAX@Z 10005d70 f   OmniMIDI.obj
 0001:00004d80       ?WINMM_mciDriverYield@@YGII@Z 10005d80 f   OmniMIDI.obj
 0001:00004d90       ?WINMM_mciSetYieldProc@@YGIIP6GIIK@ZK@Z 10005d90 f   OmniMIDI.obj
 0001:00004da0       ?WINMM_mciGetYieldProc@@YGP6GIIK@ZIPAK@Z 10005da0 f   OmniMIDI.obj
 0001:00004db0       ?WINMM_mixerMessage@@YGKPAUHMIXER__@@IKK@Z 10005db0 f   OmniMIDI.obj
 0001:00004dc0       ?WINMM_mixerClose@@YGIPAUHMIXER__@@@Z 10005dc0 f   OmniMIDI.obj
 0001:00004dd0       ?WINMM_mixerGetLineInfoA@@YGIPAUHMIXEROBJ__@@PAUtagMIXERLINEA@@K@Z 10005dd0 f   OmniMIDI.obj
 0001:00004de0       ?WINMM_mixerGetLineInfoW@@YGIPAUHMIXEROBJ__@@PAUtagMIXERLINEW@@K@Z 10005de0 f   OmniMIDI.obj
 0001:00004df0       ?WINMM_mixerGetLineControlsA@@YGIPAUHMIXEROBJ__@@PAUtagMIXERLINECONTROLSA@@K@Z 10005df0 f   OmniMIDI.obj
 0001:00004e00       ?WINMM_mixerGetLineControlsW@@YGIPAUHMIXEROBJ__@@PAUtagMIXERLINECONTROLSW@@K@Z 10005e00 f   OmniMIDI.obj
 0001:00004e10       ?WINMM_mixerSetControlDetails@@YGIPAUHMIXEROBJ__@@PAUtMIXERCONTROLDETAILS@@K@Z 10005e10 f   OmniMIDI.obj
 0001:00004e20       ?WINMM_mixerGetControlDetailsA@@YGIPAUHMIXEROBJ__@@PAUtMIXERCONTROLDETAILS@@K@Z 10005e20 f   OmniMIDI.obj
 0001:00004e30       ?WINMM_mixerGetControlDetailsW@@YGIPAUHMIXEROBJ__@@PAUtMIXERCONTROLDETAILS@@K@Z 10005e30 f   OmniMIDI.obj
 0001:00004e40       ?WINMM_mixerGetDevCapsA@@YGIIPAUtagMIXERCAPSA@@I@Z 10005e40 f   OmniMIDI.obj
 0001:00004e50       ?WINMM_mixerGetDevCapsW@@YGIIPAUtagMIXERCAPSW@@I@Z 10005e50 f   OmniMIDI.obj
 0001:00004e60       ?WINMM_mixerGetID@@YGIPAUHMIXEROBJ__@@PAIK@Z 10005e60 f   OmniMIDI.obj
 0001:00004e70       ?WINMM_mixerOpen@@YGIPAPAUHMIXER__@@IKKK@Z 10005e70 f   OmniMIDI.obj
 0001:00004e80       ?WINMM_mixerGetNumDevs@@YGIXZ 10005e80 f   OmniMIDI.obj
 0001:00004e90       ?WINMM_mmioStringToFOURCCA@@YGKPB_WI@Z 10005e90 f   OmniMIDI.obj
 0001:00004ea0       ?WINMM_mmioStringToFOURCCW@@YGKPB_WI@Z 10005ea0 f   OmniMIDI.obj
 0001:00004eb0       ?WINMM_mmioRead@@YGJPAUHMMIO__@@PADJ@Z 10005eb0 f   OmniMIDI.obj
 0001:00004ec0       ?WINMM_mmioSeek@@YGJPAUHMMIO__@@JH@Z 10005ec0 f   OmniMIDI.obj
 0001:00004ed0       ?WINMM_mmioWrite@@YGJPAUHMMIO__@@PADJ@Z 10005ed0 f   OmniMIDI.obj
 0001:00004ee0       ?WINMM_mmioInstallIOProcA@@YGP6GJPADIJJ@ZKP6GJ0IJJ@ZK@Z 10005ee0 f   OmniMIDI.obj
 0001:00004ef0       ?WINMM_mmioInstallIOProcW@@YGP6GJPADIJJ@ZKP6GJ0IJJ@ZK@Z 10005ef0 f   OmniMIDI.obj
 0001:00004f00       ?WINMM_mmioSendMessage@@YGJPAUHMMIO__@@IJJ@Z 10005f00 f   OmniMIDI.obj
 0001:00004f10       ?WINMM_mmioAdvance@@YGIPAUHMMIO__@@PAU_MMIOINFO@@I@Z 10005f10 f   OmniMIDI.obj
 0001:00004f20       ?WINMM_mmioAscend@@YGIPAUHMMIO__@@PAU_MMCKINFO@@I@Z 10005f20 f   OmniMIDI.obj
 0001:00004f30       ?WINMM_mmioClose@@YGIPAUHMMIO__@@I@Z 10005f30 f   OmniMIDI.obj
 0001:00004f40       ?WINMM_mmioCreateChunk@@YGIPAUHMMIO__@@PAU_MMCKINFO@@I@Z 10005f40 f   OmniMIDI.obj
 0001:00004f50       ?WINMM_mmioDescend@@YGIPAUHMMIO__@@PAU_MMCKINFO@@PBU2@I@Z 10005f50 f   OmniMIDI.obj
 0001:00004f60       ?WINMM_mmioFlush@@YGIPAUHMMIO__@@I@Z 10005f60 f   OmniMIDI.obj
 0001:00004f70       ?WINMM_mmioGetInfo@@YGIPAUHMMIO__@@PAU_MMIOINFO@@I@Z 10005f70 f   OmniMIDI.obj
 0001:00004f80       ?WINMM_mmioSetInfo@@YGIPAUHMMIO__@@QAU_MMIOINFO@@I@Z 10005f80 f   OmniMIDI.obj
 0001:00004f90       ?WINMM_mmioOpenA@@YGIPA_WPAU_MMIOINFO@@K@Z 10005f90 f   OmniMIDI.obj
 0001:00004fa0       ?WINMM_mmioOpenW@@YGIPA_WPAU_MMIOINFO@@K@Z 10005fa0 f   OmniMIDI.obj
 0001:00004fb0       ?WINMM_mmioRenameA@@YGIPB_W0QAU_MMIOINFO@@K@Z 10005fb0 f   OmniMIDI.obj
 0001:00004fc0       ?WINMM_mmioRenameW@@YGIPB_W0QAU_MMIOINFO@@K@Z 10005fc0 f   OmniMIDI.obj
 0001:00004fd0       ?WINMM_mmioSetBuffer@@YGIPAUHMMIO__@@PADJI@Z 10005fd0 f   OmniMIDI.obj
 0001:00004fe0       ?WINMM_mmTaskSignal@@YGHK@Z 10005fe0 f   OmniMIDI.obj
 0001:00004ff0       ?WINMM_mmTaskCreate@@YGIP6GXK@ZPAXK@Z 10005ff0 f   OmniMIDI.obj
 0001:00005000       ?WINMM_mmTaskBlock@@YGXK@Z 10006000 f   OmniMIDI.obj
 0001:00005010       ?WINMM_mmTaskYield@@YGXXZ  10006010 f   OmniMIDI.obj
 0001:00005020       ?WINMM_PlaySound@@YGHPB_WPAUHINSTANCE__@@K@Z 10006020 f   OmniMIDI.obj
 0001:00005030       ?WINMM_PlaySoundA@@YGHPB_WPAUHINSTANCE__@@K@Z 10006030 f   OmniMIDI.obj
 0001:00005040       ?WINMM_PlaySoundW@@YGHPB_WPAUHINSTANCE__@@K@Z 10006040 f   OmniMIDI.obj
 0001:00005050       ?WINMM_sndPlaySoundA@@YGHPB_WK@Z 10006050 f   OmniMIDI.obj
 0001:00005060       ?WINMM_sndPlaySoundW@@YGHPB_WK@Z 10006060 f   OmniMIDI.obj
 0001:00005070       ?WINMM_auxOutMessage@@YGKIIKK@Z 10006070 f   OmniMIDI.obj
 0001:00005080       ?WINMM_auxGetDevCapsA@@YGIIPAUtagAUXCAPSA@@I@Z 10006080 f   OmniMIDI.obj
 0001:00005090       ?WINMM_auxGetDevCapsW@@YGIIPAUtagAUXCAPSW@@I@Z 10006090 f   OmniMIDI.obj
 0001:000050a0       ?WINMM_auxGetVolume@@YGIIPAK@Z 100060a0 f   OmniMIDI.obj
 0001:000050b0       ?WINMM_auxSetVolume@@YGIIK@Z 100060b0 f   OmniMIDI.obj
 0001:000050c0       ?WINMM_auxGetNumDevs@@YGIXZ 100060c0 f   OmniMIDI.obj
 0001:000050d0       ?WINMM_waveOutMessage@@YGKPAUHWAVEOUT__@@IKK@Z 100060d0 f   OmniMIDI.obj
 0001:000050e0       ?WINMM_waveOutBreakLoop@@YGIPAUHWAVEOUT__@@@Z 100060e0 f   OmniMIDI.obj
 0001:000050f0       ?WINMM_waveOutClose@@YGIPAUHWAVEOUT__@@@Z 100060f0 f   OmniMIDI.obj
 0001:00005100       ?WINMM_waveOutGetDevCapsA@@YGIIPAUtagWAVEOUTCAPSA@@I@Z 10006100 f   OmniMIDI.obj
 0001:00005110       ?WINMM_waveOutGetDevCapsW@@YGIIPAUtagWAVEOUTCAPSW@@I@Z 10006110 f   OmniMIDI.obj
 0001:00005120       ?WINMM_waveOutGetErrorTextA@@YGIIPA_WI@Z 10006120 f   OmniMIDI.obj
 0001:00005130       ?WINMM_waveOutGetErrorTextW@@YGIIPA_WI@Z 10006130 f   OmniMIDI.obj
 0001:00005140       ?WINMM_waveOutGetID@@YGIPAUHWAVEOUT__@@PAI@Z 10006140 f   OmniMIDI.obj
 0001:00005150       ?WINMM_waveOutSetPitch@@YGIPAUHWAVEOUT__@@K@Z 10006150 f   OmniMIDI.obj
 0001:00005160       ?WINMM_waveOutGetPitch@@YGIPAUHWAVEOUT__@@PAK@Z 10006160 f   OmniMIDI.obj
 0001:00005170       ?WINMM_waveOutSetPlaybackRate@@YGIPAUHWAVEOUT__@@K@Z 10006170 f   OmniMIDI.obj
 0001:00005180       ?WINMM_waveOutGetPlaybackRate@@YGIPAUHWAVEOUT__@@PAK@Z 10006180 f   OmniMIDI.obj
 0001:00005190       ?WINMM_waveOutGetPosition@@YGIPAUHWAVEOUT__@@PAUmmtime_tag@@I@Z 10006190 f   OmniMIDI.obj
 0001:000051a0       ?WINMM_waveOutSetVolume@@YGIPAUHWAVEOUT__@@K@Z 100061a0 f   OmniMIDI.obj
 0001:000051b0       ?WINMM_waveOutGetVolume@@YGIPAUHWAVEOUT__@@PAK@Z 100061b0 f   OmniMIDI.obj
 0001:000051c0       ?WINMM_waveOutOpen@@YGIPAPAUHWAVEOUT__@@IPBUtWAVEFORMATEX@@KKK@Z 100061c0 f   OmniMIDI.obj
 0001:000051d0       ?WINMM_waveOutPrepareHeader@@YGIPAUHWAVEOUT__@@PAUwavehdr_tag@@I@Z 100061d0 f   OmniMIDI.obj
 0001:000051e0       ?WINMM_waveOutUnprepareHeader@@YGIPAUHWAVEOUT__@@PAUwavehdr_tag@@I@Z 100061e0 f   OmniMIDI.obj
 0001:000051f0       ?WINMM_waveOutWrite@@YGIPAUHWAVEOUT__@@PAUwavehdr_tag@@I@Z 100061f0 f   OmniMIDI.obj
 0001:00005200       ?WINMM_waveOutReset@@YGIPAUHWAVEOUT__@@@Z 10006200 f   OmniMIDI.obj
 0001:00005210       ?WINMM_waveOutRestart@@YGIPAUHWAVEOUT__@@@Z 10006210 f   OmniMIDI.obj
 0001:00005220       ?WINMM_waveOutPause@@YGIPAUHWAVEOUT__@@@Z 10006220 f   OmniMIDI.obj
 0001:00005230       ?WINMM_waveOutGetNumDevs@@YGIXZ 10006230 f   OmniMIDI.obj
 0001:00005240       ?WINMM_waveInMessage@@YGKPAUHWAVEIN__@@IKK@Z 10006240 f   OmniMIDI.obj
 0001:00005250       ?WINMM_waveInAddBuffer@@YGIPAUHWAVEIN__@@PAUwavehdr_tag@@I@Z 10006250 f   OmniMIDI.obj
 0001:00005260       ?WINMM_waveInClose@@YGIPAUHWAVEIN__@@@Z 10006260 f   OmniMIDI.obj
 0001:00005270       ?WINMM_waveInGetDevCapsA@@YGIIPAUtagWAVEINCAPSA@@I@Z 10006270 f   OmniMIDI.obj
 0001:00005280       ?WINMM_waveInGetDevCapsW@@YGIIPAUtagWAVEINCAPSW@@I@Z 10006280 f   OmniMIDI.obj
 0001:00005290       ?WINMM_waveInGetErrorTextA@@YGIIPA_WI@Z 10006290 f   OmniMIDI.obj
 0001:000052a0       ?WINMM_waveInGetErrorTextW@@YGIIPA_WI@Z 100062a0 f   OmniMIDI.obj
 0001:000052b0       ?WINMM_waveInGetID@@YGIPAUHWAVEIN__@@PAI@Z 100062b0 f   OmniMIDI.obj
 0001:000052c0       ?WINMM_waveInGetPosition@@YGIPAUHWAVEIN__@@PAUmmtime_tag@@I@Z 100062c0 f   OmniMIDI.obj
 0001:000052d0       ?WINMM_waveInOpen@@YGIPAPAUHWAVEIN__@@IPBUtWAVEFORMATEX@@KKK@Z 100062d0 f   OmniMIDI.obj
 0001:000052e0       ?WINMM_waveInPrepareHeader@@YGIPAUHWAVEIN__@@PAUwavehdr_tag@@I@Z 100062e0 f   OmniMIDI.obj
 0001:000052f0       ?WINMM_waveInUnprepareHeader@@YGIPAUHWAVEIN__@@PAUwavehdr_tag@@I@Z 100062f0 f   OmniMIDI.obj
 0001:00005300       ?WINMM_waveInReset@@YGIPAUHWAVEIN__@@@Z 10006300 f   OmniMIDI.obj
 0001:00005310       ?WINMM_waveInStart@@YGIPAUHWAVEIN__@@@Z 10006310 f   OmniMIDI.obj
 0001:00005320       ?WINMM_waveInStop@@YGIPAUHWAVEIN__@@@Z 10006320 f   OmniMIDI.obj
 0001:00005330       ?WINMM_waveInGetNumDevs@@YGIXZ 10006330 f   OmniMIDI.obj
 0001:00005340       ?WINMM_timeGetDevCaps@@YGIPAUtimecaps_tag@@I@Z 10006340 f   OmniMIDI.obj
 0001:00005350       ?WINMM_timeSetEvent@@YGIIIP6GXIIKKK@ZKI@Z 10006350 f   OmniMIDI.obj
 0001:00005360       ?WINMM_timeKillEvent@@YGII@Z 10006360 f   OmniMIDI.obj
 0001:00005370       ?WINMM_timeGetSystemTime@@YGIPAUmmtime_tag@@I@Z 10006370 f   OmniMIDI.obj
 0001:00005380       ?WINMM_timeBeginPeriod@@YGII@Z 10006380 f   OmniMIDI.obj
 0001:00005390       ?WINMM_timeEndPeriod@@YGII@Z 10006390 f   OmniMIDI.obj
 0001:000053a0       ?WINMM_GetOWINMM@@YGPAUHINSTANCE__@@XZ 100063a0 f   OmniMIDI.obj
 0001:000053b0       ?ImportFromWinMM@@YGHHPA_W@Z 100063b0 f   OmniMIDI.obj
 0001:00005410       ?InitializeWinMM@@YGHXZ    10006410 f   OmniMIDI.obj
 0001:00005600       ?ShakraError@@YGXPA_W000@Z 10006600 f   OmniMIDI.obj
 0001:00005660       ?DriverRegistration@@YGXPAUHWND__@@PAUHINSTANCE__@@PADK@Z 10006660 f   OmniMIDI.obj
 0001:000065a0       ?ReturnBASSError@@YGPB_WH@Z 100075a0 f   OmniMIDI.obj
 0001:000067b0       ?ReturnBASSErrorDesc@@YGPB_WH@Z 100077b0 f   OmniMIDI.obj
 0001:000069c0       ?ReturnBASSErrorFix@@YGPB_WH@Z 100079c0 f   OmniMIDI.obj
 0001:00006af0       ?ShowError@@YGXHHPAD0H@Z   10007af0 f   OmniMIDI.obj
 0001:00006dd0       ?CheckUp@@YGHHHPAD_N@Z     10007dd0 f   OmniMIDI.obj
 0001:00006f10       ?FileSize@@YG_JPB_W@Z      10007f10 f   OmniMIDI.obj
 0001:00007d20       ??_D?$basic_ifstream@_WU?$char_traits@_W@std@@@std@@QAEXXZ 10008d20 f i OmniMIDI.obj
 0001:00007dc0       ??_G?$vector@USoundFontList@@V?$allocator@USoundFontList@@@std@@@std@@QAEPAXI@Z 10008dc0 f i OmniMIDI.obj
 0001:00007e60       ?SendToBASSMIDI@@YGXK@Z    10008e60 f i OmniMIDI.obj
 0001:00007fa0       ?PrepareForBASSMIDI@@YGXKK@Z 10008fa0 f i OmniMIDI.obj
 0001:00008130       ?PrepareForBASSMIDIHyper@@YGXKK@Z 10009130 f i OmniMIDI.obj
 0001:00008150       ?SendLongToBASSMIDI@@YGXPAUmidihdr_tag@@@Z 10009150 f i OmniMIDI.obj
 0001:00008180       ?PSmallBufData@@YGXXZ      10009180 f i OmniMIDI.obj
 0001:00008240       ?PlayBufferedData@@YGXXZ   10009240 f i OmniMIDI.obj
 0001:00008360       ?PlayBufferedDataHyper@@YGXXZ 10009360 f i OmniMIDI.obj
 0001:00008450       ?PlayBufferedDataChunk@@YGXXZ 10009450 f i OmniMIDI.obj
 0001:00008560       ?PlayBufferedDataChunkHyper@@YGXXZ 10009560 f i OmniMIDI.obj
 0001:00008640       ?ParseData@@YGXK@Z         10009640 f i OmniMIDI.obj
 0001:00008810       ?ParseDataHyper@@YGXK@Z    10009810 f i OmniMIDI.obj
 0001:00008890       ?SetBufferPointers@@YGXXZ  10009890 f   OmniMIDI.obj
 0001:00008910       ?UnsetBufferPointers@@YGXXZ 10009910 f   OmniMIDI.obj
 0001:00008950       ?InitializeOrUpdateEffects@@YGXXZ 10009950 f   OmniMIDI.obj
 0001:00009020       ?ResetSynth@@YGXHH@Z       1000a020 f   OmniMIDI.obj
 0001:000090d0       ?OpenRegistryKey@@YGXAAURegKey@@PB_WH@Z 1000a0d0 f   OmniMIDI.obj
 0001:00009120       ?CloseRegistryKey@@YGXAAURegKey@@@Z 1000a120 f   OmniMIDI.obj
 0001:00009180       ?CloseThread@@YGHPAUThread@@@Z 1000a180 f   OmniMIDI.obj
 0001:00009210       ?DLLLoadError@@YGXPA_WH@Z  1000a210 f   OmniMIDI.obj
 0001:00009290       ?LoadSoundfont@@YGHH@Z     1000a290 f   OmniMIDI.obj
 0001:000093e0       ?LoadSoundfontStartup@@YG_NXZ 1000a3e0 f   OmniMIDI.obj
 0001:00009820       ?LoadDriverModule@@YGHPAUOMLib@@PA_W@Z 1000a820 f   OmniMIDI.obj
 0001:00009a20       ?LoadPluginModule@@YGXPAKPA_W@Z 1000aa20 f   OmniMIDI.obj
 0001:00009b40       ?LoadBASSFunctions@@YGHXZ  1000ab40 f   OmniMIDI.obj
 0001:0000a1a0       ?UnloadBASSFunctions@@YGXXZ 1000b1a0 f   OmniMIDI.obj
 0001:0000a460       ?ResetEVBufferSettings@@YGXXZ 1000b460 f   OmniMIDI.obj
 0001:0000a4d0       ?FreeUpMemory@@YGXXZ       1000b4d0 f   OmniMIDI.obj
 0001:0000a570       ?AllocateMemory@@YGXH@Z    1000b570 f   OmniMIDI.obj
 0001:0000a850       ?LoadSettings@@YGXHH@Z     1000b850 f   OmniMIDI.obj
 0001:0000b9e0       ?LoadCustomInstruments@@YGXXZ 1000c9e0 f   OmniMIDI.obj
 0001:0000bb20       ?AudioRenderingType@@YGHEH@Z 1000cb20 f   OmniMIDI.obj
 0001:0000bb60       ?SFDynamicLoaderCheck@@YGXXZ 1000cb60 f   OmniMIDI.obj
 0001:0000bc50       ?CheckVolume@@YGXH@Z       1000cc50 f   OmniMIDI.obj
 0001:0000bec0       ?FillContentDebug@@YGXXZ   1000cec0 f   OmniMIDI.obj
 0001:0000c7e0       ?ParseDebugData@@YGXXZ     1000d7e0 f   OmniMIDI.obj
 0001:0000c870       ?SendDebugDataToPipe@@YGXXZ 1000d870 f   OmniMIDI.obj
 0001:0000c8e0       ?MixerCheck@@YGXXZ         1000d8e0 f   OmniMIDI.obj
 0001:0000ca20       ?ReloadSFList@@YGXK@Z      1000da20 f   OmniMIDI.obj
 0001:0000ca90       ?KeyShortcuts@@YGXXZ       1000da90 f   OmniMIDI.obj
 0001:0000cd50       ?BannedProcesses@@YGHXZ    1000dd50 f   OmniMIDI.obj
 0001:0000cda0       ?BlackListSystem@@YGKXZ    1000dda0 f   OmniMIDI.obj
 0001:0000d560       ?SetNoteValuesFromSettings@@YGXXZ 1000e560 f   OmniMIDI.obj
 0001:0000d5e0       ?DisableMIDIFeedbackMode@@YGHXZ 1000e5e0 f   OmniMIDI.obj
 0001:0000d6d0       ?TerminateThread@@YGXPAUThread@@HK@Z 1000e6d0 f   OmniMIDI.obj
 0001:0000d700       ?DebugPipe@@YGXPAX@Z       1000e700 f   OmniMIDI.obj
 0001:0000d7c0       ?EventsProcesser@@YGXPAX@Z 1000e7c0 f   OmniMIDI.obj
 0001:0000d870       ?InitializeEventsProcesserThreads@@YGXXZ 1000e870 f   OmniMIDI.obj
 0001:0000d8e0       ?AudioEngine@@YGXPAX@Z     1000e8e0 f   OmniMIDI.obj
 0001:0000daf0       ?ProcData@@YGKPAXK0@Z      1000eaf0 f   OmniMIDI.obj
 0001:0000db20       ?ProcDataSameThread@@YGKPAXK0@Z 1000eb20 f   OmniMIDI.obj
 0001:0000db30       ?WASAPIProc@@YGKPAXK0@Z    1000eb30 f   OmniMIDI.obj
 0001:0000db40       ?ASIOProc@@YGKHKPAXK0@Z    1000eb40 f   OmniMIDI.obj
 0001:0000db60       ?IsThisThreadActive@@YGHPAX@Z 1000eb60 f   OmniMIDI.obj
 0001:0000dbb0       ?CheckIfThreadClosed@@YGHPAUThread@@@Z 1000ebb0 f   OmniMIDI.obj
 0001:0000dc10       ?CloseThreads@@YGXXZ       1000ec10 f   OmniMIDI.obj
 0001:0000dcb0       ?CreateThreads@@YGXXZ      1000ecb0 f   OmniMIDI.obj
 0001:0000dd90       ?InitializeBASSVST@@YGXXZ  1000ed90 f   OmniMIDI.obj
 0001:0000de90       ?InitializeStream@@YGHH@Z  1000ee90 f   OmniMIDI.obj
 0001:0000e000       ?FreeUpBASS@@YGXXZ         1000f000 f   OmniMIDI.obj
 0001:0000e110       ?FreeUpBASSWASAPI@@YGXXZ   1000f110 f   OmniMIDI.obj
 0001:0000e160       ?FreeUpBASSASIO@@YGXXZ     1000f160 f   OmniMIDI.obj
 0001:0000e1b0       ?FreeUpXA@@YGXXZ           1000f1b0 f   OmniMIDI.obj
 0001:0000e1d0       ?SetUpStream@@YGXXZ        1000f1d0 f   OmniMIDI.obj
 0001:0000e230       ?FreeUpStream@@YGXXZ       1000f230 f   OmniMIDI.obj
 0001:0000e2a0       ?ASIODevicesCount@@YGKXZ   1000f2a0 f   OmniMIDI.obj
 0001:0000e2e0       ?BASSDetectID@@YGJXZ       1000f2e0 f   OmniMIDI.obj
 0001:0000e4e0       ?WASAPIDetectID@@YGJXZ     1000f4e0 f   OmniMIDI.obj
 0001:0000e640       ?ASIODetectID@@YGJXZ       1000f640 f   OmniMIDI.obj
 0001:0000e7a0       ?InitializeBASSLibrary@@YGHXZ 1000f7a0 f   OmniMIDI.obj
 0001:0000e8b0       ?ApplyStreamSettings@@YGHXZ 1000f8b0 f   OmniMIDI.obj
 0001:0000eaa0       ?InitializeBASS@@YGHH@Z    1000faa0 f   OmniMIDI.obj
 0001:0000f950       ??_D?$basic_ostringstream@_WU?$char_traits@_W@std@@V?$allocator@_W@2@@std@@QAEXXZ 10010950 f i OmniMIDI.obj
 0001:0000f9f0       ?LoadSoundFontsToStream@@YGXXZ 100109f0 f   OmniMIDI.obj
 0001:0000fa20       ?DoCallback@@YGXKKK@Z      10010a20 f   OmniMIDI.obj
 0001:0000fb30       ?KillOldCookedPlayer@@YGXXZ 10010b30 f   OmniMIDI.obj
 0001:0000fb90       ?CookedPlayerSystem@@YGXPAUCookedPlayer@@@Z 10010b90 f   OmniMIDI.obj
 0001:0000fe90       ?PrepareDriver@@YGHXZ      10010e90 f   OmniMIDI.obj
 0001:0000fef0       ?StreamHealthCheck@@YGHXZ  10010ef0 f   OmniMIDI.obj
 0001:00010000       ?Supervisor@@YGXPAX@Z      10011000 f   OmniMIDI.obj
 0001:000102e0       ?DoStartClient@@YGHXZ      100112e0 f   OmniMIDI.obj
 0001:000103e0       ?DoStopClient@@YGHXZ       100113e0 f   OmniMIDI.obj
 0001:000104b0       _ReturnKDMAPIVer@16        100114b0 f   OmniMIDI.obj
 0001:00010550       _IsKDMAPIAvailable@0       10011550 f   OmniMIDI.obj
 0001:000105c0       _InitializeKDMAPIStream@0  100115c0 f   OmniMIDI.obj
 0001:00010680       _TerminateKDMAPIStream@0   10011680 f   OmniMIDI.obj
 0001:00010720       _InitializeCallbackFeatures@20 10011720 f   OmniMIDI.obj
 0001:00010910       _RunCallbackFunction@12    10011910 f   OmniMIDI.obj
 0001:00010930       _NoFeedbackMode@0          10011930 f   OmniMIDI.obj
 0001:00010940       _ResetKDMAPIStream@0       10011940 f   OmniMIDI.obj
 0001:00010960       _SendCustomEvent@12        10011960 f   OmniMIDI.obj
 0001:000109b0       _SendDirectData@4          100119b0 f   OmniMIDI.obj
 0001:000109f0       _SendDirectDataNoBuf@4     100119f0 f   OmniMIDI.obj
 0001:00010a30       _PrepareLongData@8         10011a30 f   OmniMIDI.obj
 0001:00010b50       _UnprepareLongData@8       10011b50 f   OmniMIDI.obj
 0001:00010c80       _SendDirectLongData@8      10011c80 f   OmniMIDI.obj
 0001:00010d90       _SendDirectLongDataNoBuf@8 10011d90 f   OmniMIDI.obj
 0001:00010e00       _DriverSettings@16         10011e00 f   OmniMIDI.obj
 0001:00011350       _GetDriverDebugInfo@0      10012350 f   OmniMIDI.obj
 0001:00011370       _LoadCustomSoundFontsList@4 10012370 f   OmniMIDI.obj
 0001:000113b0       _timeGetTime64@0           100123b0 f   OmniMIDI.obj
 0001:00011450       _DllMain@12                10012450 f   OmniMIDI.obj
 0001:000114f0       ?DriverProc@@YGJKPAXIJJ@Z  100124f0 f   OmniMIDI.obj
 0001:00011660       ?GiveOmniMIDICaps@@YGKPAXK@Z 10012660 f   OmniMIDI.obj
 0001:00011ac0       ?DequeueMIDIHDRs@@YGIXZ    10012ac0 f   OmniMIDI.obj
 0001:00011b50       _modMessage@20             10012b50 f   OmniMIDI.obj
 0001:00012580       ?KDMAPI_midiOutGetDevCapsW@@YGIIPAUtagMIDIOUTCAPSW@@I@Z 10013580 f   OmniMIDI.obj
 0001:000125b0       ?KDMAPI_midiOutGetDevCapsA@@YGIIPAUtagMIDIOUTCAPSA@@I@Z 100135b0 f   OmniMIDI.obj
 0001:00012690       ?KDMAPI_midiOutShortMsg@@YGIPAUHMIDIOUT__@@K@Z 10013690 f   OmniMIDI.obj
 0001:000126b0       ?KDMAPI_midiOutOpen@@YGIPAPAUHMIDIOUT__@@IKKK@Z 100136b0 f   OmniMIDI.obj
 0001:00012750       ?KDMAPI_midiOutClose@@YGIPAUHMIDIOUT__@@@Z 10013750 f   OmniMIDI.obj
 0001:000127a0       ?KDMAPI_midiOutReset@@YGIPAUHMIDIOUT__@@@Z 100137a0 f   OmniMIDI.obj
 0001:000127b0       ?KDMAPI_midiOutPrepareHeader@@YGIPAUHMIDIOUT__@@PAUmidihdr_tag@@I@Z 100137b0 f   OmniMIDI.obj
 0001:000127d0       ?KDMAPI_midiOutUnprepareHeader@@YGIPAUHMIDIOUT__@@PAUmidihdr_tag@@I@Z 100137d0 f   OmniMIDI.obj
 0001:000127f0       ?KDMAPI_midiOutLongMsg@@YGIPAUHMIDIOUT__@@PAUmidihdr_tag@@I@Z 100137f0 f   OmniMIDI.obj
 0001:00012820       ?KDMAPI_midiOutSetVolume@@YGIPAUHMIDIOUT__@@K@Z 10013820 f   OmniMIDI.obj
 0001:00012840       ?KDMAPI_midiOutGetVolume@@YGIPAUHMIDIOUT__@@PAK@Z 10013840 f   OmniMIDI.obj
 0001:00012860       ?KDMAPI_midiOutGetID@@YGIPAUHMIDIOUT__@@PAI@Z 10013860 f   OmniMIDI.obj
 0001:00012880       ?KDMAPI_mmsystemGetVersion@@YGIXZ 10013880 f   OmniMIDI.obj
 0001:00012890       ?KDMAPI_midiStreamOpen@@YGIPAPAUHMIDISTRM__@@PAIKKKK@Z 10013890 f   OmniMIDI.obj
 0001:00012940       ?KDMAPI_midiStreamClose@@YGIPAUHMIDISTRM__@@@Z 10013940 f   OmniMIDI.obj
 0001:00012980       ?KDMAPI_midiStreamOut@@YGIPAUHMIDISTRM__@@PAUmidihdr_tag@@I@Z 10013980 f   OmniMIDI.obj
 0001:000129a0       ?KDMAPI_midiStreamPause@@YGIPAUHMIDISTRM__@@@Z 100139a0 f   OmniMIDI.obj
 0001:000129c0       ?KDMAPI_midiStreamRestart@@YGIPAUHMIDISTRM__@@@Z 100139c0 f   OmniMIDI.obj
 0001:000129e0       ?KDMAPI_midiStreamStop@@YGIPAUHMIDISTRM__@@@Z 100139e0 f   OmniMIDI.obj
 0001:00012a00       ?KDMAPI_midiStreamProperty@@YGIPAUHMIDISTRM__@@PAEK@Z 10013a00 f   OmniMIDI.obj
 0001:00012a20       ?KDMAPI_midiStreamPosition@@YGIPAUHMIDISTRM__@@PAUmmtime_tag@@I@Z 10013a20 f   OmniMIDI.obj
 0001:00012a40       ?KDMAPI_poweredByKeppy@@YGXXZ 10013a40 f   OmniMIDI.obj
 0001:00012a60       ?FINAL_timeGetTime@@YGKXZ  10013a60 f   OmniMIDI.obj
 0001:00012a70       ?seekpos@?$basic_stringbuf@_WU?$char_traits@_W@std@@V?$allocator@_W@2@@std@@MAE?AV?$fpos@U_Mbstatet@@@2@V32@H@Z 10013a70 f i OmniMIDI.obj
 0001:00012bb0       ?seekoff@?$basic_stringbuf@_WU?$char_traits@_W@std@@V?$allocator@_W@2@@std@@MAE?AV?$fpos@U_Mbstatet@@@2@_JHH@Z 10013bb0 f i OmniMIDI.obj
 0001:00012d60       ?underflow@?$basic_stringbuf@_WU?$char_traits@_W@std@@V?$allocator@_W@2@@std@@MAEGXZ 10013d60 f i OmniMIDI.obj
 0001:00012dd0       ?pbackfail@?$basic_stringbuf@_WU?$char_traits@_W@std@@V?$allocator@_W@2@@std@@MAEGG@Z 10013dd0 f i OmniMIDI.obj
 0001:00012e40       ?overflow@?$basic_stringbuf@_WU?$char_traits@_W@std@@V?$allocator@_W@2@@std@@MAEGG@Z 10013e40 f i OmniMIDI.obj
 0001:00012fc0       ??1?$basic_stringbuf@_WU?$char_traits@_W@std@@V?$allocator@_W@2@@std@@UAE@XZ 10013fc0 f i OmniMIDI.obj
 0001:000130e0       ??6?$basic_ostream@_WU?$char_traits@_W@std@@@std@@QAEAAV01@K@Z 100140e0 f i OmniMIDI.obj
 0001:000132d0       ??1?$basic_ostream@_WU?$char_traits@_W@std@@@std@@UAE@XZ 100142d0 f i OmniMIDI.obj
 0001:000132f0       ?imbue@?$basic_filebuf@_WU?$char_traits@_W@std@@@std@@MAEXABVlocale@2@@Z 100142f0 f i OmniMIDI.obj
 0001:00013310       ?sync@?$basic_filebuf@_WU?$char_traits@_W@std@@@std@@MAEHXZ 10014310 f i OmniMIDI.obj
 0001:00013350       ?setbuf@?$basic_filebuf@_WU?$char_traits@_W@std@@@std@@MAEPAV?$basic_streambuf@_WU?$char_traits@_W@std@@@2@PA_W_J@Z 10014350 f i OmniMIDI.obj
 0001:00013430       ?seekpos@?$basic_filebuf@_WU?$char_traits@_W@std@@@std@@MAE?AV?$fpos@U_Mbstatet@@@2@V32@H@Z 10014430 f i OmniMIDI.obj
 0001:00013500       ?seekoff@?$basic_filebuf@_WU?$char_traits@_W@std@@@std@@MAE?AV?$fpos@U_Mbstatet@@@2@_JHH@Z 10014500 f i OmniMIDI.obj
 0001:00013610       ?xsputn@?$basic_filebuf@_WU?$char_traits@_W@std@@@std@@MAE_JPB_W_J@Z 10014610 f i OmniMIDI.obj
 0001:000136f0       ?xsgetn@?$basic_filebuf@_WU?$char_traits@_W@std@@@std@@MAE_JPA_W_J@Z 100146f0 f i OmniMIDI.obj
 0001:000137e0       ?uflow@?$basic_filebuf@_WU?$char_traits@_W@std@@@std@@MAEGXZ 100147e0 f i OmniMIDI.obj
 0001:00013bb0       ?underflow@?$basic_filebuf@_WU?$char_traits@_W@std@@@std@@MAEGXZ 10014bb0 f i OmniMIDI.obj
 0001:00013bf0       ?pbackfail@?$basic_filebuf@_WU?$char_traits@_W@std@@@std@@MAEGG@Z 10014bf0 f i OmniMIDI.obj
 0001:00013cb0       ?overflow@?$basic_filebuf@_WU?$char_traits@_W@std@@@std@@MAEGG@Z 10014cb0 f i OmniMIDI.obj
 0001:00013e00       ?_Unlock@?$basic_filebuf@_WU?$char_traits@_W@std@@@std@@UAEXXZ 10014e00 f i OmniMIDI.obj
 0001:00013e10       ?_Lock@?$basic_filebuf@_WU?$char_traits@_W@std@@@std@@UAEXXZ 10014e10 f i OmniMIDI.obj
 0001:00013e20       ??1?$basic_filebuf@_WU?$char_traits@_W@std@@@std@@UAE@XZ 10014e20 f i OmniMIDI.obj
 0001:00013ed0       ?do_encoding@?$codecvt_utf8@_W$0BAPPPP@$0A@@std@@MBEHXZ 10014ed0 f i OmniMIDI.obj
 0001:00013ed0       ?sync@?$basic_streambuf@_WU?$char_traits@_W@std@@@std@@MAEHXZ 10014ed0 f i OmniMIDI.obj
 0001:00013ee0       ?setbuf@?$basic_streambuf@_WU?$char_traits@_W@std@@@std@@MAEPAV12@PA_W_J@Z 10014ee0 f i OmniMIDI.obj
 0001:00013ef0       ?seekpos@?$basic_streambuf@_WU?$char_traits@_W@std@@@std@@MAE?AV?$fpos@U_Mbstatet@@@2@V32@H@Z 10014ef0 f i OmniMIDI.obj
 0001:00013f20       ?seekoff@?$basic_streambuf@_WU?$char_traits@_W@std@@@std@@MAE?AV?$fpos@U_Mbstatet@@@2@_JHH@Z 10014f20 f i OmniMIDI.obj
 0001:00013f50       ?xsputn@?$basic_streambuf@_WU?$char_traits@_W@std@@@std@@MAE_JPB_W_J@Z 10014f50 f i OmniMIDI.obj
 0001:00014040       ?xsgetn@?$basic_streambuf@_WU?$char_traits@_W@std@@@std@@MAE_JPA_W_J@Z 10015040 f i OmniMIDI.obj
 0001:00014130       ?uflow@?$basic_streambuf@_WU?$char_traits@_W@std@@@std@@MAEGXZ 10015130 f i OmniMIDI.obj
 0001:00014160       ?underflow@?$basic_streambuf@_WU?$char_traits@_W@std@@@std@@MAEGXZ 10015160 f i OmniMIDI.obj
 0001:00014170       ?showmanyc@?$basic_streambuf@_WU?$char_traits@_W@std@@@std@@MAE_JXZ 10015170 f i OmniMIDI.obj
 0001:00014180       ?overflow@?$basic_streambuf@_WU?$char_traits@_W@std@@@std@@MAEGG@Z 10015180 f i OmniMIDI.obj
 0001:00014180       ?pbackfail@?$basic_streambuf@_WU?$char_traits@_W@std@@@std@@MAEGG@Z 10015180 f i OmniMIDI.obj
 0001:00014190       ??1?$basic_streambuf@_WU?$char_traits@_W@std@@@std@@UAE@XZ 10015190 f i OmniMIDI.obj
 0001:000141d0       ??0?$basic_ifstream@_WU?$char_traits@_W@std@@@std@@QAE@PB_WHH@Z 100151d0 f i OmniMIDI.obj
 0001:00014490       ?getline@?$basic_istream@_WU?$char_traits@_W@std@@@std@@QAEAAV12@PA_W_J@Z 10015490 f i OmniMIDI.obj
 0001:000144c0       ??1?$basic_istream@_WU?$char_traits@_W@std@@@std@@UAE@XZ 100154c0 f i OmniMIDI.obj
 0001:000144e0       ?imbue@?$basic_ios@_WU?$char_traits@_W@std@@@std@@QAE?AVlocale@2@ABV32@@Z 100154e0 f i OmniMIDI.obj
 0001:00014640       ??1?$basic_ios@_WU?$char_traits@_W@std@@@std@@UAE@XZ 10015640 f i OmniMIDI.obj
 0001:00014690       ??1?$vector@V?$basic_string@_WU?$char_traits@_W@std@@V?$allocator@_W@2@@std@@V?$allocator@V?$basic_string@_WU?$char_traits@_W@std@@V?$allocator@_W@2@@std@@@2@@std@@QAE@XZ 10015690 f i OmniMIDI.obj
 0001:00014740       ?push_back@?$vector@UBASS_MIDI_FONTEX@@V?$allocator@UBASS_MIDI_FONTEX@@@std@@@std@@QAEXABUBASS_MIDI_FONTEX@@@Z 10015740 f i OmniMIDI.obj
 0001:00014780       ?push_back@?$vector@KV?$allocator@K@std@@@std@@QAEXABK@Z 10015780 f i OmniMIDI.obj
 0001:000147b0       ?do_max_length@?$codecvt_utf8@_W$0BAPPPP@$0A@@std@@MBEHXZ 100157b0 f i OmniMIDI.obj
 0001:000147c0       ?do_length@?$codecvt_utf8@_W$0BAPPPP@$0A@@std@@MBEHAAU_Mbstatet@@PBD1I@Z 100157c0 f i OmniMIDI.obj
 0001:000147e0       ?do_unshift@?$codecvt_utf8@_W$0BAPPPP@$0A@@std@@MBEHAAU_Mbstatet@@PAD1AAPAD@Z 100157e0 f i OmniMIDI.obj
 0001:00014800       ?do_out@?$codecvt_utf8@_W$0BAPPPP@$0A@@std@@MBEHAAU_Mbstatet@@PB_W1AAPB_WPAD3AAPAD@Z 10015800 f i OmniMIDI.obj
 0001:000148e0       ?do_in@?$codecvt_utf8@_W$0BAPPPP@$0A@@std@@MBEHAAU_Mbstatet@@PBD1AAPBDPA_W3AAPA_W@Z 100158e0 f i OmniMIDI.obj
 0001:000149f0       ??1?$lock_guard@Vmutex@std@@@std@@QAE@XZ 100159f0 f i OmniMIDI.obj
 0001:00014a30       ??1?$_Yarn@D@std@@QAE@XZ   10015a30 f i OmniMIDI.obj
 0001:00014a30       ??1?$_Yarn@_W@std@@QAE@XZ  10015a30 f i OmniMIDI.obj
 0001:00014a80       ??4?$_Yarn@D@std@@QAEAAV01@PBD@Z 10015a80 f i OmniMIDI.obj
 0001:00014b10       ?substr@?$basic_string@_WU?$char_traits@_W@std@@V?$allocator@_W@2@@std@@QBE?AV12@II@Z 10015b10 f i OmniMIDI.obj
 0001:00014bb0       ?find@?$basic_string@_WU?$char_traits@_W@std@@V?$allocator@_W@2@@std@@QBEIQB_WI@Z 10015bb0 f i OmniMIDI.obj
 0001:00014ca0       ?append@?$basic_string@_WU?$char_traits@_W@std@@V?$allocator@_W@2@@std@@QAEAAV12@QB_W@Z 10015ca0 f i OmniMIDI.obj
 0001:00014d20       ?append@?$basic_string@_WU?$char_traits@_W@std@@V?$allocator@_W@2@@std@@QAEAAV12@ABV12@@Z 10015d20 f i OmniMIDI.obj
 0001:00014d90       ??1?$basic_string@_WU?$char_traits@_W@std@@V?$allocator@_W@2@@std@@QAE@XZ 10015d90 f i OmniMIDI.obj
 0001:00014da0       ??0?$basic_string@_WU?$char_traits@_W@std@@V?$allocator@_W@2@@std@@QAE@I_W@Z 10015da0 f i OmniMIDI.obj
 0001:00014dd0       ??0?$basic_string@_WU?$char_traits@_W@std@@V?$allocator@_W@2@@std@@QAE@QB_W@Z 10015dd0 f i OmniMIDI.obj
 0001:00014e20       ??1?$basic_string@DU?$char_traits@D@std@@V?$allocator@D@2@@std@@QAE@XZ 10015e20 f i OmniMIDI.obj
 0001:00014e20       ?_Tidy_deallocate@?$basic_string@DU?$char_traits@D@std@@V?$allocator@D@2@@std@@AAEXXZ 10015e20 f i OmniMIDI.obj
 0001:00014ea0       ??0?$basic_string@DU?$char_traits@D@std@@V?$allocator@D@2@@std@@QAE@$$QAV01@@Z 10015ea0 f i OmniMIDI.obj
 0001:00014ef0       ??0?$basic_string@DU?$char_traits@D@std@@V?$allocator@D@2@@std@@QAE@QBD@Z 10015ef0 f i OmniMIDI.obj
 0001:00014f30       ??0?$basic_string@DU?$char_traits@D@std@@V?$allocator@D@2@@std@@QAE@QBDI@Z 10015f30 f i OmniMIDI.obj
 0001:00014f60       ??_E?$basic_stringbuf@_WU?$char_traits@_W@std@@V?$allocator@_W@2@@std@@UAEPAXI@Z 10015f60 f i * CIL library *:* CIL module *
 0001:00014f60       ??_G?$basic_stringbuf@_WU?$char_traits@_W@std@@V?$allocator@_W@2@@std@@UAEPAXI@Z 10015f60 f i OmniMIDI.obj
 0001:00014f90       ??_E?$basic_ostringstream@_WU?$char_traits@_W@std@@V?$allocator@_W@2@@std@@UAEPAXI@Z 10015f90 f i * CIL library *:* CIL module *
 0001:00014f90       ??_G?$basic_ostringstream@_WU?$char_traits@_W@std@@V?$allocator@_W@2@@std@@UAEPAXI@Z 10015f90 f i OmniMIDI.obj
 0001:00014fd0       ??_E?$basic_ostream@_WU?$char_traits@_W@std@@@std@@UAEPAXI@Z 10015fd0 f i * CIL library *:* CIL module *
 0001:00014fd0       ??_G?$basic_ostream@_WU?$char_traits@_W@std@@@std@@UAEPAXI@Z 10015fd0 f i OmniMIDI.obj
 0001:00015050       ??_E?$basic_filebuf@_WU?$char_traits@_W@std@@@std@@UAEPAXI@Z 10016050 f i * CIL library *:* CIL module *
 0001:00015050       ??_G?$basic_filebuf@_WU?$char_traits@_W@std@@@std@@UAEPAXI@Z 10016050 f i OmniMIDI.obj
 0001:00015080       ??_E?$basic_streambuf@_WU?$char_traits@_W@std@@@std@@UAEPAXI@Z 10016080 f i * CIL library *:* CIL module *
 0001:00015080       ??_G?$basic_streambuf@_WU?$char_traits@_W@std@@@std@@UAEPAXI@Z 10016080 f i OmniMIDI.obj
 0001:000150d0       ??_E?$basic_ifstream@_WU?$char_traits@_W@std@@@std@@UAEPAXI@Z 100160d0 f i * CIL library *:* CIL module *
 0001:000150d0       ??_G?$basic_ifstream@_WU?$char_traits@_W@std@@@std@@UAEPAXI@Z 100160d0 f i OmniMIDI.obj
 0001:00015100       ??_E?$basic_istream@_WU?$char_traits@_W@std@@@std@@UAEPAXI@Z 10016100 f i * CIL library *:* CIL module *
 0001:00015100       ??_G?$basic_istream@_WU?$char_traits@_W@std@@@std@@UAEPAXI@Z 10016100 f i OmniMIDI.obj
 0001:00015180       ??_E?$basic_ios@_WU?$char_traits@_W@std@@@std@@UAEPAXI@Z 10016180 f i * CIL library *:* CIL module *
 0001:00015180       ??_G?$basic_ios@_WU?$char_traits@_W@std@@@std@@UAEPAXI@Z 10016180 f i OmniMIDI.obj
 0001:000151e0       ??_E?$codecvt_utf8@_W$0BAPPPP@$0A@@std@@UAEPAXI@Z 100161e0 f i * CIL library *:* CIL module *
 0001:000151e0       ??_G?$codecvt_utf8@_W$0BAPPPP@$0A@@std@@UAEPAXI@Z 100161e0 f i OmniMIDI.obj
 0001:00015260       ?do_put@?$num_put@_WV?$ostreambuf_iterator@_WU?$char_traits@_W@std@@@std@@@std@@MBE?AV?$ostreambuf_iterator@_WU?$char_traits@_W@std@@@2@V32@AAVios_base@2@_WPBX@Z 10016260 f i OmniMIDI.obj
 0001:000152b0       ?do_put@?$num_put@_WV?$ostreambuf_iterator@_WU?$char_traits@_W@std@@@std@@@std@@MBE?AV?$ostreambuf_iterator@_WU?$char_traits@_W@std@@@2@V32@AAVios_base@2@_WO@Z 100162b0 f i OmniMIDI.obj
 0001:000154c0       ?do_put@?$num_put@_WV?$ostreambuf_iterator@_WU?$char_traits@_W@std@@@std@@@std@@MBE?AV?$ostreambuf_iterator@_WU?$char_traits@_W@std@@@2@V32@AAVios_base@2@_WN@Z 100164c0 f i OmniMIDI.obj
 0001:000156d0       ?do_put@?$num_put@_WV?$ostreambuf_iterator@_WU?$char_traits@_W@std@@@std@@@std@@MBE?AV?$ostreambuf_iterator@_WU?$char_traits@_W@std@@@2@V32@AAVios_base@2@_W_K@Z 100166d0 f i OmniMIDI.obj
 0001:000157a0       ?do_put@?$num_put@_WV?$ostreambuf_iterator@_WU?$char_traits@_W@std@@@std@@@std@@MBE?AV?$ostreambuf_iterator@_WU?$char_traits@_W@std@@@2@V32@AAVios_base@2@_W_J@Z 100167a0 f i OmniMIDI.obj
 0001:00015870       ?do_put@?$num_put@_WV?$ostreambuf_iterator@_WU?$char_traits@_W@std@@@std@@@std@@MBE?AV?$ostreambuf_iterator@_WU?$char_traits@_W@std@@@2@V32@AAVios_base@2@_WK@Z 10016870 f i OmniMIDI.obj
 0001:00015930       ?do_put@?$num_put@_WV?$ostreambuf_iterator@_WU?$char_traits@_W@std@@@std@@@std@@MBE?AV?$ostreambuf_iterator@_WU?$char_traits@_W@std@@@2@V32@AAVios_base@2@_WJ@Z 10016930 f i OmniMIDI.obj
 0001:000159f0       ?do_put@?$num_put@_WV?$ostreambuf_iterator@_WU?$char_traits@_W@std@@@std@@@std@@MBE?AV?$ostreambuf_iterator@_WU?$char_traits@_W@std@@@2@V32@AAVios_base@2@_W_N@Z 100169f0 f i OmniMIDI.obj
 0001:00015c70       ?put@?$num_put@_WV?$ostreambuf_iterator@_WU?$char_traits@_W@std@@@std@@@std@@QBE?AV?$ostreambuf_iterator@_WU?$char_traits@_W@std@@@2@V32@AAVios_base@2@_WK@Z 10016c70 f i OmniMIDI.obj
 0001:00015ca0       ??1sentry@?$basic_ostream@_WU?$char_traits@_W@std@@@std@@QAE@XZ 10016ca0 f i OmniMIDI.obj
 0001:00015d10       ??0sentry@?$basic_ostream@_WU?$char_traits@_W@std@@@std@@QAE@AAV12@@Z 10016d10 f i OmniMIDI.obj
 0001:00015da0       ?_Initcvt@?$basic_filebuf@_WU?$char_traits@_W@std@@@std@@IAEXABV?$codecvt@_WDU_Mbstatet@@@2@@Z 10016da0 f i OmniMIDI.obj
 0001:00015e30       ?_Endwrite@?$basic_filebuf@_WU?$char_traits@_W@std@@@std@@IAE_NXZ 10016e30 f i OmniMIDI.obj
 0001:00015ed0       ?close@?$basic_filebuf@_WU?$char_traits@_W@std@@@std@@QAEPAV12@XZ 10016ed0 f i OmniMIDI.obj
 0001:00016030       ?_Pnavail@?$basic_streambuf@_WU?$char_traits@_W@std@@@std@@IBE_JXZ 10017030 f i OmniMIDI.obj
 0001:00016050       ?_Gnavail@?$basic_streambuf@_WU?$char_traits@_W@std@@@std@@IBE_JXZ 10017050 f i OmniMIDI.obj
 0001:00016070       ?getline@?$basic_istream@_WU?$char_traits@_W@std@@@std@@QAEAAV12@PA_W_J_W@Z 10017070 f i OmniMIDI.obj
 0001:00016260       ?widen@?$basic_ios@_WU?$char_traits@_W@std@@@std@@QBE_WD@Z 10017260 f i OmniMIDI.obj
 0001:00016300       ?setstate@?$basic_ios@_WU?$char_traits@_W@std@@@std@@QAEXH_N@Z 10017300 f i OmniMIDI.obj
 0001:00016330       ?_Tidy_deallocate@?$basic_string@_WU?$char_traits@_W@std@@V?$allocator@_W@2@@std@@AAEXXZ 10017330 f i OmniMIDI.obj
 0001:000163b0       ?assign@?$basic_string@_WU?$char_traits@_W@std@@V?$allocator@_W@2@@std@@QAEAAV12@I_W@Z 100173b0 f i OmniMIDI.obj
 0001:00016530       ?assign@?$basic_string@_WU?$char_traits@_W@std@@V?$allocator@_W@2@@std@@QAEAAV12@QB_WI@Z 10017530 f i OmniMIDI.obj
 0001:00016680       ?append@?$basic_string@_WU?$char_traits@_W@std@@V?$allocator@_W@2@@std@@QAEAAV12@QB_WI@Z 10017680 f i OmniMIDI.obj
 0001:000166f0       ?allocate@?$allocator@_W@std@@QAEPA_WI@Z 100176f0 f i OmniMIDI.obj
 0001:00016730       ?deallocate@?$allocator@_W@std@@QAEXQA_WI@Z 10017730 f i OmniMIDI.obj
 0001:00016770       ?push_back@?$basic_string@DU?$char_traits@D@std@@V?$allocator@D@2@@std@@QAEXD@Z 10017770 f i OmniMIDI.obj
 0001:000168c0       ?assign@?$basic_string@DU?$char_traits@D@std@@V?$allocator@D@2@@std@@QAEAAV12@QBDI@Z 100178c0 f i OmniMIDI.obj
 0001:000169e0       ?append@?$basic_string@DU?$char_traits@D@std@@V?$allocator@D@2@@std@@QAEAAV12@QBDI@Z 100179e0 f i OmniMIDI.obj
 0001:00016b70       ?_Construct_lv_contents@?$basic_string@DU?$char_traits@D@std@@V?$allocator@D@2@@std@@AAEXABV12@@Z 10017b70 f i OmniMIDI.obj
 0001:00016c00       ??_E?$num_put@_WV?$ostreambuf_iterator@_WU?$char_traits@_W@std@@@std@@@std@@MAEPAXI@Z 10017c00 f i * CIL library *:* CIL module *
 0001:00016c00       ??_G?$num_put@_WV?$ostreambuf_iterator@_WU?$char_traits@_W@std@@@std@@@std@@MAEPAXI@Z 10017c00 f i OmniMIDI.obj
 0001:00016c70       ??1sentry@?$basic_istream@_WU?$char_traits@_W@std@@@std@@QAE@XZ 10017c70 f i OmniMIDI.obj
 0001:00016cc0       ??1_Sentry_base@?$basic_istream@_WU?$char_traits@_W@std@@@std@@QAE@XZ 10017cc0 f i OmniMIDI.obj
 0001:00016cc0       ??1_Sentry_base@?$basic_ostream@_WU?$char_traits@_W@std@@@std@@QAE@XZ 10017cc0 f i OmniMIDI.obj
 0001:00016d00       ?do_truename@?$numpunct@_W@std@@MBE?AV?$basic_string@_WU?$char_traits@_W@std@@V?$allocator@_W@2@@2@XZ 10017d00 f i OmniMIDI.obj
 0001:00016d90       ?do_falsename@?$numpunct@_W@std@@MBE?AV?$basic_string@_WU?$char_traits@_W@std@@V?$allocator@_W@2@@2@XZ 10017d90 f i OmniMIDI.obj
 0001:00016e20       ?do_grouping@?$numpunct@_W@std@@MBE?AV?$basic_string@DU?$char_traits@D@std@@V?$allocator@D@2@@2@XZ 10017e20 f i OmniMIDI.obj
 0001:00016eb0       ?do_thousands_sep@?$_Mpunct@G@std@@MBEGXZ 10017eb0 f i libcpmt:wlocale.obj
 0001:00016eb0       ?do_thousands_sep@?$_Mpunct@_W@std@@MBE_WXZ 10017eb0 f i libcpmt:wlocale.obj
 0001:00016eb0       ?do_thousands_sep@?$numpunct@G@std@@MBEGXZ 10017eb0 f i libcpmt:wlocale.obj
 0001:00016eb0       ?do_thousands_sep@?$numpunct@_W@std@@MBE_WXZ 10017eb0 f i OmniMIDI.obj
 0001:00016ec0       ?do_decimal_point@?$_Mpunct@G@std@@MBEGXZ 10017ec0 f i libcpmt:wlocale.obj
 0001:00016ec0       ?do_decimal_point@?$_Mpunct@_W@std@@MBE_WXZ 10017ec0 f i libcpmt:wlocale.obj
 0001:00016ec0       ?do_decimal_point@?$numpunct@G@std@@MBEGXZ 10017ec0 f i libcpmt:wlocale.obj
 0001:00016ec0       ?do_decimal_point@?$numpunct@_W@std@@MBE_WXZ 10017ec0 f i OmniMIDI.obj
 0001:00016ed0       ?_Rep@?$num_put@_WV?$ostreambuf_iterator@_WU?$char_traits@_W@std@@@std@@@std@@ABA?AV?$ostreambuf_iterator@_WU?$char_traits@_W@std@@@2@V32@_WI@Z 10017ed0 f i OmniMIDI.obj
 0001:00016f50       ?_Put@?$num_put@_WV?$ostreambuf_iterator@_WU?$char_traits@_W@std@@@std@@@std@@ABA?AV?$ostreambuf_iterator@_WU?$char_traits@_W@std@@@2@V32@PB_WI@Z 10017f50 f i OmniMIDI.obj
 0001:00016fd0       ?_Iput@?$num_put@_WV?$ostreambuf_iterator@_WU?$char_traits@_W@std@@@std@@@std@@ABA?AV?$ostreambuf_iterator@_WU?$char_traits@_W@std@@@2@V32@AAVios_base@2@_WPADI@Z 10017fd0 f i OmniMIDI.obj
 0001:00017410       ?_Fput@?$num_put@_WV?$ostreambuf_iterator@_WU?$char_traits@_W@std@@@std@@@std@@ABA?AV?$ostreambuf_iterator@_WU?$char_traits@_W@std@@@2@V32@AAVios_base@2@_WPBDI@Z 10018410 f i OmniMIDI.obj
 0001:000178a0       ?_Ffmt@?$num_put@_WV?$ostreambuf_iterator@_WU?$char_traits@_W@std@@@std@@@std@@ABAPADPADDH@Z 100188a0 f i OmniMIDI.obj
 0001:00017960       ?flush@?$basic_ostream@_WU?$char_traits@_W@std@@@std@@QAEAAV12@XZ 10018960 f i OmniMIDI.obj
 0001:00017a70       ?_Osfx@?$basic_ostream@_WU?$char_traits@_W@std@@@std@@QAEXXZ 10018a70 f i OmniMIDI.obj
 0001:00017af0       ?snextc@?$basic_streambuf@_WU?$char_traits@_W@std@@@std@@QAEGXZ 10018af0 f i OmniMIDI.obj
 0001:00017b70       ?sgetc@?$basic_streambuf@_WU?$char_traits@_W@std@@@std@@QAEGXZ 10018b70 f i OmniMIDI.obj
 0001:00017b90       ?sbumpc@?$basic_streambuf@_WU?$char_traits@_W@std@@@std@@QAEGXZ 10018b90 f i OmniMIDI.obj
 0001:00017bc0       ??0?$basic_streambuf@_WU?$char_traits@_W@std@@@std@@IAE@XZ 10018bc0 f i OmniMIDI.obj
 0001:00017c50       ?init@?$basic_ios@_WU?$char_traits@_W@std@@@std@@IAEXPAV?$basic_streambuf@_WU?$char_traits@_W@std@@@2@_N@Z 10018c50 f i OmniMIDI.obj
 0001:00017d80       ?deallocate@?$allocator@USoundFontList@@@std@@QAEXQAUSoundFontList@@I@Z 10018d80 f i OmniMIDI.obj
 0001:00017dc0       ?deallocate@?$allocator@UBASS_MIDI_FONTEX@@@std@@QAEXQAUBASS_MIDI_FONTEX@@I@Z 10018dc0 f i OmniMIDI.obj
 0001:00017dc0       ?deallocate@?$allocator@V?$basic_string@_WU?$char_traits@_W@std@@V?$allocator@_W@2@@std@@@std@@QAEXQAV?$basic_string@_WU?$char_traits@_W@std@@V?$allocator@_W@2@@2@I@Z 10018dc0 f i OmniMIDI.obj
 0001:00017e00       ?deallocate@?$allocator@K@std@@QAEXQAKI@Z 10018e00 f i OmniMIDI.obj
 0001:00017e40       ?resize@?$basic_string@DU?$char_traits@D@std@@V?$allocator@D@2@@std@@QAEXID@Z 10018e40 f i OmniMIDI.obj
 0001:00017ec0       ??_E?$numpunct@_W@std@@MAEPAXI@Z 10018ec0 f i * CIL library *:* CIL module *
 0001:00017ec0       ??_G?$numpunct@_W@std@@MAEPAXI@Z 10018ec0 f i OmniMIDI.obj
 0001:00017f50       ?grouping@?$numpunct@_W@std@@QBE?AV?$basic_string@DU?$char_traits@D@std@@V?$allocator@D@2@@2@XZ 10018f50 f i OmniMIDI.obj
 0001:00017fa0       ?thousands_sep@?$numpunct@_W@std@@QBE_WXZ 10018fa0 f i OmniMIDI.obj
 0001:00017fb0       ?decimal_point@?$numpunct@_W@std@@QBE_WXZ 10018fb0 f i OmniMIDI.obj
 0001:00017fc0       ??4?$ostreambuf_iterator@_WU?$char_traits@_W@std@@@std@@QAEAAV01@_W@Z 10018fc0 f i OmniMIDI.obj
 0001:00018020       ?_Ipfx@?$basic_istream@_WU?$char_traits@_W@std@@@std@@QAE_N_N@Z 10019020 f i OmniMIDI.obj
 0001:000180b0       ?insert@?$basic_string@_WU?$char_traits@_W@std@@V?$allocator@_W@2@@std@@QAEAAV12@II_W@Z 100190b0 f i OmniMIDI.obj
 0001:00018140       ??R<lambda_1337019723fdb3c1dc6116579f742d4b>@@QBE@QA_WQB_WIII_W@Z 10019140 f i OmniMIDI.obj
 0001:000181b0       ??4?$basic_string@_WU?$char_traits@_W@std@@V?$allocator@_W@2@@std@@QAEAAV01@$$QAV01@@Z 100191b0 f i OmniMIDI.obj
 0001:000181f0       ?append@?$basic_string@DU?$char_traits@D@std@@V?$allocator@D@2@@std@@QAEAAV12@ID@Z 100191f0 f i OmniMIDI.obj
 0001:00018250       ?_Xran@?$_String_val@U?$_Simple_types@D@std@@@std@@SAXXZ 10019250 f i libcpmt:locale.obj
 0001:00018250       ?_Xran@?$_String_val@U?$_Simple_types@G@std@@@std@@SAXXZ 10019250 f i libcpmt:wlocale.obj
 0001:00018250       ?_Xran@?$_String_val@U?$_Simple_types@_W@std@@@std@@SGXXZ 10019250 f i OmniMIDI.obj
 0001:00018260       ??$_Immortalize_memcpy_image@V_Iostream_error_category2@std@@@std@@YGABV_Iostream_error_category2@0@XZ 10019260 f i OmniMIDI.obj
 0001:00018270       ??$_Integral_to_string@_WH@std@@YG?AV?$basic_string@_WU?$char_traits@_W@std@@V?$allocator@_W@2@@0@H@Z 10019270 f i OmniMIDI.obj
 0001:00018320       ??$_UIntegral_to_string@_WK@std@@YG?AV?$basic_string@_WU?$char_traits@_W@std@@V?$allocator@_W@2@@0@K@Z 10019320 f i OmniMIDI.obj
 0001:000183b0       ??$_UIntegral_to_string@_W_K@std@@YG?AV?$basic_string@_WU?$char_traits@_W@std@@V?$allocator@_W@2@@0@_K@Z 100193b0 f i OmniMIDI.obj
 0001:00018450       ??$_Codecvt_do_length@V?$codecvt_utf8@_W$0BAPPPP@$0A@@std@@DU_Mbstatet@@@std@@YGHABV?$codecvt_utf8@_W$0BAPPPP@$0A@@0@AAU_Mbstatet@@PBD2I@Z 10019450 f i OmniMIDI.obj
 0001:00018580       ??$swprintf_s@$0PP@@@YAHAAY0PP@_WPB_WZZ 10019580 f i OmniMIDI.obj
 0001:000185d0       ??$swprintf_s@$0CAA@@@YAHAAY0CAA@_WPB_WZZ 100195d0 f i OmniMIDI.obj
 0001:00018620       ??$getline@_WU?$char_traits@_W@std@@V?$allocator@_W@2@@std@@YGAAV?$basic_istream@_WU?$char_traits@_W@std@@@0@AAV10@AAV?$basic_string@_WU?$char_traits@_W@std@@V?$allocator@_W@2@@0@@Z 10019620 f i OmniMIDI.obj
 0001:00018650       ??$swprintf_s@$0HPPP@@@YAHAAY0HPPP@_WPB_WZZ 10019650 f i OmniMIDI.obj
 0001:000186a0       ??$?H_WU?$char_traits@_W@std@@V?$allocator@_W@1@@std@@YG?AV?$basic_string@_WU?$char_traits@_W@std@@V?$allocator@_W@2@@0@QB_W$$QAV10@@Z 100196a0 f i OmniMIDI.obj
 0001:00018800       ??$?H_WU?$char_traits@_W@std@@V?$allocator@_W@1@@std@@YG?AV?$basic_string@_WU?$char_traits@_W@std@@V?$allocator@_W@2@@0@$$QAV10@QB_W@Z 10019800 f i OmniMIDI.obj
 0001:00018890       ??$use_facet@V?$num_put@_WV?$ostreambuf_iterator@_WU?$char_traits@_W@std@@@std@@@std@@@std@@YAABV?$num_put@_WV?$ostreambuf_iterator@_WU?$char_traits@_W@std@@@std@@@0@ABVlocale@0@@Z 10019890 f i OmniMIDI.obj
 0001:00018a30       ??$use_facet@V?$codecvt@_WDU_Mbstatet@@@std@@@std@@YAABV?$codecvt@_WDU_Mbstatet@@@0@ABVlocale@0@@Z 10019a30 f i OmniMIDI.obj
 0001:00018c10       ??$_Float_put_desired_precision@N@std@@YGH_JH@Z 10019c10 f i OmniMIDI.obj
 0001:00018c10       ??$_Float_put_desired_precision@O@std@@YGH_JH@Z 10019c10 f i OmniMIDI.obj
 0001:00018c50       ??$use_facet@V?$numpunct@_W@std@@@std@@YAABV?$numpunct@_W@0@ABVlocale@0@@Z 10019c50 f i OmniMIDI.obj
 0001:00018d80       ??$use_facet@V?$ctype@_W@std@@@std@@YAABV?$ctype@_W@0@ABVlocale@0@@Z 10019d80 f i OmniMIDI.obj
 0001:00018fa0       ??$_Destroy_range@V?$allocator@V?$basic_string@_WU?$char_traits@_W@std@@V?$allocator@_W@2@@std@@@std@@@std@@YGXPAV?$basic_string@_WU?$char_traits@_W@std@@V?$allocator@_W@2@@0@QAV10@AAV?$allocator@V?$basic_string@_WU?$char_traits@_W@std@@V?$allocator@_W@2@@std@@@0@@Z 10019fa0 f i OmniMIDI.obj
 0001:00018fd0       ??$_Reallocate_grow_by@V<lambda_2fb699096920f2dc628cb0826b07831d>@@PB_WI@?$basic_string@_WU?$char_traits@_W@std@@V?$allocator@_W@2@@std@@AAEAAV01@IV<lambda_2fb699096920f2dc628cb0826b07831d>@@PB_WI@Z 10019fd0 f i OmniMIDI.obj
 0001:00019150       ??$_Reallocate_grow_by@V<lambda_1337019723fdb3c1dc6116579f742d4b>@@II_W@?$basic_string@_WU?$char_traits@_W@std@@V?$allocator@_W@2@@std@@AAEAAV01@IV<lambda_1337019723fdb3c1dc6116579f742d4b>@@II_W@Z 1001a150 f i OmniMIDI.obj
 0001:00019290       ??$_Reallocate_grow_by@V<lambda_c1b8c41cb4019640539cfd828748c4d4>@@ID@?$basic_string@DU?$char_traits@D@std@@V?$allocator@D@2@@std@@AAEAAV01@IV<lambda_c1b8c41cb4019640539cfd828748c4d4>@@ID@Z 1001a290 f i OmniMIDI.obj
 0001:000193f0       ??1?$_Alloc_temporary2@V?$allocator@V?$basic_string@_WU?$char_traits@_W@std@@V?$allocator@_W@2@@std@@@std@@@std@@QAE@XZ 1001a3f0 f i OmniMIDI.obj
 0001:00019400       ??1?$unique_ptr@V_Facet_base@std@@U?$default_delete@V_Facet_base@std@@@2@@std@@QAE@XZ 1001a400 f i OmniMIDI.obj
 0001:00019410       ?_Getcat@?$numpunct@_W@std@@SGIPAPBVfacet@locale@2@PBV42@@Z 1001a410 f i OmniMIDI.obj
 0001:00019630       ??0?$basic_string@_WU?$char_traits@_W@std@@V?$allocator@_W@2@@std@@QAE@U_String_constructor_concat_tag@1@AAV01@1@Z 1001a630 f i OmniMIDI.obj
 0001:00019830       ?_Init@?$numpunct@_W@std@@IAEXABV_Locinfo@2@_N@Z 1001a830 f i OmniMIDI.obj
 0001:000199c0       ??1?$_Tidy_guard@V?$numpunct@_W@std@@@std@@QAE@XZ 1001a9c0 f i OmniMIDI.obj
 0001:00019a10       ??$_UIntegral_to_buff@_WI@std@@YGPA_WPA_WI@Z 1001aa10 f i OmniMIDI.obj
 0001:00019a10       ??$_UIntegral_to_buff@_WK@std@@YGPA_WPA_WK@Z 1001aa10 f i OmniMIDI.obj
 0001:00019a40       ??$_UIntegral_to_buff@_W_K@std@@YGPA_WPA_W_K@Z 1001aa40 f i OmniMIDI.obj
 0001:00019b60       ??$getline@_WU?$char_traits@_W@std@@V?$allocator@_W@2@@std@@YGAAV?$basic_istream@_WU?$char_traits@_W@std@@@0@$$QAV10@AAV?$basic_string@_WU?$char_traits@_W@std@@V?$allocator@_W@2@@0@_W@Z 1001ab60 f i OmniMIDI.obj
 0001:00019cf0       ??$_Emplace_reallocate@ABUSoundFontList@@@?$vector@USoundFontList@@V?$allocator@USoundFontList@@@std@@@std@@AAEPAUSoundFontList@@QAU2@ABU2@@Z 1001acf0 f i OmniMIDI.obj
 0001:00019ec0       ??$construct@V?$basic_string@_WU?$char_traits@_W@std@@V?$allocator@_W@2@@std@@V12@@?$_Default_allocator_traits@V?$allocator@V?$basic_string@_WU?$char_traits@_W@std@@V?$allocator@_W@2@@std@@@std@@@std@@SGXAAV?$allocator@V?$basic_string@_WU?$char_traits@_W@std@@V?$allocator@_W@2@@std@@@1@QAV?$basic_string@_WU?$char_traits@_W@std@@V?$allocator@_W@2@@1@$$QAV31@@Z 1001aec0 f i OmniMIDI.obj
 0001:00019f10       ??$_Emplace_reallocate@V?$basic_string@_WU?$char_traits@_W@std@@V?$allocator@_W@2@@std@@@?$vector@V?$basic_string@_WU?$char_traits@_W@std@@V?$allocator@_W@2@@std@@V?$allocator@V?$basic_string@_WU?$char_traits@_W@std@@V?$allocator@_W@2@@std@@@2@@std@@AAEPAV?$basic_string@_WU?$char_traits@_W@std@@V?$allocator@_W@2@@1@QAV21@$$QAV21@@Z 1001af10 f i OmniMIDI.obj
 0001:0001a110       ??$_Emplace_reallocate@ABUBASS_MIDI_FONTEX@@@?$vector@UBASS_MIDI_FONTEX@@V?$allocator@UBASS_MIDI_FONTEX@@@std@@@std@@AAEPAUBASS_MIDI_FONTEX@@QAU2@ABU2@@Z 1001b110 f i OmniMIDI.obj
 0001:0001a2a0       ??$_Emplace_reallocate@ABK@?$vector@KV?$allocator@K@std@@@std@@AAEPAKQAKABK@Z 1001b2a0 f i OmniMIDI.obj
 0001:0001a400       ??$_Allocate_manually_vector_aligned@U_Default_allocate_traits@std@@@std@@YGPAXI@Z 1001b400 f i OmniMIDI.obj
 0001:0001a430       ??$_Reallocate_grow_by@V<lambda_09fe38f6114539daa867a3e4d6874f49>@@IPB_WI@?$basic_string@_WU?$char_traits@_W@std@@V?$allocator@_W@2@@std@@AAEAAV01@IV<lambda_09fe38f6114539daa867a3e4d6874f49>@@IPB_WI@Z 1001b430 f i OmniMIDI.obj
 0001:0001a590       ??$_Maklocstr@D@std@@YAPADPBDPADABU_Cvtvec@@@Z 1001b590 f i OmniMIDI.obj
 0001:0001a5e0       ?_Xlength@?$vector@KV?$allocator@K@std@@@std@@CGXXZ 1001b5e0 f i OmniMIDI.obj
 0001:0001a5e0       ?_Xlength@?$vector@UBASS_MIDI_FONTEX@@V?$allocator@UBASS_MIDI_FONTEX@@@std@@@std@@CGXXZ 1001b5e0 f i OmniMIDI.obj
 0001:0001a5e0       ?_Xlength@?$vector@USoundFontList@@V?$allocator@USoundFontList@@@std@@@std@@CGXXZ 1001b5e0 f i OmniMIDI.obj
 0001:0001a5e0       ?_Xlength@?$vector@V?$basic_string@_WU?$char_traits@_W@std@@V?$allocator@_W@2@@std@@V?$allocator@V?$basic_string@_WU?$char_traits@_W@std@@V?$allocator@_W@2@@std@@@2@@std@@CGXXZ 1001b5e0 f i OmniMIDI.obj
 0001:0001a5f0       ?_Change_array@?$vector@UBASS_MIDI_FONTEX@@V?$allocator@UBASS_MIDI_FONTEX@@@std@@@std@@AAEXQAUBASS_MIDI_FONTEX@@II@Z 1001b5f0 f i OmniMIDI.obj
 0001:0001a670       ?_Change_array@?$vector@KV?$allocator@K@std@@@std@@AAEXQAKII@Z 1001b670 f i OmniMIDI.obj
 0001:0001a6e0       ?erase@?$basic_string@_WU?$char_traits@_W@std@@V?$allocator@_W@2@@std@@QAEAAV12@I@Z 1001b6e0 f i OmniMIDI.obj
 0001:0001a710       ??Y?$basic_string@_WU?$char_traits@_W@std@@V?$allocator@_W@2@@std@@QAEAAV01@_W@Z 1001b710 f i OmniMIDI.obj
 0001:0001a770       ?_Eos@?$basic_string@_WU?$char_traits@_W@std@@V?$allocator@_W@2@@std@@AAEXI@Z 1001b770 f i OmniMIDI.obj
 0001:0001a790       ?push_back@?$basic_string@_WU?$char_traits@_W@std@@V?$allocator@_W@2@@std@@QAEX_W@Z 1001b790 f i OmniMIDI.obj
 0001:0001a7e0       ??$_Uninitialized_move@PAUSoundFontList@@V?$allocator@USoundFontList@@@std@@@std@@YGPAUSoundFontList@@QAU1@0PAU1@AAV?$allocator@USoundFontList@@@0@@Z 1001b7e0 f i OmniMIDI.obj
 0001:0001a820       ??$_Uninitialized_move@PAV?$basic_string@_WU?$char_traits@_W@std@@V?$allocator@_W@2@@std@@V?$allocator@V?$basic_string@_WU?$char_traits@_W@std@@V?$allocator@_W@2@@std@@@2@@std@@YGPAV?$basic_string@_WU?$char_traits@_W@std@@V?$allocator@_W@2@@0@QAV10@0PAV10@AAV?$allocator@V?$basic_string@_WU?$char_traits@_W@std@@V?$allocator@_W@2@@std@@@0@@Z 1001b820 f i OmniMIDI.obj
 0001:0001a8d0       ??$_Uninitialized_move@PAUBASS_MIDI_FONTEX@@V?$allocator@UBASS_MIDI_FONTEX@@@std@@@std@@YGPAUBASS_MIDI_FONTEX@@QAU1@0PAU1@AAV?$allocator@UBASS_MIDI_FONTEX@@@0@@Z 1001b8d0 f i OmniMIDI.obj
 0001:0001a910       ??$_Reallocate_grow_by@V<lambda_38fb7828f6004e9a4c6a38bfc6df7f44>@@_W@?$basic_string@_WU?$char_traits@_W@std@@V?$allocator@_W@2@@std@@AAEAAV01@IV<lambda_38fb7828f6004e9a4c6a38bfc6df7f44>@@_W@Z 1001b910 f i OmniMIDI.obj
 0001:0001aa70       ??1?$_Uninitialized_backout_al@V?$allocator@V?$basic_string@_WU?$char_traits@_W@std@@V?$allocator@_W@2@@std@@@std@@@std@@QAE@XZ 1001ba70 f i OmniMIDI.obj
 0001:0001aaa0       ??$_Copy_memmove@PAKPAK@std@@YGPAKPAK00@Z 1001baa0 f i OmniMIDI.obj
 0001:0001aaa0       ??$_Copy_memmove@PAUBASS_MIDI_FONTEX@@PAU1@@std@@YGPAUBASS_MIDI_FONTEX@@PAU1@00@Z 1001baa0 f i OmniMIDI.obj
 0001:0001aaa0       ??$_Copy_memmove@PAUSoundFontList@@PAU1@@std@@YGPAUSoundFontList@@PAU1@00@Z 1001baa0 f i OmniMIDI.obj
 0001:0001aac0       ??_E?$basic_ostringstream@_WU?$char_traits@_W@std@@V?$allocator@_W@2@@std@@$4PPPPPPPM@A@AEPAXI@Z 1001bac0 f i OmniMIDI.obj
 0001:0001aac8       ??_E?$basic_ostream@_WU?$char_traits@_W@std@@@std@@$4PPPPPPPM@A@AEPAXI@Z 1001bac8 f i OmniMIDI.obj
 0001:0001aad0       ??_E?$basic_istream@_WU?$char_traits@_W@std@@@std@@$4PPPPPPPM@A@AEPAXI@Z 1001bad0 f i OmniMIDI.obj
 0001:0001aad8       ??_E?$basic_ifstream@_WU?$char_traits@_W@std@@@std@@$4PPPPPPPM@A@AEPAXI@Z 1001bad8 f i OmniMIDI.obj
 0001:0001aae0       ??1sound_out@@UAE@XZ       1001bae0 f i sound_out_xa.obj
 0001:0001aaf0       ??_Esound_out@@UAEPAXI@Z   1001baf0 f i * CIL library *:* CIL module *
 0001:0001aaf0       ??_Gsound_out@@UAEPAXI@Z   1001baf0 f i sound_out_xa.obj
 0001:0001ab20       ?IsLoaded@XAudio2Output@@UAE_NXZ 1001bb20 f i sound_out_xa.obj
 0001:0001ab30       ?OpenStream@XAudio2Output@@UAEPBDPAXIGGII@Z 1001bb30 f i sound_out_xa.obj
 0001:0001ace0       ?close@XAudio2Output@@QAEXXZ 1001bce0 f i sound_out_xa.obj
 0001:0001ad50       ?WriteFrame@XAudio2Output@@UAEPBDPAXI@Z 1001bd50 f i sound_out_xa.obj
 0001:0001ae90       ??_EXAudio2Output@@UAEPAXI@Z 1001be90 f i * CIL library *:* CIL module *
 0001:0001ae90       ??_GXAudio2Output@@UAEPAXI@Z 1001be90 f i sound_out_xa.obj
 0001:0001af10       ?CreateXAudio2Stream@@YGPAVsound_out@@XZ 1001bf10 f   sound_out_xa.obj
 0001:0001b0d2       ??0CAtlBaseModule@ATL@@QAE@XZ 1001c0d2 f   atls:atlbase.obj
 0001:0001b125       ??0_ATL_BASE_MODULE70@ATL@@QAE@XZ 1001c125 f i atls:atlbase.obj
 0001:0001b148       ??1CAtlBaseModule@ATL@@QAE@XZ 1001c148 f   atls:atlbase.obj
 0001:0001b15e       ?RemoveAll@?$CSimpleArray@PAUHINSTANCE__@@V?$CSimpleArrayEqualHelper@PAUHINSTANCE__@@@ATL@@@ATL@@QAEXXZ 1001c15e f i atls:atlbase.obj
 0001:0001b17b       __Thrd_hardware_concurrency 1001c17b f   libcpmt:cthread.obj
 0001:0001b190       __Mbrtowc                  1001c190 f   libcpmt:xmbtowc.obj
 0001:0001b319       ??0_Init_locks@std@@QAE@XZ 1001c319 f   libcpmt:xlock.obj
 0001:0001b346       ??0_Lockit@std@@QAE@H@Z    1001c346 f   libcpmt:xlock.obj
 0001:0001b377       ??1_Init_locks@std@@QAE@XZ 1001c377 f   libcpmt:xlock.obj
 0001:0001b39e       ??1_Lockit@std@@QAE@XZ     1001c39e f   libcpmt:xlock.obj
 0001:0001b3bd       ??0bad_alloc@std@@QAE@XZ   1001c3bd f i libcpmt:xthrow.obj
 0001:0001b3d5       ??0length_error@std@@QAE@ABV01@@Z 1001c3d5 f i libcpmt:xthrow.obj
 0001:0001b3f0       ??0length_error@std@@QAE@PBD@Z 1001c3f0 f i libcpmt:xthrow.obj
 0001:0001b40f       ??0logic_error@std@@QAE@ABV01@@Z 1001c40f f i libcpmt:xthrow.obj
 0001:0001b42a       ??0out_of_range@std@@QAE@ABV01@@Z 1001c42a f i libcpmt:xthrow.obj
 0001:0001b445       ??0out_of_range@std@@QAE@PBD@Z 1001c445 f i libcpmt:xthrow.obj
 0001:0001b464       ??0runtime_error@std@@QAE@PBD@Z 1001c464 f i libcpmt:xthrow.obj
 0001:0001b483       ??1bad_exception@std@@UAE@XZ 1001c483 f i libvcruntime:frame.obj
 0001:0001b483       ??1length_error@std@@UAE@XZ 1001c483 f i libcpmt:xthrow.obj
 0001:0001b483       ??1out_of_range@std@@UAE@XZ 1001c483 f i libcpmt:xthrow.obj
 0001:0001b494       ??_Ebad_exception@std@@UAEPAXI@Z 1001c494 f i libvcruntime:frame.obj
 0001:0001b494       ??_Elength_error@std@@UAEPAXI@Z 1001c494 f i libcpmt:xthrow.obj
 0001:0001b494       ??_Elogic_error@std@@UAEPAXI@Z 1001c494 f i libcpmt:xthrow.obj
 0001:0001b494       ??_Eout_of_range@std@@UAEPAXI@Z 1001c494 f i libcpmt:xthrow.obj
 0001:0001b494       ??_Gbad_exception@std@@UAEPAXI@Z 1001c494 f i libvcruntime:frame.obj
 0001:0001b494       ??_Glength_error@std@@UAEPAXI@Z 1001c494 f i libcpmt:xthrow.obj
 0001:0001b494       ??_Glogic_error@std@@UAEPAXI@Z 1001c494 f i libcpmt:xthrow.obj
 0001:0001b494       ??_Gout_of_range@std@@UAEPAXI@Z 1001c494 f i libcpmt:xthrow.obj
 0001:0001b4c1       ?_Xbad_alloc@std@@YAXXZ    1001c4c1 f   libcpmt:xthrow.obj
 0001:0001b4c1       ?__scrt_throw_std_bad_alloc@@YAXXZ 1001c4c1 f   LIBCMT:throw_bad_alloc.obj
 0001:0001b4de       ?_Xlength_error@std@@YAXPBD@Z 1001c4de f   libcpmt:xthrow.obj
 0001:0001b4fe       ?_Xout_of_range@std@@YAXPBD@Z 1001c4fe f   libcpmt:xthrow.obj
 0001:0001b51e       ?_Xruntime_error@std@@YAXPBD@Z 1001c51e f   libcpmt:xthrow.obj
 0001:0001b53e       ??$_Allocate@$07U_Default_allocate_traits@std@@$0A@@std@@YAPAXI@Z 1001c53e f i libcpmt:locale.obj
 0001:0001b564       ??$_Allocate_manually_vector_aligned@U_Default_allocate_traits@std@@@std@@YAPAXI@Z 1001c564 f i libcpmt:locale.obj
 0001:0001b592       ??$_Deallocate@$07$0A@@std@@YAXPAXI@Z 1001c592 f i libcpmt:locale.obj
 0001:0001b5be       ??$_Find_unchecked@PBDD@std@@YAPBDPBDQBDABD@Z 1001c5be f i libcpmt:locale.obj
 0001:0001b5e3       ??$_Float_put_desired_precision@N@std@@YAH_JH@Z 1001c5e3 f i libcpmt:locale.obj
 0001:0001b5e3       ??$_Float_put_desired_precision@O@std@@YAH_JH@Z 1001c5e3 f i libcpmt:locale.obj
 0001:0001b614       ??$_Getloctxt@V?$istreambuf_iterator@DU?$char_traits@D@std@@@std@@D@std@@YAHAAV?$istreambuf_iterator@DU?$char_traits@D@std@@@0@0IPBDW4_Case_sensitive@0@@Z 1001c614 f i libcpmt:locale.obj
 0001:0001b828       ??$_Reallocate_for@V<lambda_1>@?1??assign@?$basic_string@DU?$char_traits@D@std@@V?$allocator@D@2@@std@@QAEAAV34@ID@Z@D@?$basic_string@DU?$char_traits@D@std@@V?$allocator@D@2@@std@@AAEAAV01@IV<lambda_1>@?1??assign@01@QAEAAV01@ID@Z@D@Z 1001c828 f i libcpmt:locale.obj
 0001:0001b89a       ??$_Reallocate_grow_by@V<lambda_1>@?1??insert@?$basic_string@DU?$char_traits@D@std@@V?$allocator@D@2@@std@@QAEAAV34@IID@Z@IID@?$basic_string@DU?$char_traits@D@std@@V?$allocator@D@2@@std@@AAEAAV01@IV<lambda_1>@?1??insert@01@QAEAAV01@IID@Z@IID@Z 1001c89a f i libcpmt:locale.obj
 0001:0001b92c       ??$use_facet@V?$codecvt@DDU_Mbstatet@@@std@@@std@@YAABV?$codecvt@DDU_Mbstatet@@@0@ABVlocale@0@@Z 1001c92c f i libcpmt:locale.obj
 0001:0001b9c1       ??$use_facet@V?$ctype@D@std@@@std@@YAABV?$ctype@D@0@ABVlocale@0@@Z 1001c9c1 f i libcpmt:locale.obj
 0001:0001ba56       ??$use_facet@V?$num_get@DV?$istreambuf_iterator@DU?$char_traits@D@std@@@std@@@std@@@std@@YAABV?$num_get@DV?$istreambuf_iterator@DU?$char_traits@D@std@@@std@@@0@ABVlocale@0@@Z 1001ca56 f i libcpmt:locale.obj
 0001:0001baeb       ??$use_facet@V?$num_put@DV?$ostreambuf_iterator@DU?$char_traits@D@std@@@std@@@std@@@std@@YAABV?$num_put@DV?$ostreambuf_iterator@DU?$char_traits@D@std@@@std@@@0@ABVlocale@0@@Z 1001caeb f i libcpmt:locale.obj
 0001:0001bb80       ??$use_facet@V?$numpunct@D@std@@@std@@YAABV?$numpunct@D@0@ABVlocale@0@@Z 1001cb80 f i libcpmt:locale.obj
 0001:0001bc15       ??0?$basic_string@DU?$char_traits@D@std@@V?$allocator@D@2@@std@@QAE@ID@Z 1001cc15 f i libcpmt:locale.obj
 0001:0001bc4f       ??0?$ctype@D@std@@QAE@ABV_Locinfo@1@I@Z 1001cc4f f i libcpmt:locale.obj
 0001:0001bc85       ??1?$_Tidy_guard@V?$numpunct@D@std@@@std@@QAE@XZ 1001cc85 f i libcpmt:locale.obj
 0001:0001bc85       ??1?$_Tidy_guard@V?$numpunct@G@std@@@std@@QAE@XZ 1001cc85 f i libcpmt:wlocale.obj
 0001:0001bc90       ??4?$basic_string@DU?$char_traits@D@std@@V?$allocator@D@2@@std@@QAEAAV01@$$QAV01@@Z 1001cc90 f i libcpmt:locale.obj
 0001:0001bcf4       ??4?$ostreambuf_iterator@DU?$char_traits@D@std@@@std@@QAEAAV01@D@Z 1001ccf4 f i libcpmt:locale.obj
 0001:0001bd18       ??R<lambda_1>@?1??insert@?$basic_string@DU?$char_traits@D@std@@V?$allocator@D@2@@std@@QAEAAV23@IID@Z@QBE@QADQBDIIID@Z 1001cd18 f i libcpmt:locale.obj
 0001:0001bd61       ??_E?$codecvt@DDU_Mbstatet@@@std@@MAEPAXI@Z 1001cd61 f i libcpmt:locale.obj
 0001:0001bd61       ??_E?$messages@D@std@@MAEPAXI@Z 1001cd61 f i libcpmt:xlocale.obj
 0001:0001bd61       ??_E?$messages@G@std@@MAEPAXI@Z 1001cd61 f i libcpmt:wlocale.obj
 0001:0001bd61       ??_E?$messages@_W@std@@MAEPAXI@Z 1001cd61 f i libcpmt:wlocale.obj
 0001:0001bd61       ??_E?$money_get@DV?$istreambuf_iterator@DU?$char_traits@D@std@@@std@@@std@@MAEPAXI@Z 1001cd61 f i libcpmt:xlocale.obj
 0001:0001bd61       ??_E?$money_get@GV?$istreambuf_iterator@GU?$char_traits@G@std@@@std@@@std@@MAEPAXI@Z 1001cd61 f i libcpmt:wlocale.obj
 0001:0001bd61       ??_E?$money_get@_WV?$istreambuf_iterator@_WU?$char_traits@_W@std@@@std@@@std@@MAEPAXI@Z 1001cd61 f i libcpmt:wlocale.obj
 0001:0001bd61       ??_E?$money_put@DV?$ostreambuf_iterator@DU?$char_traits@D@std@@@std@@@std@@MAEPAXI@Z 1001cd61 f i libcpmt:xlocale.obj
 0001:0001bd61       ??_E?$money_put@GV?$ostreambuf_iterator@GU?$char_traits@G@std@@@std@@@std@@MAEPAXI@Z 1001cd61 f i libcpmt:wlocale.obj
 0001:0001bd61       ??_E?$money_put@_WV?$ostreambuf_iterator@_WU?$char_traits@_W@std@@@std@@@std@@MAEPAXI@Z 1001cd61 f i libcpmt:wlocale.obj
 0001:0001bd61       ??_E?$num_get@DV?$istreambuf_iterator@DU?$char_traits@D@std@@@std@@@std@@MAEPAXI@Z 1001cd61 f i libcpmt:locale.obj
 0001:0001bd61       ??_E?$num_get@GV?$istreambuf_iterator@GU?$char_traits@G@std@@@std@@@std@@MAEPAXI@Z 1001cd61 f i libcpmt:wlocale.obj
 0001:0001bd61       ??_E?$num_get@_WV?$istreambuf_iterator@_WU?$char_traits@_W@std@@@std@@@std@@MAEPAXI@Z 1001cd61 f i libcpmt:wlocale.obj
 0001:0001bd61       ??_E?$num_put@DV?$ostreambuf_iterator@DU?$char_traits@D@std@@@std@@@std@@MAEPAXI@Z 1001cd61 f i libcpmt:locale.obj
 0001:0001bd61       ??_E?$num_put@GV?$ostreambuf_iterator@GU?$char_traits@G@std@@@std@@@std@@MAEPAXI@Z 1001cd61 f i libcpmt:wlocale.obj
 0001:0001bd61       ??_G?$codecvt@DDU_Mbstatet@@@std@@MAEPAXI@Z 1001cd61 f i libcpmt:locale.obj
 0001:0001bd61       ??_G?$messages@D@std@@MAEPAXI@Z 1001cd61 f i libcpmt:xlocale.obj
 0001:0001bd61       ??_G?$messages@G@std@@MAEPAXI@Z 1001cd61 f i libcpmt:wlocale.obj
 0001:0001bd61       ??_G?$messages@_W@std@@MAEPAXI@Z 1001cd61 f i libcpmt:wlocale.obj
 0001:0001bd61       ??_G?$money_get@DV?$istreambuf_iterator@DU?$char_traits@D@std@@@std@@@std@@MAEPAXI@Z 1001cd61 f i libcpmt:xlocale.obj
 0001:0001bd61       ??_G?$money_get@GV?$istreambuf_iterator@GU?$char_traits@G@std@@@std@@@std@@MAEPAXI@Z 1001cd61 f i libcpmt:wlocale.obj
 0001:0001bd61       ??_G?$money_get@_WV?$istreambuf_iterator@_WU?$char_traits@_W@std@@@std@@@std@@MAEPAXI@Z 1001cd61 f i libcpmt:wlocale.obj
 0001:0001bd61       ??_G?$money_put@DV?$ostreambuf_iterator@DU?$char_traits@D@std@@@std@@@std@@MAEPAXI@Z 1001cd61 f i libcpmt:xlocale.obj
 0001:0001bd61       ??_G?$money_put@GV?$ostreambuf_iterator@GU?$char_traits@G@std@@@std@@@std@@MAEPAXI@Z 1001cd61 f i libcpmt:wlocale.obj
 0001:0001bd61       ??_G?$money_put@_WV?$ostreambuf_iterator@_WU?$char_traits@_W@std@@@std@@@std@@MAEPAXI@Z 1001cd61 f i libcpmt:wlocale.obj
 0001:0001bd61       ??_G?$num_get@DV?$istreambuf_iterator@DU?$char_traits@D@std@@@std@@@std@@MAEPAXI@Z 1001cd61 f i libcpmt:locale.obj
 0001:0001bd61       ??_G?$num_get@GV?$istreambuf_iterator@GU?$char_traits@G@std@@@std@@@std@@MAEPAXI@Z 1001cd61 f i libcpmt:wlocale.obj
 0001:0001bd61       ??_G?$num_get@_WV?$istreambuf_iterator@_WU?$char_traits@_W@std@@@std@@@std@@MAEPAXI@Z 1001cd61 f i libcpmt:wlocale.obj
 0001:0001bd61       ??_G?$num_put@DV?$ostreambuf_iterator@DU?$char_traits@D@std@@@std@@@std@@MAEPAXI@Z 1001cd61 f i libcpmt:locale.obj
 0001:0001bd61       ??_G?$num_put@GV?$ostreambuf_iterator@GU?$char_traits@G@std@@@std@@@std@@MAEPAXI@Z 1001cd61 f i libcpmt:wlocale.obj
 0001:0001bd84       ??_E?$ctype@D@std@@MAEPAXI@Z 1001cd84 f i libcpmt:locale.obj
 0001:0001bd84       ??_G?$ctype@D@std@@MAEPAXI@Z 1001cd84 f i libcpmt:locale.obj
 0001:0001bdb2       ??_E?$numpunct@D@std@@MAEPAXI@Z 1001cdb2 f i libcpmt:locale.obj
 0001:0001bdb2       ??_G?$numpunct@D@std@@MAEPAXI@Z 1001cdb2 f i libcpmt:locale.obj
 0001:0001bde0       ?_Adjust_manually_vector_aligned@std@@YAXAAPAXAAI@Z 1001cde0 f i libcpmt:locale.obj
 0001:0001be04       ?_Calculate_growth@?$basic_string@DU?$char_traits@D@std@@V?$allocator@D@2@@std@@CAIIII@Z 1001ce04 f i libcpmt:locale.obj
 0001:0001be34       ?_Ffmt@?$num_put@DV?$ostreambuf_iterator@DU?$char_traits@D@std@@@std@@@std@@ABAPADPADDH@Z 1001ce34 f i libcpmt:locale.obj
 0001:0001be34       ?_Ffmt@?$num_put@GV?$ostreambuf_iterator@GU?$char_traits@G@std@@@std@@@std@@ABAPADPADDH@Z 1001ce34 f i libcpmt:wlocale.obj
 0001:0001bec9       ?_Fput@?$num_put@DV?$ostreambuf_iterator@DU?$char_traits@D@std@@@std@@@std@@ABA?AV?$ostreambuf_iterator@DU?$char_traits@D@std@@@2@V32@AAVios_base@2@DPBDI@Z 1001cec9 f i libcpmt:locale.obj
 0001:0001c1c6       ?_Getcat@?$codecvt@DDU_Mbstatet@@@std@@SAIPAPBVfacet@locale@2@PBV42@@Z 1001d1c6 f i libcpmt:locale.obj
 0001:0001c22e       ?_Getcat@?$ctype@D@std@@SAIPAPBVfacet@locale@2@PBV42@@Z 1001d22e f i libcpmt:locale.obj
 0001:0001c294       ?_Getcat@?$num_get@DV?$istreambuf_iterator@DU?$char_traits@D@std@@@std@@@std@@SAIPAPBVfacet@locale@2@PBV42@@Z 1001d294 f i libcpmt:locale.obj
 0001:0001c2fc       ?_Getcat@?$num_put@DV?$ostreambuf_iterator@DU?$char_traits@D@std@@@std@@@std@@SAIPAPBVfacet@locale@2@PBV42@@Z 1001d2fc f i libcpmt:locale.obj
 0001:0001c364       ?_Getcat@?$numpunct@D@std@@SAIPAPBVfacet@locale@2@PBV42@@Z 1001d364 f i libcpmt:locale.obj
 0001:0001c3df       ?_Getffld@?$num_get@DV?$istreambuf_iterator@DU?$char_traits@D@std@@@std@@@std@@ABAHPADAAV?$istreambuf_iterator@DU?$char_traits@D@std@@@2@1AAVios_base@2@PAH@Z 1001d3df f i libcpmt:locale.obj
 0001:0001cafe       ?_Getffldx@?$num_get@DV?$istreambuf_iterator@DU?$char_traits@D@std@@@std@@@std@@ABAHPADAAV?$istreambuf_iterator@DU?$char_traits@D@std@@@2@1AAVios_base@2@PAH@Z 1001dafe f i libcpmt:locale.obj
 0001:0001d238       ?_Getifld@?$num_get@DV?$istreambuf_iterator@DU?$char_traits@D@std@@@std@@@std@@ABAHPADAAV?$istreambuf_iterator@DU?$char_traits@D@std@@@2@1HABVlocale@2@@Z 1001e238 f i libcpmt:locale.obj
 0001:0001d5c5       ?_Ifmt@?$num_put@DV?$ostreambuf_iterator@DU?$char_traits@D@std@@@std@@@std@@ABAPADPADPBDH@Z 1001e5c5 f i libcpmt:locale.obj
 0001:0001d5c5       ?_Ifmt@?$num_put@GV?$ostreambuf_iterator@GU?$char_traits@G@std@@@std@@@std@@ABAPADPADPBDH@Z 1001e5c5 f i libcpmt:wlocale.obj
 0001:0001d63a       ?_Inc@?$istreambuf_iterator@DU?$char_traits@D@std@@@std@@AAEXXZ 1001e63a f i libcpmt:locale.obj
 0001:0001d65b       ?_Init@?$numpunct@D@std@@IAEXABV_Locinfo@2@_N@Z 1001e65b f i libcpmt:locale.obj
 0001:0001d6ff       ?_Iput@?$num_put@DV?$ostreambuf_iterator@DU?$char_traits@D@std@@@std@@@std@@ABA?AV?$ostreambuf_iterator@DU?$char_traits@D@std@@@2@V32@AAVios_base@2@DPADI@Z 1001e6ff f i libcpmt:locale.obj
 0001:0001d99c       ?_Locimp_Addfac@_Locimp@locale@std@@CAXPAV123@PAVfacet@23@I@Z 1001e99c f   libcpmt:locale.obj
 0001:0001da65       ?_Locimp_ctor@_Locimp@locale@std@@CAXPAV123@ABV123@@Z 1001ea65 f   libcpmt:locale.obj
 0001:0001db1c       ?_Makeloc@_Locimp@locale@std@@CAPAV123@ABV_Locinfo@3@HPAV123@PBV23@@Z 1001eb1c f   libcpmt:locale.obj
 0001:0001dd18       ?_Peek@?$istreambuf_iterator@DU?$char_traits@D@std@@@std@@ABEDXZ 1001ed18 f i libcpmt:locale.obj
 0001:0001dd3c       ?_Put@?$num_put@DV?$ostreambuf_iterator@DU?$char_traits@D@std@@@std@@@std@@ABA?AV?$ostreambuf_iterator@DU?$char_traits@D@std@@@2@V32@PBDI@Z 1001ed3c f i libcpmt:locale.obj
 0001:0001dd6f       ?_Rep@?$num_put@DV?$ostreambuf_iterator@DU?$char_traits@D@std@@@std@@@std@@ABA?AV?$ostreambuf_iterator@DU?$char_traits@D@std@@@2@V32@DI@Z 1001ed6f f i libcpmt:locale.obj
 0001:0001dd9b       ?_Stodx_v2@std@@YANPBDPAPADHPAH@Z 1001ed9b f i libcpmt:locale.obj
 0001:0001ddec       ?_Stofx_v2@std@@YAMPBDPAPADHPAH@Z 1001edec f i libcpmt:locale.obj
 0001:0001de45       ?_Throw_bad_array_new_length@std@@YAXXZ 1001ee45 f i libcpmt:locale.obj
 0001:0001de45       ?__scrt_throw_std_bad_array_new_length@@YAXXZ 1001ee45 f i LIBCMT:throw_bad_alloc.obj
 0001:0001de62       ?_Throw_bad_cast@std@@YAXXZ 1001ee62 f i libcpmt:locale.obj
 0001:0001de7f       ?_Tidy@?$ctype@D@std@@IAEXXZ 1001ee7f f i libcpmt:locale.obj
 0001:0001dea9       ?_Tidy@?$numpunct@D@std@@AAEXXZ 1001eea9 f i libcpmt:locale.obj
 0001:0001dea9       ?_Tidy@?$numpunct@G@std@@AAEXXZ 1001eea9 f i libcpmt:wlocale.obj
 0001:0001dec9       ?assign@?$basic_string@DU?$char_traits@D@std@@V?$allocator@D@2@@std@@QAEAAV12@ID@Z 1001eec9 f i libcpmt:locale.obj
 0001:0001df11       ?date_order@?$time_get@DV?$istreambuf_iterator@DU?$char_traits@D@std@@@std@@@std@@QBE?AW4dateorder@time_base@2@XZ 1001ef11 f i libcpmt:xlocale.obj
 0001:0001df11       ?date_order@?$time_get@GV?$istreambuf_iterator@GU?$char_traits@G@std@@@std@@@std@@QBE?AW4dateorder@time_base@2@XZ 1001ef11 f i libcpmt:wlocale.obj
 0001:0001df11       ?date_order@?$time_get@_WV?$istreambuf_iterator@_WU?$char_traits@_W@std@@@std@@@std@@QBE?AW4dateorder@time_base@2@XZ 1001ef11 f i libcpmt:wlocale.obj
 0001:0001df11       ?decimal_point@?$_Mpunct@D@std@@QBEDXZ 1001ef11 f i libcpmt:xlocale.obj
 0001:0001df11       ?decimal_point@?$_Mpunct@G@std@@QBEGXZ 1001ef11 f i libcpmt:wlocale.obj
 0001:0001df11       ?decimal_point@?$_Mpunct@_W@std@@QBE_WXZ 1001ef11 f i libcpmt:wlocale.obj
 0001:0001df11       ?decimal_point@?$numpunct@D@std@@QBEDXZ 1001ef11 f i libcpmt:locale.obj
 0001:0001df11       ?decimal_point@?$numpunct@G@std@@QBEGXZ 1001ef11 f i libcpmt:wlocale.obj
 0001:0001df29       ?do_always_noconv@?$codecvt@DDU_Mbstatet@@@std@@MBE_NXZ 1001ef29 f i libcpmt:locale.obj
 0001:0001df29       ___acrt_uninitialize_command_line 1001ef29 f i libucrt:argv_data.obj
 0001:0001df2c       ?do_decimal_point@?$_Mpunct@D@std@@MBEDXZ 1001ef2c f i libcpmt:xlocale.obj
 0001:0001df2c       ?do_decimal_point@?$numpunct@D@std@@MBEDXZ 1001ef2c f i libcpmt:locale.obj
 0001:0001df30       ?do_curr_symbol@?$_Mpunct@D@std@@MBE?AV?$basic_string@DU?$char_traits@D@std@@V?$allocator@D@2@@2@XZ 1001ef30 f i libcpmt:xlocale.obj
 0001:0001df30       ?do_falsename@?$numpunct@D@std@@MBE?AV?$basic_string@DU?$char_traits@D@std@@V?$allocator@D@2@@2@XZ 1001ef30 f i libcpmt:locale.obj
 0001:0001df46       ?do_get@?$num_get@DV?$istreambuf_iterator@DU?$char_traits@D@std@@@std@@@std@@MBE?AV?$istreambuf_iterator@DU?$char_traits@D@std@@@2@V32@0AAVios_base@2@AAHAAG@Z 1001ef46 f i libcpmt:locale.obj
 0001:0001e034       ?do_get@?$num_get@DV?$istreambuf_iterator@DU?$char_traits@D@std@@@std@@@std@@MBE?AV?$istreambuf_iterator@DU?$char_traits@D@std@@@2@V32@0AAVios_base@2@AAHAAI@Z 1001f034 f i libcpmt:locale.obj
 0001:0001e074       ?do_get@?$num_get@DV?$istreambuf_iterator@DU?$char_traits@D@std@@@std@@@std@@MBE?AV?$istreambuf_iterator@DU?$char_traits@D@std@@@2@V32@0AAVios_base@2@AAHAAJ@Z 1001f074 f i libcpmt:locale.obj
 0001:0001e138       ?do_get@?$num_get@DV?$istreambuf_iterator@DU?$char_traits@D@std@@@std@@@std@@MBE?AV?$istreambuf_iterator@DU?$char_traits@D@std@@@2@V32@0AAVios_base@2@AAHAAK@Z 1001f138 f i libcpmt:locale.obj
 0001:0001e1fc       ?do_get@?$num_get@DV?$istreambuf_iterator@DU?$char_traits@D@std@@@std@@@std@@MBE?AV?$istreambuf_iterator@DU?$char_traits@D@std@@@2@V32@0AAVios_base@2@AAHAAM@Z 1001f1fc f i libcpmt:locale.obj
 0001:0001e2f7       ?do_get@?$num_get@DV?$istreambuf_iterator@DU?$char_traits@D@std@@@std@@@std@@MBE?AV?$istreambuf_iterator@DU?$char_traits@D@std@@@2@V32@0AAVios_base@2@AAHAAN@Z 1001f2f7 f i libcpmt:locale.obj
 0001:0001e3e8       ?do_get@?$num_get@DV?$istreambuf_iterator@DU?$char_traits@D@std@@@std@@@std@@MBE?AV?$istreambuf_iterator@DU?$char_traits@D@std@@@2@V32@0AAVios_base@2@AAHAAO@Z 1001f3e8 f i libcpmt:locale.obj
 0001:0001e426       ?do_get@?$num_get@DV?$istreambuf_iterator@DU?$char_traits@D@std@@@std@@@std@@MBE?AV?$istreambuf_iterator@DU?$char_traits@D@std@@@2@V32@0AAVios_base@2@AAHAAPAX@Z 1001f426 f i libcpmt:locale.obj
 0001:0001e4e2       ?do_get@?$num_get@DV?$istreambuf_iterator@DU?$char_traits@D@std@@@std@@@std@@MBE?AV?$istreambuf_iterator@DU?$char_traits@D@std@@@2@V32@0AAVios_base@2@AAHAA_J@Z 1001f4e2 f i libcpmt:locale.obj
 0001:0001e5ad       ?do_get@?$num_get@DV?$istreambuf_iterator@DU?$char_traits@D@std@@@std@@@std@@MBE?AV?$istreambuf_iterator@DU?$char_traits@D@std@@@2@V32@0AAVios_base@2@AAHAA_K@Z 1001f5ad f i libcpmt:locale.obj
 0001:0001e678       ?do_get@?$num_get@DV?$istreambuf_iterator@DU?$char_traits@D@std@@@std@@@std@@MBE?AV?$istreambuf_iterator@DU?$char_traits@D@std@@@2@V32@0AAVios_base@2@AAHAA_N@Z 1001f678 f i libcpmt:locale.obj
 0001:0001e8b4       ?do_grouping@?$_Mpunct@D@std@@MBE?AV?$basic_string@DU?$char_traits@D@std@@V?$allocator@D@2@@2@XZ 1001f8b4 f i libcpmt:xlocale.obj
 0001:0001e8b4       ?do_grouping@?$_Mpunct@G@std@@MBE?AV?$basic_string@DU?$char_traits@D@std@@V?$allocator@D@2@@2@XZ 1001f8b4 f i libcpmt:wlocale.obj
 0001:0001e8b4       ?do_grouping@?$_Mpunct@_W@std@@MBE?AV?$basic_string@DU?$char_traits@D@std@@V?$allocator@D@2@@2@XZ 1001f8b4 f i libcpmt:wlocale.obj
 0001:0001e8b4       ?do_grouping@?$numpunct@D@std@@MBE?AV?$basic_string@DU?$char_traits@D@std@@V?$allocator@D@2@@2@XZ 1001f8b4 f i libcpmt:locale.obj
 0001:0001e8b4       ?do_grouping@?$numpunct@G@std@@MBE?AV?$basic_string@DU?$char_traits@D@std@@V?$allocator@D@2@@2@XZ 1001f8b4 f i libcpmt:wlocale.obj
 0001:0001e8ca       ?do_in@?$codecvt@DDU_Mbstatet@@@std@@MBEHAAU_Mbstatet@@PBD1AAPBDPAD3AAPAD@Z 1001f8ca f i libcpmt:locale.obj
 0001:0001e8ca       ?do_out@?$codecvt@DDU_Mbstatet@@@std@@MBEHAAU_Mbstatet@@PBD1AAPBDPAD3AAPAD@Z 1001f8ca f i libcpmt:locale.obj
 0001:0001e8e4       ?do_length@?$codecvt@DDU_Mbstatet@@@std@@MBEHAAU_Mbstatet@@PBD1I@Z 1001f8e4 f i libcpmt:locale.obj
 0001:0001e8f9       ?do_narrow@?$ctype@D@std@@MBEDDD@Z 1001f8f9 f i libcpmt:locale.obj
 0001:0001e903       ?do_narrow@?$ctype@D@std@@MBEPBDPBD0DPAD@Z 1001f903 f i libcpmt:locale.obj
 0001:0001e922       ?do_put@?$num_put@DV?$ostreambuf_iterator@DU?$char_traits@D@std@@@std@@@std@@MBE?AV?$ostreambuf_iterator@DU?$char_traits@D@std@@@2@V32@AAVios_base@2@DJ@Z 1001f922 f i libcpmt:locale.obj
 0001:0001e98d       ?do_put@?$num_put@DV?$ostreambuf_iterator@DU?$char_traits@D@std@@@std@@@std@@MBE?AV?$ostreambuf_iterator@DU?$char_traits@D@std@@@2@V32@AAVios_base@2@DK@Z 1001f98d f i libcpmt:locale.obj
 0001:0001e9f8       ?do_put@?$num_put@DV?$ostreambuf_iterator@DU?$char_traits@D@std@@@std@@@std@@MBE?AV?$ostreambuf_iterator@DU?$char_traits@D@std@@@2@V32@AAVios_base@2@DN@Z 1001f9f8 f i libcpmt:locale.obj
 0001:0001eb4e       ?do_put@?$num_put@DV?$ostreambuf_iterator@DU?$char_traits@D@std@@@std@@@std@@MBE?AV?$ostreambuf_iterator@DU?$char_traits@D@std@@@2@V32@AAVios_base@2@DO@Z 1001fb4e f i libcpmt:locale.obj
 0001:0001eca4       ?do_put@?$num_put@DV?$ostreambuf_iterator@DU?$char_traits@D@std@@@std@@@std@@MBE?AV?$ostreambuf_iterator@DU?$char_traits@D@std@@@2@V32@AAVios_base@2@DPBX@Z 1001fca4 f i libcpmt:locale.obj
 0001:0001ecff       ?do_put@?$num_put@DV?$ostreambuf_iterator@DU?$char_traits@D@std@@@std@@@std@@MBE?AV?$ostreambuf_iterator@DU?$char_traits@D@std@@@2@V32@AAVios_base@2@D_J@Z 1001fcff f i libcpmt:locale.obj
 0001:0001ed6d       ?do_put@?$num_put@DV?$ostreambuf_iterator@DU?$char_traits@D@std@@@std@@@std@@MBE?AV?$ostreambuf_iterator@DU?$char_traits@D@std@@@2@V32@AAVios_base@2@D_K@Z 1001fd6d f i libcpmt:locale.obj
 0001:0001eddb       ?do_put@?$num_put@DV?$ostreambuf_iterator@DU?$char_traits@D@std@@@std@@@std@@MBE?AV?$ostreambuf_iterator@DU?$char_traits@D@std@@@2@V32@AAVios_base@2@D_N@Z 1001fddb f i libcpmt:locale.obj
 0001:0001ef8d       ?do_thousands_sep@?$_Mpunct@D@std@@MBEDXZ 1001ff8d f i libcpmt:xlocale.obj
 0001:0001ef8d       ?do_thousands_sep@?$numpunct@D@std@@MBEDXZ 1001ff8d f i libcpmt:locale.obj
 0001:0001ef91       ?do_tolower@?$ctype@D@std@@MBEDD@Z 1001ff91 f i libcpmt:locale.obj
 0001:0001efa8       ?do_tolower@?$ctype@D@std@@MBEPBDPADPBD@Z 1001ffa8 f i libcpmt:locale.obj
 0001:0001efd4       ?do_toupper@?$ctype@D@std@@MBEDD@Z 1001ffd4 f i libcpmt:locale.obj
 0001:0001efeb       ?do_toupper@?$ctype@D@std@@MBEPBDPADPBD@Z 1001ffeb f i libcpmt:locale.obj
 0001:0001f017       ?do_positive_sign@?$_Mpunct@D@std@@MBE?AV?$basic_string@DU?$char_traits@D@std@@V?$allocator@D@2@@2@XZ 10020017 f i libcpmt:xlocale.obj
 0001:0001f017       ?do_truename@?$numpunct@D@std@@MBE?AV?$basic_string@DU?$char_traits@D@std@@V?$allocator@D@2@@2@XZ 10020017 f i libcpmt:locale.obj
 0001:0001f02d       ?do_unshift@?$codecvt@DDU_Mbstatet@@@std@@MBEHAAU_Mbstatet@@PAD1AAPAD@Z 1002002d f i libcpmt:locale.obj
 0001:0001f03f       ?do_widen@?$ctype@D@std@@MBEDD@Z 1002003f f i libcpmt:locale.obj
 0001:0001f049       ?do_widen@?$ctype@D@std@@MBEPBDPBD0PAD@Z 10020049 f i libcpmt:locale.obj
 0001:0001f068       ?equal@?$istreambuf_iterator@DU?$char_traits@D@std@@@std@@QBE_NABV12@@Z 10020068 f i libcpmt:locale.obj
 0001:0001f0a2       ?global@locale@std@@SA?AV12@ABV12@@Z 100200a2 f   libcpmt:locale.obj
 0001:0001f18a       ?insert@?$basic_string@DU?$char_traits@D@std@@V?$allocator@D@2@@std@@QAEAAV12@IID@Z 1002018a f i libcpmt:locale.obj
 0001:0001f1fb       ?sbumpc@?$basic_streambuf@DU?$char_traits@D@std@@@std@@QAEHXZ 100201fb f i libcpmt:locale.obj
 0001:0001f234       ?sgetc@?$basic_streambuf@DU?$char_traits@D@std@@@std@@QAEHXZ 10020234 f i libcpmt:locale.obj
 0001:0001f262       ?sputc@?$basic_streambuf@DU?$char_traits@D@std@@@std@@QAEHD@Z 10020262 f i libcpmt:locale.obj
 0001:0001f2b3       ?thousands_sep@?$_Mpunct@D@std@@QBEDXZ 100202b3 f i libcpmt:xlocale.obj
 0001:0001f2b3       ?thousands_sep@?$_Mpunct@G@std@@QBEGXZ 100202b3 f i libcpmt:wlocale.obj
 0001:0001f2b3       ?thousands_sep@?$_Mpunct@_W@std@@QBE_WXZ 100202b3 f i libcpmt:wlocale.obj
 0001:0001f2b3       ?thousands_sep@?$numpunct@D@std@@QBEDXZ 100202b3 f i libcpmt:locale.obj
 0001:0001f2b3       ?thousands_sep@?$numpunct@G@std@@QBEGXZ 100202b3 f i libcpmt:wlocale.obj
 0001:0001f2cb       ?widen@?$ctype@D@std@@QBEPBDPBD0PAD@Z 100202cb f i libcpmt:locale.obj
 0001:0001f2f2       _ldexpf                    100202f2 f i libcpmt:locale.obj
 0001:0001f311       ??0_Locimp@locale@std@@AAE@ABV012@@Z 10020311 f i libcpmt:locale0.obj
 0001:0001f37b       ??0_Locimp@locale@std@@AAE@_N@Z 1002037b f i libcpmt:locale0.obj
 0001:0001f3bc       ??1_Fac_node@std@@QAE@XZ   100203bc f i libcpmt:locale0.obj
 0001:0001f3ed       ??1_Fac_tidy_reg_t@std@@QAE@XZ 100203ed f i libcpmt:locale0.obj
 0001:0001f414       ??1_Locimp@locale@std@@MAE@XZ 10020414 f i libcpmt:locale0.obj
 0001:0001f43f       ??_E_Locimp@locale@std@@MAEPAXI@Z 1002043f f i libcpmt:locale0.obj
 0001:0001f43f       ??_G_Locimp@locale@std@@MAEPAXI@Z 1002043f f i libcpmt:locale0.obj
 0001:0001f461       ?_Facet_Register@std@@YAXPAV_Facet_base@1@@Z 10020461 f   libcpmt:locale0.obj
 0001:0001f48d       ?_Getgloballocale@locale@std@@CAPAV_Locimp@12@XZ 1002048d f   libcpmt:locale0.obj
 0001:0001f493       ?_Init@locale@std@@CAPAV_Locimp@12@_N@Z 10020493 f   libcpmt:locale0.obj
 0001:0001f523       ?_Locimp_dtor@_Locimp@locale@std@@CAXPAV123@@Z 10020523 f   libcpmt:locale0.obj
 0001:0001f593       ?_Locinfo_ctor@_Locinfo@std@@SAXPAV12@PBD@Z 10020593 f   libcpmt:locale0.obj
 0001:0001f5de       ?_Locinfo_dtor@_Locinfo@std@@SAXPAV12@@Z 100205de f   libcpmt:locale0.obj
 0001:0001f5f8       ?_New_Locimp@_Locimp@locale@std@@CAPAV123@ABV123@@Z 100205f8 f   libcpmt:locale0.obj
 0001:0001f628       ?_New_Locimp@_Locimp@locale@std@@CAPAV123@_N@Z 10020628 f   libcpmt:locale0.obj
 0001:0001f64b       ?_Setgloballocale@locale@std@@CAXPAX@Z 1002064b f   libcpmt:locale0.obj
 0001:0001f673       ?classic@locale@std@@SAABV12@XZ 10020673 f   libcpmt:locale0.obj
 0001:0001f681       __Deletegloballocale       10020681 f   libcpmt:locale0.obj
 0001:0001f6e6       ?uncaught_exception@std@@YA_NXZ 100206e6 f   libcpmt:uncaught_exception.obj
 0001:0001f6eb       ?_Ios_base_dtor@ios_base@std@@CAXPAV12@@Z 100206eb f   libcpmt:ios.obj
 0001:0001f72b       ?_Tidy@ios_base@std@@AAEXXZ 1002072b f i libcpmt:ios.obj
 0001:0001f7a6       ??0system_error@std@@QAE@HABVerror_category@1@PBD@Z 100207a6 f i libcpmt:thread0.obj
 0001:0001f7f3       ??_E_Generic_error_category@std@@UAEPAXI@Z 100207f3 f i libcpmt:thread0.obj
 0001:0001f7f3       ??_G_Generic_error_category@std@@UAEPAXI@Z 100207f3 f i libcpmt:thread0.obj
 0001:0001f810       ?_Throw_C_error@std@@YAXH@Z 10020810 f   libcpmt:thread0.obj
 0001:0001f83d       ?_Throw_Cpp_error@std@@YAXH@Z 1002083d f   libcpmt:thread0.obj
 0001:0001f872       ?generic_category@std@@YAABVerror_category@1@XZ 10020872 f i libcpmt:thread0.obj
 0001:0001f878       ?message@_Generic_error_category@std@@UBE?AV?$basic_string@DU?$char_traits@D@std@@V?$allocator@D@2@@2@H@Z 10020878 f i libcpmt:thread0.obj
 0001:0001f8a2       ?name@_Generic_error_category@std@@UBEPBDXZ 100208a2 f i libcpmt:thread0.obj
 0001:0001f8a8       ??$_Xfiopen@_W@std@@YAPAU_iobuf@@PB_WHH@Z 100208a8 f i libcpmt:fiopen.obj
 0001:0001f943       ?_Fiopen@std@@YAPAU_iobuf@@PB_WHH@Z 10020943 f   libcpmt:fiopen.obj
 0001:0001f94c       ?_Xfsopen@std@@YAPAU_iobuf@@PB_WHH@Z 1002094c f   libcpmt:fiopen.obj
 0001:0001f969       ?_Syserror_map@std@@YAPBDH@Z 10020969 f   libcpmt:syserror.obj
 0001:0001f98e       __Getwctype                1002098e f   libcpmt:xgetwctype.obj
 0001:0001f9ae       __Getwctypes               100209ae f   libcpmt:xgetwctype.obj
 0001:0001f9cd       ??0stl_critical_section_vista@details@Concurrency@@QAE@XZ 100209cd f i libcpmt:mutex.obj
 0001:0001f9eb       ??0stl_critical_section_win7@details@Concurrency@@QAE@XZ 100209eb f i libcpmt:mutex.obj
 0001:0001fa02       ?create_stl_critical_section@details@Concurrency@@YAXPAVstl_critical_section_interface@12@@Z 10020a02 f i libcpmt:mutex.obj
 0001:0001fa39       ?destroy@stl_critical_section_vista@details@Concurrency@@UAEXXZ 10020a39 f i libcpmt:mutex.obj
 0001:0001fa44       ?lock@stl_critical_section_vista@details@Concurrency@@UAEXXZ 10020a44 f i libcpmt:mutex.obj
 0001:0001fa4f       ?lock@stl_critical_section_win7@details@Concurrency@@UAEXXZ 10020a4f f i libcpmt:mutex.obj
 0001:0001fc15       ?try_lock@stl_critical_section_vista@details@Concurrency@@UAE_NXZ 10020c15 f i libcpmt:mutex.obj
 0001:0001fc25       ?try_lock@stl_critical_section_win7@details@Concurrency@@UAE_NXZ 10020c25 f i libcpmt:mutex.obj
 0001:0001fc35       ?try_lock_for@stl_critical_section_vista@details@Concurrency@@UAE_NI@Z 10020c35 f i libcpmt:mutex.obj
 0001:0001fc47       ?try_lock_for@stl_critical_section_win7@details@Concurrency@@UAE_NI@Z 10020c47 f i libcpmt:mutex.obj
 0001:0001fc59       ?unlock@stl_critical_section_vista@details@Concurrency@@UAEXXZ 10020c59 f i libcpmt:mutex.obj
 0001:0001fc64       ?unlock@stl_critical_section_win7@details@Concurrency@@UAEXXZ 10020c64 f i libcpmt:mutex.obj
 0001:0001fc6f       __Mtx_destroy_in_situ      10020c6f f   libcpmt:mutex.obj
 0001:0001fc8e       __Mtx_init_in_situ         10020c8e f   libcpmt:mutex.obj
 0001:0001fcaf       __Mtx_lock                 10020caf f   libcpmt:mutex.obj
 0001:0001fcc0       __Mtx_unlock               10020cc0 f   libcpmt:mutex.obj
 0001:0001fceb       __Towlower                 10020ceb f   libcpmt:xtowlower.obj
 0001:0001fd4b       __Getctype                 10020d4b f   libcpmt:_tolower.obj
 0001:0001fdb6       __Tolower                  10020db6 f   libcpmt:_tolower.obj
 0001:0001fec2       __Getcvt                   10020ec2 f   libcpmt:xwctomb.obj
 0001:0001ff35       __Wcrtomb                  10020f35 f   libcpmt:xwctomb.obj
 0001:0001ff91       __Towupper                 10020f91 f   libcpmt:xtowupper.obj
 0001:0002009a       __Xtime_diff_to_millis2    1002109a f   libcpmt:xtime.obj
 0001:000200da       __Xtime_get_ticks          100210da f   libcpmt:xtime.obj
 0001:00020101       _xtime_get                 10021101 f   libcpmt:xtime.obj
 0001:00020156       __Mtxdst                   10021156 f   libcpmt:xmtx.obj
 0001:00020164       __Mtxinit                  10021164 f   libcpmt:xmtx.obj
 0001:00020179       __Mtxlock                  10021179 f   libcpmt:xmtx.obj
 0001:00020187       __Mtxunlock                10021187 f   libcpmt:xmtx.obj
 0001:00020195       __Toupper                  10021195 f   libcpmt:_toupper.obj
 0001:000202a1       ??$_Copy_unchecked@PA_WV?$ostreambuf_iterator@GU?$char_traits@G@std@@@std@@@std@@YA?AV?$ostreambuf_iterator@GU?$char_traits@G@std@@@0@PA_W0V10@@Z 100212a1 f i libcpmt:wlocale.obj
 0001:000202cf       ??$_Copy_unchecked@PA_WV?$ostreambuf_iterator@_WU?$char_traits@_W@std@@@std@@@std@@YA?AV?$ostreambuf_iterator@_WU?$char_traits@_W@std@@@0@PA_W0V10@@Z 100212cf f i libcpmt:wlocale.obj
 0001:000202fd       ??$_Find_elem@G$0M@@std@@YAIAAY0M@$$CBGG@Z 100212fd f i libcpmt:wlocale.obj
 0001:000202fd       ??$_Find_elem@_W$0M@@std@@YAIAAY0M@$$CB_W_W@Z 100212fd f i libcpmt:wlocale.obj
 0001:0002031c       ??$_Find_unchecked@PBGG@std@@YAPBGPBGQBGABG@Z 1002131c f i libcpmt:wlocale.obj
 0001:0002031c       ??$_Find_unchecked@PB_W_W@std@@YAPB_WPB_WQB_WAB_W@Z 1002131c f i libcpmt:wlocale.obj
 0001:0002033e       ??$_Getloctxt@V?$istreambuf_iterator@GU?$char_traits@G@std@@@std@@D@std@@YAHAAV?$istreambuf_iterator@GU?$char_traits@G@std@@@0@0IPBDW4_Case_sensitive@0@@Z 1002133e f i libcpmt:wlocale.obj
 0001:00020552       ??$_Getloctxt@V?$istreambuf_iterator@GU?$char_traits@G@std@@@std@@G@std@@YAHAAV?$istreambuf_iterator@GU?$char_traits@G@std@@@0@0IPBGW4_Case_sensitive@0@@Z 10021552 f i libcpmt:wlocale.obj
 0001:00020776       ??$_Getloctxt@V?$istreambuf_iterator@_WU?$char_traits@_W@std@@@std@@D@std@@YAHAAV?$istreambuf_iterator@_WU?$char_traits@_W@std@@@0@0IPBDW4_Case_sensitive@0@@Z 10021776 f i libcpmt:wlocale.obj
 0001:0002098a       ??$_Getloctxt@V?$istreambuf_iterator@_WU?$char_traits@_W@std@@@std@@_W@std@@YAHAAV?$istreambuf_iterator@_WU?$char_traits@_W@std@@@0@0IPB_WW4_Case_sensitive@0@@Z 1002198a f i libcpmt:wlocale.obj
 0001:00020bae       ??$_Getvals@G@?$_Mpunct@G@std@@IAEXGPBUlconv@@@Z 10021bae f i libcpmt:wlocale.obj
 0001:00020c40       ??$_Getvals@G@?$numpunct@G@std@@IAEXGPBUlconv@@U_Cvtvec@@@Z 10021c40 f i libcpmt:wlocale.obj
 0001:00020ca2       ??$_Getvals@G@?$time_get@GV?$istreambuf_iterator@GU?$char_traits@G@std@@@std@@@std@@IAEXGABV_Locinfo@1@@Z 10021ca2 f i libcpmt:wlocale.obj
 0001:00020d0d       ??$_Getvals@_W@?$time_get@_WV?$istreambuf_iterator@_WU?$char_traits@_W@std@@@std@@@std@@IAEX_WABV_Locinfo@1@@Z 10021d0d f i libcpmt:wlocale.obj
 0001:00020d66       ??$_LStrcoll@G@std@@YAHPBG000PBU_Collvec@@@Z 10021d66 f i libcpmt:wlocale.obj
 0001:00020db0       ??$_LStrxfrm@G@std@@YAIPAG0PBG1PBU_Collvec@@@Z 10021db0 f i libcpmt:wlocale.obj
 0001:00020ddf       ??$_Maklocchr@G@std@@YAGDPAGABU_Cvtvec@@@Z 10021ddf f i libcpmt:wlocale.obj
 0001:00020e10       ??$_Maklocstr@G@std@@YAPAGPBDPAGABU_Cvtvec@@@Z 10021e10 f i libcpmt:wlocale.obj
 0001:00020eb8       ??$_Reallocate_for@V<lambda_1>@?1??assign@?$basic_string@GU?$char_traits@G@std@@V?$allocator@G@2@@std@@QAEAAV34@IG@Z@G@?$basic_string@GU?$char_traits@G@std@@V?$allocator@G@2@@std@@AAEAAV01@IV<lambda_1>@?1??assign@01@QAEAAV01@IG@Z@G@Z 10021eb8 f i libcpmt:wlocale.obj
 0001:00020f35       ??$_Reallocate_for@V<lambda_1>@?1??assign@?$basic_string@GU?$char_traits@G@std@@V?$allocator@G@2@@std@@QAEAAV34@QBGI@Z@PBG@?$basic_string@GU?$char_traits@G@std@@V?$allocator@G@2@@std@@AAEAAV01@IV<lambda_1>@?1??assign@01@QAEAAV01@QBGI@Z@PBG@Z 10021f35 f i libcpmt:wlocale.obj
 0001:00020fb5       ??$_Reallocate_grow_by@V<lambda_1>@?1??append@?$basic_string@GU?$char_traits@G@std@@V?$allocator@G@2@@std@@QAEAAV34@IG@Z@IG@?$basic_string@GU?$char_traits@G@std@@V?$allocator@G@2@@std@@AAEAAV01@IV<lambda_1>@?1??append@01@QAEAAV01@IG@Z@IG@Z 10021fb5 f i libcpmt:wlocale.obj
 0001:0002104a       ??$_Reallocate_grow_by@V<lambda_1>@?1??append@?$basic_string@GU?$char_traits@G@std@@V?$allocator@G@2@@std@@QAEAAV34@QBGI@Z@PBGI@?$basic_string@GU?$char_traits@G@std@@V?$allocator@G@2@@std@@AAEAAV01@IV<lambda_1>@?1??append@01@QAEAAV01@QBGI@Z@PBGI@Z 1002204a f i libcpmt:wlocale.obj
 0001:000210df       ??$_Reallocate_grow_by@V<lambda_1>@?1??append@?$basic_string@_WU?$char_traits@_W@std@@V?$allocator@_W@2@@std@@QAEAAV34@I_W@Z@I_W@?$basic_string@_WU?$char_traits@_W@std@@V?$allocator@_W@2@@std@@AAEAAV01@IV<lambda_1>@?1??append@01@QAEAAV01@I_W@Z@I_W@Z 100220df f i libcpmt:wlocale.obj
 0001:00021174       ??$_Reallocate_grow_by@V<lambda_1>@?1??insert@?$basic_string@GU?$char_traits@G@std@@V?$allocator@G@2@@std@@QAEAAV34@IIG@Z@IIG@?$basic_string@GU?$char_traits@G@std@@V?$allocator@G@2@@std@@AAEAAV01@IV<lambda_1>@?1??insert@01@QAEAAV01@IIG@Z@IIG@Z 10022174 f i libcpmt:wlocale.obj
 0001:0002120c       ??$_Reallocate_grow_by@V<lambda_1>@?1??push_back@?$basic_string@GU?$char_traits@G@std@@V?$allocator@G@2@@std@@QAEXG@Z@G@?$basic_string@GU?$char_traits@G@std@@V?$allocator@G@2@@std@@AAEAAV01@IV<lambda_1>@?1??push_back@01@QAEXG@Z@G@Z 1002220c f i libcpmt:wlocale.obj
 0001:000212d1       ??$copy@PA_WV?$ostreambuf_iterator@GU?$char_traits@G@std@@@std@@@std@@YA?AV?$ostreambuf_iterator@GU?$char_traits@G@std@@@0@PA_W0V10@@Z 100222d1 f i libcpmt:wlocale.obj
 0001:000212fd       ??$copy@PA_WV?$ostreambuf_iterator@_WU?$char_traits@_W@std@@@std@@@std@@YA?AV?$ostreambuf_iterator@_WU?$char_traits@_W@std@@@0@PA_W0V10@@Z 100222fd f i libcpmt:wlocale.obj
 0001:00021329       ??$use_facet@V?$codecvt@GDU_Mbstatet@@@std@@@std@@YAABV?$codecvt@GDU_Mbstatet@@@0@ABVlocale@0@@Z 10022329 f i libcpmt:wlocale.obj
 0001:000213be       ??$use_facet@V?$collate@G@std@@@std@@YAABV?$collate@G@0@ABVlocale@0@@Z 100223be f i libcpmt:wlocale.obj
 0001:00021453       ??$use_facet@V?$collate@_W@std@@@std@@YAABV?$collate@_W@0@ABVlocale@0@@Z 10022453 f i libcpmt:wlocale.obj
 0001:000214e8       ??$use_facet@V?$ctype@G@std@@@std@@YAABV?$ctype@G@0@ABVlocale@0@@Z 100224e8 f i libcpmt:wlocale.obj
 0001:0002157d       ??$use_facet@V?$messages@G@std@@@std@@YAABV?$messages@G@0@ABVlocale@0@@Z 1002257d f i libcpmt:wlocale.obj
 0001:00021612       ??$use_facet@V?$messages@_W@std@@@std@@YAABV?$messages@_W@0@ABVlocale@0@@Z 10022612 f i libcpmt:wlocale.obj
 0001:000216a7       ??$use_facet@V?$money_get@GV?$istreambuf_iterator@GU?$char_traits@G@std@@@std@@@std@@@std@@YAABV?$money_get@GV?$istreambuf_iterator@GU?$char_traits@G@std@@@std@@@0@ABVlocale@0@@Z 100226a7 f i libcpmt:wlocale.obj
 0001:0002173c       ??$use_facet@V?$money_get@_WV?$istreambuf_iterator@_WU?$char_traits@_W@std@@@std@@@std@@@std@@YAABV?$money_get@_WV?$istreambuf_iterator@_WU?$char_traits@_W@std@@@std@@@0@ABVlocale@0@@Z 1002273c f i libcpmt:wlocale.obj
 0001:000217d1       ??$use_facet@V?$money_put@GV?$ostreambuf_iterator@GU?$char_traits@G@std@@@std@@@std@@@std@@YAABV?$money_put@GV?$ostreambuf_iterator@GU?$char_traits@G@std@@@std@@@0@ABVlocale@0@@Z 100227d1 f i libcpmt:wlocale.obj
 0001:00021866       ??$use_facet@V?$money_put@_WV?$ostreambuf_iterator@_WU?$char_traits@_W@std@@@std@@@std@@@std@@YAABV?$money_put@_WV?$ostreambuf_iterator@_WU?$char_traits@_W@std@@@std@@@0@ABVlocale@0@@Z 10022866 f i libcpmt:wlocale.obj
 0001:000218fb       ??$use_facet@V?$moneypunct@G$00@std@@@std@@YAABV?$moneypunct@G$00@0@ABVlocale@0@@Z 100228fb f i libcpmt:wlocale.obj
 0001:00021990       ??$use_facet@V?$moneypunct@G$0A@@std@@@std@@YAABV?$moneypunct@G$0A@@0@ABVlocale@0@@Z 10022990 f i libcpmt:wlocale.obj
 0001:00021a25       ??$use_facet@V?$moneypunct@_W$00@std@@@std@@YAABV?$moneypunct@_W$00@0@ABVlocale@0@@Z 10022a25 f i libcpmt:wlocale.obj
 0001:00021aba       ??$use_facet@V?$moneypunct@_W$0A@@std@@@std@@YAABV?$moneypunct@_W$0A@@0@ABVlocale@0@@Z 10022aba f i libcpmt:wlocale.obj
 0001:00021b4f       ??$use_facet@V?$num_get@GV?$istreambuf_iterator@GU?$char_traits@G@std@@@std@@@std@@@std@@YAABV?$num_get@GV?$istreambuf_iterator@GU?$char_traits@G@std@@@std@@@0@ABVlocale@0@@Z 10022b4f f i libcpmt:wlocale.obj
 0001:00021be4       ??$use_facet@V?$num_get@_WV?$istreambuf_iterator@_WU?$char_traits@_W@std@@@std@@@std@@@std@@YAABV?$num_get@_WV?$istreambuf_iterator@_WU?$char_traits@_W@std@@@std@@@0@ABVlocale@0@@Z 10022be4 f i libcpmt:wlocale.obj
 0001:00021c79       ??$use_facet@V?$num_put@GV?$ostreambuf_iterator@GU?$char_traits@G@std@@@std@@@std@@@std@@YAABV?$num_put@GV?$ostreambuf_iterator@GU?$char_traits@G@std@@@std@@@0@ABVlocale@0@@Z 10022c79 f i libcpmt:wlocale.obj
 0001:00021d0e       ??$use_facet@V?$numpunct@G@std@@@std@@YAABV?$numpunct@G@0@ABVlocale@0@@Z 10022d0e f i libcpmt:wlocale.obj
 0001:00021da3       ??$use_facet@V?$time_get@GV?$istreambuf_iterator@GU?$char_traits@G@std@@@std@@@std@@@std@@YAABV?$time_get@GV?$istreambuf_iterator@GU?$char_traits@G@std@@@std@@@0@ABVlocale@0@@Z 10022da3 f i libcpmt:wlocale.obj
 0001:00021e38       ??$use_facet@V?$time_get@_WV?$istreambuf_iterator@_WU?$char_traits@_W@std@@@std@@@std@@@std@@YAABV?$time_get@_WV?$istreambuf_iterator@_WU?$char_traits@_W@std@@@std@@@0@ABVlocale@0@@Z 10022e38 f i libcpmt:wlocale.obj
 0001:00021ecd       ??$use_facet@V?$time_put@GV?$ostreambuf_iterator@GU?$char_traits@G@std@@@std@@@std@@@std@@YAABV?$time_put@GV?$ostreambuf_iterator@GU?$char_traits@G@std@@@std@@@0@ABVlocale@0@@Z 10022ecd f i libcpmt:wlocale.obj
 0001:00021f62       ??$use_facet@V?$time_put@_WV?$ostreambuf_iterator@_WU?$char_traits@_W@std@@@std@@@std@@@std@@YAABV?$time_put@_WV?$ostreambuf_iterator@_WU?$char_traits@_W@std@@@std@@@0@ABVlocale@0@@Z 10022f62 f i libcpmt:wlocale.obj
 0001:00021ff7       ??0?$basic_string@GU?$char_traits@G@std@@V?$allocator@G@2@@std@@QAE@IG@Z 10022ff7 f i libcpmt:wlocale.obj
 0001:00022031       ??0?$basic_string@GU?$char_traits@G@std@@V?$allocator@G@2@@std@@QAE@QBG@Z 10023031 f i libcpmt:wlocale.obj
 0001:00022068       ??0?$basic_string@GU?$char_traits@G@std@@V?$allocator@G@2@@std@@QAE@QBGI@Z 10023068 f i libcpmt:wlocale.obj
 0001:000220a2       ??0?$basic_string@_WU?$char_traits@_W@std@@V?$allocator@_W@2@@std@@QAE@QB_WI@Z 100230a2 f i libcpmt:wlocale.obj
 0001:000220dc       ??0?$codecvt@GDU_Mbstatet@@@std@@QAE@ABV_Locinfo@1@I@Z 100230dc f i libcpmt:wlocale.obj
 0001:00022113       ??0?$time_get@GV?$istreambuf_iterator@GU?$char_traits@G@std@@@std@@@std@@QAE@ABV_Locinfo@1@I@Z 10023113 f i libcpmt:wlocale.obj
 0001:00022146       ??0?$time_get@_WV?$istreambuf_iterator@_WU?$char_traits@_W@std@@@std@@@std@@QAE@ABV_Locinfo@1@I@Z 10023146 f i libcpmt:wlocale.obj
 0001:00022179       ??1?$_Tidy_guard@V?$_Mpunct@D@std@@@std@@QAE@XZ 10023179 f i libcpmt:xlocale.obj
 0001:00022179       ??1?$_Tidy_guard@V?$_Mpunct@G@std@@@std@@QAE@XZ 10023179 f i libcpmt:wlocale.obj
 0001:00022179       ??1?$_Tidy_guard@V?$_Mpunct@_W@std@@@std@@QAE@XZ 10023179 f i libcpmt:wlocale.obj
 0001:00022184       ??1?$_Tidy_guard@V?$time_get@DV?$istreambuf_iterator@DU?$char_traits@D@std@@@std@@@std@@@std@@QAE@XZ 10023184 f i libcpmt:xlocale.obj
 0001:00022184       ??1?$_Tidy_guard@V?$time_get@GV?$istreambuf_iterator@GU?$char_traits@G@std@@@std@@@std@@@std@@QAE@XZ 10023184 f i libcpmt:wlocale.obj
 0001:00022184       ??1?$_Tidy_guard@V?$time_get@_WV?$istreambuf_iterator@_WU?$char_traits@_W@std@@@std@@@std@@@std@@QAE@XZ 10023184 f i libcpmt:wlocale.obj
 0001:0002218f       ??1?$basic_string@GU?$char_traits@G@std@@V?$allocator@G@2@@std@@QAE@XZ 1002318f f i libcpmt:wlocale.obj
 0001:00022194       ??1?$collate@G@std@@MAE@XZ 10023194 f i libcpmt:wlocale.obj
 0001:000221ae       ??1?$collate@_W@std@@MAE@XZ 100231ae f i libcpmt:wlocale.obj
 0001:000221c8       ??1?$ctype@G@std@@MAE@XZ   100231c8 f i libcpmt:wlocale.obj
 0001:000221f1       ??1?$time_put@GV?$ostreambuf_iterator@GU?$char_traits@G@std@@@std@@@std@@MAE@XZ 100231f1 f i libcpmt:wlocale.obj
 0001:0002220b       ??1?$time_put@_WV?$ostreambuf_iterator@_WU?$char_traits@_W@std@@@std@@@std@@MAE@XZ 1002320b f i libcpmt:wlocale.obj
 0001:00022225       ??4?$_Yarn@_W@std@@QAEAAV01@PB_W@Z 10023225 f i libcpmt:wlocale.obj
 0001:00022281       ??4?$basic_string@GU?$char_traits@G@std@@V?$allocator@G@2@@std@@QAEAAV01@$$QAV01@@Z 10023281 f i libcpmt:wlocale.obj
 0001:000222e7       ??4?$ostreambuf_iterator@GU?$char_traits@G@std@@@std@@QAEAAV01@G@Z 100232e7 f i libcpmt:wlocale.obj
 0001:00022310       ??4_Timevec@std@@QAEAAV01@ABV01@@Z 10023310 f i libcpmt:wlocale.obj
 0001:00022335       ??R<lambda_1>@?1??append@?$basic_string@GU?$char_traits@G@std@@V?$allocator@G@2@@std@@QAEAAV23@IG@Z@QBE@QAGQBGIIG@Z 10023335 f i libcpmt:wlocale.obj
 0001:00022335       ??R<lambda_1>@?1??append@?$basic_string@_WU?$char_traits@_W@std@@V?$allocator@_W@2@@std@@QAEAAV23@I_W@Z@QBE@QA_WQB_WII0@Z 10023335 f i libcpmt:wlocale.obj
 0001:00022371       ??R<lambda_1>@?1??append@?$basic_string@GU?$char_traits@G@std@@V?$allocator@G@2@@std@@QAEAAV23@QBGI@Z@QBE@QAG0I0I@Z 10023371 f i libcpmt:wlocale.obj
 0001:000223b0       ??R<lambda_1>@?1??insert@?$basic_string@GU?$char_traits@G@std@@V?$allocator@G@2@@std@@QAEAAV23@IIG@Z@QBE@QAGQBGIIIG@Z 100233b0 f i libcpmt:wlocale.obj
 0001:00022403       ??_E?$_Mpunct@G@std@@MAEPAXI@Z 10023403 f i libcpmt:wlocale.obj
 0001:00022403       ??_E?$moneypunct@G$00@std@@MAEPAXI@Z 10023403 f i libcpmt:wlocale.obj
 0001:00022403       ??_E?$moneypunct@G$0A@@std@@MAEPAXI@Z 10023403 f i libcpmt:wlocale.obj
 0001:00022403       ??_G?$_Mpunct@G@std@@MAEPAXI@Z 10023403 f i libcpmt:wlocale.obj
 0001:00022403       ??_G?$moneypunct@G$00@std@@MAEPAXI@Z 10023403 f i libcpmt:wlocale.obj
 0001:00022403       ??_G?$moneypunct@G$0A@@std@@MAEPAXI@Z 10023403 f i libcpmt:wlocale.obj
 0001:00022431       ??_E?$_Mpunct@_W@std@@MAEPAXI@Z 10023431 f i libcpmt:wlocale.obj
 0001:00022431       ??_E?$moneypunct@_W$00@std@@MAEPAXI@Z 10023431 f i libcpmt:wlocale.obj
 0001:00022431       ??_E?$moneypunct@_W$0A@@std@@MAEPAXI@Z 10023431 f i libcpmt:wlocale.obj
 0001:00022431       ??_G?$_Mpunct@_W@std@@MAEPAXI@Z 10023431 f i libcpmt:wlocale.obj
 0001:00022431       ??_G?$moneypunct@_W$00@std@@MAEPAXI@Z 10023431 f i libcpmt:wlocale.obj
 0001:00022431       ??_G?$moneypunct@_W$0A@@std@@MAEPAXI@Z 10023431 f i libcpmt:wlocale.obj
 0001:0002245f       ??_E?$codecvt@GDU_Mbstatet@@@std@@MAEPAXI@Z 1002345f f i libcpmt:wlocale.obj
 0001:0002245f       ??_G?$codecvt@GDU_Mbstatet@@@std@@MAEPAXI@Z 1002345f f i libcpmt:wlocale.obj
 0001:00022482       ??_E?$collate@G@std@@MAEPAXI@Z 10023482 f i libcpmt:wlocale.obj
 0001:00022482       ??_G?$collate@G@std@@MAEPAXI@Z 10023482 f i libcpmt:wlocale.obj
 0001:000224a4       ??_E?$collate@_W@std@@MAEPAXI@Z 100234a4 f i libcpmt:wlocale.obj
 0001:000224a4       ??_G?$collate@_W@std@@MAEPAXI@Z 100234a4 f i libcpmt:wlocale.obj
 0001:000224c6       ??_E?$ctype@G@std@@MAEPAXI@Z 100234c6 f i libcpmt:wlocale.obj
 0001:000224c6       ??_G?$ctype@G@std@@MAEPAXI@Z 100234c6 f i libcpmt:wlocale.obj
 0001:000224e8       ??_E?$numpunct@G@std@@MAEPAXI@Z 100234e8 f i libcpmt:wlocale.obj
 0001:000224e8       ??_G?$numpunct@G@std@@MAEPAXI@Z 100234e8 f i libcpmt:wlocale.obj
 0001:00022516       ??_E?$time_get@GV?$istreambuf_iterator@GU?$char_traits@G@std@@@std@@@std@@MAEPAXI@Z 10023516 f i libcpmt:wlocale.obj
 0001:00022516       ??_G?$time_get@GV?$istreambuf_iterator@GU?$char_traits@G@std@@@std@@@std@@MAEPAXI@Z 10023516 f i libcpmt:wlocale.obj
 0001:00022544       ??_E?$time_get@_WV?$istreambuf_iterator@_WU?$char_traits@_W@std@@@std@@@std@@MAEPAXI@Z 10023544 f i libcpmt:wlocale.obj
 0001:00022544       ??_G?$time_get@_WV?$istreambuf_iterator@_WU?$char_traits@_W@std@@@std@@@std@@MAEPAXI@Z 10023544 f i libcpmt:wlocale.obj
 0001:00022572       ??_E?$time_put@GV?$ostreambuf_iterator@GU?$char_traits@G@std@@@std@@@std@@MAEPAXI@Z 10023572 f i libcpmt:wlocale.obj
 0001:00022572       ??_G?$time_put@GV?$ostreambuf_iterator@GU?$char_traits@G@std@@@std@@@std@@MAEPAXI@Z 10023572 f i libcpmt:wlocale.obj
 0001:00022594       ??_E?$time_put@_WV?$ostreambuf_iterator@_WU?$char_traits@_W@std@@@std@@@std@@MAEPAXI@Z 10023594 f i libcpmt:wlocale.obj
 0001:00022594       ??_G?$time_put@_WV?$ostreambuf_iterator@_WU?$char_traits@_W@std@@@std@@@std@@MAEPAXI@Z 10023594 f i libcpmt:wlocale.obj
 0001:000225b6       ?_Calculate_growth@?$basic_string@GU?$char_traits@G@std@@V?$allocator@G@2@@std@@CAIIII@Z 100235b6 f i libcpmt:wlocale.obj
 0001:000225b6       ?_Calculate_growth@?$basic_string@_WU?$char_traits@_W@std@@V?$allocator@_W@2@@std@@CAIIII@Z 100235b6 f i libcpmt:wlocale.obj
 0001:000225e6       ?_Construct_lv_contents@?$basic_string@GU?$char_traits@G@std@@V?$allocator@G@2@@std@@AAEXABV12@@Z 100235e6 f i libcpmt:wlocale.obj
 0001:00022650       ?_Construct_lv_contents@?$basic_string@_WU?$char_traits@_W@std@@V?$allocator@_W@2@@std@@AAEXABV12@@Z 10023650 f i libcpmt:wlocale.obj
 0001:000226ba       ?_Donarrow@?$ctype@G@std@@IBEDGD@Z 100236ba f i libcpmt:wlocale.obj
 0001:00022702       ?_Dowiden@?$ctype@G@std@@IBEGD@Z 10023702 f i libcpmt:wlocale.obj
 0001:0002273d       ?_Eos@?$basic_string@GU?$char_traits@G@std@@V?$allocator@G@2@@std@@AAEXI@Z 1002373d f i libcpmt:wlocale.obj
 0001:0002275a       ?_Fnv1a_append_bytes@std@@YAIIQBEI@Z 1002375a f i libcpmt:wlocale.obj
 0001:00022782       ?_Fput@?$num_put@GV?$ostreambuf_iterator@GU?$char_traits@G@std@@@std@@@std@@ABA?AV?$ostreambuf_iterator@GU?$char_traits@G@std@@@2@V32@AAVios_base@2@GPBDI@Z 10023782 f i libcpmt:wlocale.obj
 0001:00022a89       ?_Getcat@?$codecvt@GDU_Mbstatet@@@std@@SAIPAPBVfacet@locale@2@PBV42@@Z 10023a89 f i libcpmt:wlocale.obj
 0001:00022aef       ?_Getcat@?$collate@G@std@@SAIPAPBVfacet@locale@2@PBV42@@Z 10023aef f i libcpmt:wlocale.obj
 0001:00022b91       ?_Getcat@?$collate@_W@std@@SAIPAPBVfacet@locale@2@PBV42@@Z 10023b91 f i libcpmt:wlocale.obj
 0001:00022c33       ?_Getcat@?$ctype@G@std@@SAIPAPBVfacet@locale@2@PBV42@@Z 10023c33 f i libcpmt:wlocale.obj
 0001:00022ca3       ?_Getcat@?$messages@G@std@@SAIPAPBVfacet@locale@2@PBV42@@Z 10023ca3 f i libcpmt:wlocale.obj
 0001:00022d0b       ?_Getcat@?$messages@_W@std@@SAIPAPBVfacet@locale@2@PBV42@@Z 10023d0b f i libcpmt:wlocale.obj
 0001:00022d73       ?_Getcat@?$money_get@GV?$istreambuf_iterator@GU?$char_traits@G@std@@@std@@@std@@SAIPAPBVfacet@locale@2@PBV42@@Z 10023d73 f i libcpmt:wlocale.obj
 0001:00022ddb       ?_Getcat@?$money_get@_WV?$istreambuf_iterator@_WU?$char_traits@_W@std@@@std@@@std@@SAIPAPBVfacet@locale@2@PBV42@@Z 10023ddb f i libcpmt:wlocale.obj
 0001:00022e43       ?_Getcat@?$money_put@GV?$ostreambuf_iterator@GU?$char_traits@G@std@@@std@@@std@@SAIPAPBVfacet@locale@2@PBV42@@Z 10023e43 f i libcpmt:wlocale.obj
 0001:00022eab       ?_Getcat@?$money_put@_WV?$ostreambuf_iterator@_WU?$char_traits@_W@std@@@std@@@std@@SAIPAPBVfacet@locale@2@PBV42@@Z 10023eab f i libcpmt:wlocale.obj
 0001:00022f13       ?_Getcat@?$moneypunct@G$00@std@@SAIPAPBVfacet@locale@2@PBV42@@Z 10023f13 f i libcpmt:wlocale.obj
 0001:00022f97       ?_Getcat@?$moneypunct@G$0A@@std@@SAIPAPBVfacet@locale@2@PBV42@@Z 10023f97 f i libcpmt:wlocale.obj
 0001:0002301c       ?_Getcat@?$moneypunct@_W$00@std@@SAIPAPBVfacet@locale@2@PBV42@@Z 1002401c f i libcpmt:wlocale.obj
 0001:000230a0       ?_Getcat@?$moneypunct@_W$0A@@std@@SAIPAPBVfacet@locale@2@PBV42@@Z 100240a0 f i libcpmt:wlocale.obj
 0001:00023125       ?_Getcat@?$num_get@GV?$istreambuf_iterator@GU?$char_traits@G@std@@@std@@@std@@SAIPAPBVfacet@locale@2@PBV42@@Z 10024125 f i libcpmt:wlocale.obj
 0001:0002318d       ?_Getcat@?$num_get@_WV?$istreambuf_iterator@_WU?$char_traits@_W@std@@@std@@@std@@SAIPAPBVfacet@locale@2@PBV42@@Z 1002418d f i libcpmt:wlocale.obj
 0001:000231f5       ?_Getcat@?$num_put@GV?$ostreambuf_iterator@GU?$char_traits@G@std@@@std@@@std@@SAIPAPBVfacet@locale@2@PBV42@@Z 100241f5 f i libcpmt:wlocale.obj
 0001:0002325d       ?_Getcat@?$numpunct@G@std@@SAIPAPBVfacet@locale@2@PBV42@@Z 1002425d f i libcpmt:wlocale.obj
 0001:000232d8       ?_Getcat@?$time_get@GV?$istreambuf_iterator@GU?$char_traits@G@std@@@std@@@std@@SAIPAPBVfacet@locale@2@PBV42@@Z 100242d8 f i libcpmt:wlocale.obj
 0001:00023344       ?_Getcat@?$time_get@_WV?$istreambuf_iterator@_WU?$char_traits@_W@std@@@std@@@std@@SAIPAPBVfacet@locale@2@PBV42@@Z 10024344 f i libcpmt:wlocale.obj
 0001:000233b0       ?_Getcat@?$time_put@GV?$ostreambuf_iterator@GU?$char_traits@G@std@@@std@@@std@@SAIPAPBVfacet@locale@2@PBV42@@Z 100243b0 f i libcpmt:wlocale.obj
 0001:00023424       ?_Getcat@?$time_put@_WV?$ostreambuf_iterator@_WU?$char_traits@_W@std@@@std@@@std@@SAIPAPBVfacet@locale@2@PBV42@@Z 10024424 f i libcpmt:wlocale.obj
 0001:00023498       ?_Getdays@_Locinfo@std@@QBEPBDXZ 10024498 f i libcpmt:wlocale.obj
 0001:000234c6       ?_Getffld@?$num_get@GV?$istreambuf_iterator@GU?$char_traits@G@std@@@std@@@std@@ABAHPADAAV?$istreambuf_iterator@GU?$char_traits@G@std@@@2@1AAVios_base@2@PAH@Z 100244c6 f i libcpmt:wlocale.obj
 0001:00023c2b       ?_Getffld@?$num_get@_WV?$istreambuf_iterator@_WU?$char_traits@_W@std@@@std@@@std@@ABAHPADAAV?$istreambuf_iterator@_WU?$char_traits@_W@std@@@2@1AAVios_base@2@PAH@Z 10024c2b f i libcpmt:wlocale.obj
 0001:00024390       ?_Getffldx@?$num_get@GV?$istreambuf_iterator@GU?$char_traits@G@std@@@std@@@std@@ABAHPADAAV?$istreambuf_iterator@GU?$char_traits@G@std@@@2@1AAVios_base@2@PAH@Z 10025390 f i libcpmt:wlocale.obj
 0001:00024b87       ?_Getffldx@?$num_get@_WV?$istreambuf_iterator@_WU?$char_traits@_W@std@@@std@@@std@@ABAHPADAAV?$istreambuf_iterator@_WU?$char_traits@_W@std@@@2@1AAVios_base@2@PAH@Z 10025b87 f i libcpmt:wlocale.obj
 0001:0002537e       ?_Getfmt@?$time_get@GV?$istreambuf_iterator@GU?$char_traits@G@std@@@std@@@std@@IBE?AV?$istreambuf_iterator@GU?$char_traits@G@std@@@2@V32@0AAVios_base@2@AAHPAUtm@@PBD@Z 1002637e f i libcpmt:wlocale.obj
 0001:000254d3       ?_Getfmt@?$time_get@_WV?$istreambuf_iterator@_WU?$char_traits@_W@std@@@std@@@std@@IBE?AV?$istreambuf_iterator@_WU?$char_traits@_W@std@@@2@V32@0AAVios_base@2@AAHPAUtm@@PBD@Z 100264d3 f i libcpmt:wlocale.obj
 0001:00025628       ?_Getifld@?$num_get@GV?$istreambuf_iterator@GU?$char_traits@G@std@@@std@@@std@@ABAHPADAAV?$istreambuf_iterator@GU?$char_traits@G@std@@@2@1HABVlocale@2@@Z 10026628 f i libcpmt:wlocale.obj
 0001:00025a1c       ?_Getifld@?$num_get@_WV?$istreambuf_iterator@_WU?$char_traits@_W@std@@@std@@@std@@ABAHPADAAV?$istreambuf_iterator@_WU?$char_traits@_W@std@@@2@1HABVlocale@2@@Z 10026a1c f i libcpmt:wlocale.obj
 0001:00025e10       ?_Getint@?$time_get@GV?$istreambuf_iterator@GU?$char_traits@G@std@@@std@@@std@@ABAHAAV?$istreambuf_iterator@GU?$char_traits@G@std@@@2@0HHAAHABV?$ctype@G@2@@Z 10026e10 f i libcpmt:wlocale.obj
 0001:00026034       ?_Getint@?$time_get@_WV?$istreambuf_iterator@_WU?$char_traits@_W@std@@@std@@@std@@ABAHAAV?$istreambuf_iterator@_WU?$char_traits@_W@std@@@2@0HHAAHABV?$ctype@_W@2@@Z 10027034 f i libcpmt:wlocale.obj
 0001:00026258       ?_Getmfld@?$money_get@GV?$istreambuf_iterator@GU?$char_traits@G@std@@@std@@@std@@ABE?AV?$basic_string@DU?$char_traits@D@std@@V?$allocator@D@2@@2@AAV?$istreambuf_iterator@GU?$char_traits@G@std@@@2@0_NAAVios_base@2@AAY0M@G@Z 10027258 f i libcpmt:wlocale.obj
 0001:00026d67       ?_Getmfld@?$money_get@_WV?$istreambuf_iterator@_WU?$char_traits@_W@std@@@std@@@std@@ABE?AV?$basic_string@DU?$char_traits@D@std@@V?$allocator@D@2@@2@AAV?$istreambuf_iterator@_WU?$char_traits@_W@std@@@2@0_NAAVios_base@2@AAY0M@_W@Z 10027d67 f i libcpmt:wlocale.obj
 0001:00027876       ?_Getmonths@_Locinfo@std@@QBEPBDXZ 10028876 f i libcpmt:wlocale.obj
 0001:000278a4       ?_Getvals@?$_Mpunct@_W@std@@IAEX_WPBUlconv@@@Z 100288a4 f i libcpmt:wlocale.obj
 0001:00027910       ?_Inc@?$istreambuf_iterator@GU?$char_traits@G@std@@@std@@AAEXXZ 10028910 f i libcpmt:wlocale.obj
 0001:00027936       ?_Inc@?$istreambuf_iterator@_WU?$char_traits@_W@std@@@std@@AAEXXZ 10028936 f i libcpmt:wlocale.obj
 0001:0002795c       ?_Init@?$_Mpunct@G@std@@IAEXABV_Locinfo@2@_N@Z 1002895c f i libcpmt:wlocale.obj
 0001:00027a27       ?_Init@?$_Mpunct@_W@std@@IAEXABV_Locinfo@2@_N@Z 10028a27 f i libcpmt:wlocale.obj
 0001:00027af2       ?_Init@?$ctype@G@std@@IAEXABV_Locinfo@2@@Z 10028af2 f i libcpmt:wlocale.obj
 0001:00027b2b       ?_Init@?$numpunct@G@std@@IAEXABV_Locinfo@2@_N@Z 10028b2b f i libcpmt:wlocale.obj
 0001:00027c04       ?_Init@?$time_get@GV?$istreambuf_iterator@GU?$char_traits@G@std@@@std@@@std@@IAEXABV_Locinfo@2@@Z 10028c04 f i libcpmt:wlocale.obj
 0001:00027c3c       ?_Init@?$time_get@_WV?$istreambuf_iterator@_WU?$char_traits@_W@std@@@std@@@std@@IAEXABV_Locinfo@2@@Z 10028c3c f i libcpmt:wlocale.obj
 0001:00027c74       ?_Init@?$time_put@GV?$ostreambuf_iterator@GU?$char_traits@G@std@@@std@@@std@@IAEXABV_Locinfo@2@@Z 10028c74 f i libcpmt:wlocale.obj
 0001:00027c74       ?_Init@?$time_put@_WV?$ostreambuf_iterator@_WU?$char_traits@_W@std@@@std@@@std@@IAEXABV_Locinfo@2@@Z 10028c74 f i libcpmt:wlocale.obj
 0001:00027c9d       ?_Iput@?$num_put@GV?$ostreambuf_iterator@GU?$char_traits@G@std@@@std@@@std@@ABA?AV?$ostreambuf_iterator@GU?$char_traits@G@std@@@2@V32@AAVios_base@2@GPADI@Z 10028c9d f i libcpmt:wlocale.obj
 0001:00027f3f       ?_Makeushloc@_Locimp@locale@std@@CAXABV_Locinfo@3@HPAV123@PBV23@@Z 10028f3f f   libcpmt:wlocale.obj
 0001:0002841b       ?_Makewloc@_Locimp@locale@std@@CAXABV_Locinfo@3@HPAV123@PBV23@@Z 1002941b f   libcpmt:wlocale.obj
 0001:000288f7       ?_Maklocwcs@std@@YAPA_WPB_W@Z 100298f7 f i libcpmt:wlocale.obj
 0001:00028940       ?_Makpat@?$_Mpunct@D@std@@AAEXAAUpattern@money_base@2@III@Z 10029940 f i libcpmt:xlocale.obj
 0001:00028940       ?_Makpat@?$_Mpunct@G@std@@AAEXAAUpattern@money_base@2@III@Z 10029940 f i libcpmt:wlocale.obj
 0001:00028940       ?_Makpat@?$_Mpunct@_W@std@@AAEXAAUpattern@money_base@2@III@Z 10029940 f i libcpmt:wlocale.obj
 0001:00028981       ?_Peek@?$istreambuf_iterator@GU?$char_traits@G@std@@@std@@ABEGXZ 10029981 f i libcpmt:wlocale.obj
 0001:000289af       ?_Peek@?$istreambuf_iterator@_WU?$char_traits@_W@std@@@std@@ABE_WXZ 100299af f i libcpmt:wlocale.obj
 0001:000289dd       ?_Put@?$money_put@GV?$ostreambuf_iterator@GU?$char_traits@G@std@@@std@@@std@@CA?AV?$ostreambuf_iterator@GU?$char_traits@G@std@@@2@V32@V?$_String_const_iterator@V?$_String_val@U?$_Simple_types@G@std@@@std@@@2@I@Z 100299dd f i libcpmt:wlocale.obj
 0001:00028a16       ?_Put@?$money_put@_WV?$ostreambuf_iterator@_WU?$char_traits@_W@std@@@std@@@std@@CA?AV?$ostreambuf_iterator@_WU?$char_traits@_W@std@@@2@V32@V?$_String_const_iterator@V?$_String_val@U?$_Simple_types@_W@std@@@std@@@2@I@Z 10029a16 f i libcpmt:wlocale.obj
 0001:00028a4f       ?_Put@?$num_put@GV?$ostreambuf_iterator@GU?$char_traits@G@std@@@std@@@std@@ABA?AV?$ostreambuf_iterator@GU?$char_traits@G@std@@@2@V32@PBGI@Z 10029a4f f i libcpmt:wlocale.obj
 0001:00028a84       ?_Putmfld@?$money_put@GV?$ostreambuf_iterator@GU?$char_traits@G@std@@@std@@@std@@ABE?AV?$ostreambuf_iterator@GU?$char_traits@G@std@@@2@V32@_NAAVios_base@2@G1V?$basic_string@GU?$char_traits@G@std@@V?$allocator@G@2@@2@G@Z 10029a84 f i libcpmt:wlocale.obj
 0001:00029098       ?_Putmfld@?$money_put@_WV?$ostreambuf_iterator@_WU?$char_traits@_W@std@@@std@@@std@@ABE?AV?$ostreambuf_iterator@_WU?$char_traits@_W@std@@@2@V32@_NAAVios_base@2@_W1V?$basic_string@_WU?$char_traits@_W@std@@V?$allocator@_W@2@@2@3@Z 1002a098 f i libcpmt:wlocale.obj
 0001:000296ac       ?_Rep@?$money_put@GV?$ostreambuf_iterator@GU?$char_traits@G@std@@@std@@@std@@CA?AV?$ostreambuf_iterator@GU?$char_traits@G@std@@@2@V32@GI@Z 1002a6ac f i libcpmt:wlocale.obj
 0001:000296d8       ?_Rep@?$money_put@_WV?$ostreambuf_iterator@_WU?$char_traits@_W@std@@@std@@@std@@CA?AV?$ostreambuf_iterator@_WU?$char_traits@_W@std@@@2@V32@_WI@Z 1002a6d8 f i libcpmt:wlocale.obj
 0001:00029704       ?_Rep@?$num_put@GV?$ostreambuf_iterator@GU?$char_traits@G@std@@@std@@@std@@ABA?AV?$ostreambuf_iterator@GU?$char_traits@G@std@@@2@V32@GI@Z 1002a704 f i libcpmt:wlocale.obj
 0001:00029730       ?_Tidy@?$_Mpunct@D@std@@AAEXXZ 1002a730 f i libcpmt:xlocale.obj
 0001:00029730       ?_Tidy@?$_Mpunct@G@std@@AAEXXZ 1002a730 f i libcpmt:wlocale.obj
 0001:00029730       ?_Tidy@?$_Mpunct@_W@std@@AAEXXZ 1002a730 f i libcpmt:wlocale.obj
 0001:00029758       ?_Tidy@?$time_get@DV?$istreambuf_iterator@DU?$char_traits@D@std@@@std@@@std@@AAEXXZ 1002a758 f i libcpmt:xlocale.obj
 0001:00029758       ?_Tidy@?$time_get@GV?$istreambuf_iterator@GU?$char_traits@G@std@@@std@@@std@@AAEXXZ 1002a758 f i libcpmt:wlocale.obj
 0001:00029758       ?_Tidy@?$time_get@_WV?$istreambuf_iterator@_WU?$char_traits@_W@std@@@std@@@std@@AAEXXZ 1002a758 f i libcpmt:wlocale.obj
 0001:00029778       ?_Tidy_deallocate@?$basic_string@GU?$char_traits@G@std@@V?$allocator@G@2@@std@@AAEXXZ 1002a778 f i libcpmt:wlocale.obj
 0001:000297a5       ?_W_Getdays@_Locinfo@std@@QBEPBGXZ 1002a7a5 f i libcpmt:wlocale.obj
 0001:000297d3       ?_W_Getmonths@_Locinfo@std@@QBEPBGXZ 1002a7d3 f i libcpmt:wlocale.obj
 0001:00029801       ?allocate@?$allocator@G@std@@QAEPAGI@Z 1002a801 f i libcpmt:wlocale.obj
 0001:00029821       ?append@?$basic_string@GU?$char_traits@G@std@@V?$allocator@G@2@@std@@QAEAAV12@IG@Z 1002a821 f i libcpmt:wlocale.obj
 0001:00029879       ?append@?$basic_string@GU?$char_traits@G@std@@V?$allocator@G@2@@std@@QAEAAV12@QBGI@Z 1002a879 f i libcpmt:wlocale.obj
 0001:000298d4       ?append@?$basic_string@_WU?$char_traits@_W@std@@V?$allocator@_W@2@@std@@QAEAAV12@I_W@Z 1002a8d4 f i libcpmt:wlocale.obj
 0001:0002992c       ?assign@?$basic_string@GU?$char_traits@G@std@@V?$allocator@G@2@@std@@QAEAAV12@IG@Z 1002a92c f i libcpmt:wlocale.obj
 0001:00029974       ?assign@?$basic_string@GU?$char_traits@G@std@@V?$allocator@G@2@@std@@QAEAAV12@QBG@Z 1002a974 f i libcpmt:wlocale.obj
 0001:0002999d       ?assign@?$basic_string@GU?$char_traits@G@std@@V?$allocator@G@2@@std@@QAEAAV12@QBGI@Z 1002a99d f i libcpmt:wlocale.obj
 0001:000299e8       ?do_compare@?$collate@G@std@@MBEHPBG000@Z 1002a9e8 f i libcpmt:wlocale.obj
 0001:00029a19       ?do_compare@?$collate@_W@std@@MBEHPB_W000@Z 1002aa19 f i libcpmt:wlocale.obj
 0001:00029a4a       ?do_curr_symbol@?$_Mpunct@G@std@@MBE?AV?$basic_string@GU?$char_traits@G@std@@V?$allocator@G@2@@2@XZ 1002aa4a f i libcpmt:wlocale.obj
 0001:00029a4a       ?do_falsename@?$numpunct@G@std@@MBE?AV?$basic_string@GU?$char_traits@G@std@@V?$allocator@G@2@@2@XZ 1002aa4a f i libcpmt:wlocale.obj
 0001:00029a60       ?do_curr_symbol@?$_Mpunct@_W@std@@MBE?AV?$basic_string@_WU?$char_traits@_W@std@@V?$allocator@_W@2@@2@XZ 1002aa60 f i libcpmt:wlocale.obj
 0001:00029a76       ?do_date_order@?$time_get@DV?$istreambuf_iterator@DU?$char_traits@D@std@@@std@@@std@@MBE?AW4dateorder@time_base@2@XZ 1002aa76 f i libcpmt:xlocale.obj
 0001:00029a76       ?do_date_order@?$time_get@GV?$istreambuf_iterator@GU?$char_traits@G@std@@@std@@@std@@MBE?AW4dateorder@time_base@2@XZ 1002aa76 f i libcpmt:wlocale.obj
 0001:00029a76       ?do_date_order@?$time_get@_WV?$istreambuf_iterator@_WU?$char_traits@_W@std@@@std@@@std@@MBE?AW4dateorder@time_base@2@XZ 1002aa76 f i libcpmt:wlocale.obj
 0001:00029a7a       ?do_frac_digits@?$_Mpunct@D@std@@MBEHXZ 1002aa7a f i libcpmt:xlocale.obj
 0001:00029a7a       ?do_frac_digits@?$_Mpunct@G@std@@MBEHXZ 1002aa7a f i libcpmt:wlocale.obj
 0001:00029a7a       ?do_frac_digits@?$_Mpunct@_W@std@@MBEHXZ 1002aa7a f i libcpmt:wlocale.obj
 0001:00029a7e       ?do_get@?$messages@G@std@@MBE?AV?$basic_string@GU?$char_traits@G@std@@V?$allocator@G@2@@2@HHHABV32@@Z 1002aa7e f i libcpmt:wlocale.obj
 0001:00029aa1       ?do_get@?$messages@_W@std@@MBE?AV?$basic_string@_WU?$char_traits@_W@std@@V?$allocator@_W@2@@2@HHHABV32@@Z 1002aaa1 f i libcpmt:wlocale.obj
 0001:00029ac4       ?do_get@?$money_get@GV?$istreambuf_iterator@GU?$char_traits@G@std@@@std@@@std@@MBE?AV?$istreambuf_iterator@GU?$char_traits@G@std@@@2@V32@0_NAAVios_base@2@AAHAAO@Z 1002aac4 f i libcpmt:wlocale.obj
 0001:00029b6c       ?do_get@?$money_get@GV?$istreambuf_iterator@GU?$char_traits@G@std@@@std@@@std@@MBE?AV?$istreambuf_iterator@GU?$char_traits@G@std@@@2@V32@0_NAAVios_base@2@AAHAAV?$basic_string@GU?$char_traits@G@std@@V?$allocator@G@2@@2@@Z 1002ab6c f i libcpmt:wlocale.obj
 0001:00029c46       ?do_get@?$money_get@_WV?$istreambuf_iterator@_WU?$char_traits@_W@std@@@std@@@std@@MBE?AV?$istreambuf_iterator@_WU?$char_traits@_W@std@@@2@V32@0_NAAVios_base@2@AAHAAO@Z 1002ac46 f i libcpmt:wlocale.obj
 0001:00029cee       ?do_get@?$money_get@_WV?$istreambuf_iterator@_WU?$char_traits@_W@std@@@std@@@std@@MBE?AV?$istreambuf_iterator@_WU?$char_traits@_W@std@@@2@V32@0_NAAVios_base@2@AAHAAV?$basic_string@_WU?$char_traits@_W@std@@V?$allocator@_W@2@@2@@Z 1002acee f i libcpmt:wlocale.obj
 0001:00029dc8       ?do_get@?$num_get@GV?$istreambuf_iterator@GU?$char_traits@G@std@@@std@@@std@@MBE?AV?$istreambuf_iterator@GU?$char_traits@G@std@@@2@V32@0AAVios_base@2@AAHAAG@Z 1002adc8 f i libcpmt:wlocale.obj
 0001:00029eb6       ?do_get@?$num_get@GV?$istreambuf_iterator@GU?$char_traits@G@std@@@std@@@std@@MBE?AV?$istreambuf_iterator@GU?$char_traits@G@std@@@2@V32@0AAVios_base@2@AAHAAI@Z 1002aeb6 f i libcpmt:wlocale.obj
 0001:00029ef6       ?do_get@?$num_get@GV?$istreambuf_iterator@GU?$char_traits@G@std@@@std@@@std@@MBE?AV?$istreambuf_iterator@GU?$char_traits@G@std@@@2@V32@0AAVios_base@2@AAHAAJ@Z 1002aef6 f i libcpmt:wlocale.obj
 0001:00029fba       ?do_get@?$num_get@GV?$istreambuf_iterator@GU?$char_traits@G@std@@@std@@@std@@MBE?AV?$istreambuf_iterator@GU?$char_traits@G@std@@@2@V32@0AAVios_base@2@AAHAAK@Z 1002afba f i libcpmt:wlocale.obj
 0001:0002a07e       ?do_get@?$num_get@GV?$istreambuf_iterator@GU?$char_traits@G@std@@@std@@@std@@MBE?AV?$istreambuf_iterator@GU?$char_traits@G@std@@@2@V32@0AAVios_base@2@AAHAAM@Z 1002b07e f i libcpmt:wlocale.obj
 0001:0002a179       ?do_get@?$num_get@GV?$istreambuf_iterator@GU?$char_traits@G@std@@@std@@@std@@MBE?AV?$istreambuf_iterator@GU?$char_traits@G@std@@@2@V32@0AAVios_base@2@AAHAAN@Z 1002b179 f i libcpmt:wlocale.obj
 0001:0002a26a       ?do_get@?$num_get@GV?$istreambuf_iterator@GU?$char_traits@G@std@@@std@@@std@@MBE?AV?$istreambuf_iterator@GU?$char_traits@G@std@@@2@V32@0AAVios_base@2@AAHAAO@Z 1002b26a f i libcpmt:wlocale.obj
 0001:0002a2a8       ?do_get@?$num_get@GV?$istreambuf_iterator@GU?$char_traits@G@std@@@std@@@std@@MBE?AV?$istreambuf_iterator@GU?$char_traits@G@std@@@2@V32@0AAVios_base@2@AAHAAPAX@Z 1002b2a8 f i libcpmt:wlocale.obj
 0001:0002a364       ?do_get@?$num_get@GV?$istreambuf_iterator@GU?$char_traits@G@std@@@std@@@std@@MBE?AV?$istreambuf_iterator@GU?$char_traits@G@std@@@2@V32@0AAVios_base@2@AAHAA_J@Z 1002b364 f i libcpmt:wlocale.obj
 0001:0002a42f       ?do_get@?$num_get@GV?$istreambuf_iterator@GU?$char_traits@G@std@@@std@@@std@@MBE?AV?$istreambuf_iterator@GU?$char_traits@G@std@@@2@V32@0AAVios_base@2@AAHAA_K@Z 1002b42f f i libcpmt:wlocale.obj
 0001:0002a4fa       ?do_get@?$num_get@GV?$istreambuf_iterator@GU?$char_traits@G@std@@@std@@@std@@MBE?AV?$istreambuf_iterator@GU?$char_traits@G@std@@@2@V32@0AAVios_base@2@AAHAA_N@Z 1002b4fa f i libcpmt:wlocale.obj
 0001:0002a73f       ?do_get@?$num_get@_WV?$istreambuf_iterator@_WU?$char_traits@_W@std@@@std@@@std@@MBE?AV?$istreambuf_iterator@_WU?$char_traits@_W@std@@@2@V32@0AAVios_base@2@AAHAAG@Z 1002b73f f i libcpmt:wlocale.obj
 0001:0002a82d       ?do_get@?$num_get@_WV?$istreambuf_iterator@_WU?$char_traits@_W@std@@@std@@@std@@MBE?AV?$istreambuf_iterator@_WU?$char_traits@_W@std@@@2@V32@0AAVios_base@2@AAHAAI@Z 1002b82d f i libcpmt:wlocale.obj
 0001:0002a86d       ?do_get@?$num_get@_WV?$istreambuf_iterator@_WU?$char_traits@_W@std@@@std@@@std@@MBE?AV?$istreambuf_iterator@_WU?$char_traits@_W@std@@@2@V32@0AAVios_base@2@AAHAAJ@Z 1002b86d f i libcpmt:wlocale.obj
 0001:0002a931       ?do_get@?$num_get@_WV?$istreambuf_iterator@_WU?$char_traits@_W@std@@@std@@@std@@MBE?AV?$istreambuf_iterator@_WU?$char_traits@_W@std@@@2@V32@0AAVios_base@2@AAHAAK@Z 1002b931 f i libcpmt:wlocale.obj
 0001:0002a9f5       ?do_get@?$num_get@_WV?$istreambuf_iterator@_WU?$char_traits@_W@std@@@std@@@std@@MBE?AV?$istreambuf_iterator@_WU?$char_traits@_W@std@@@2@V32@0AAVios_base@2@AAHAAM@Z 1002b9f5 f i libcpmt:wlocale.obj
 0001:0002aaf0       ?do_get@?$num_get@_WV?$istreambuf_iterator@_WU?$char_traits@_W@std@@@std@@@std@@MBE?AV?$istreambuf_iterator@_WU?$char_traits@_W@std@@@2@V32@0AAVios_base@2@AAHAAN@Z 1002baf0 f i libcpmt:wlocale.obj
 0001:0002abe1       ?do_get@?$num_get@_WV?$istreambuf_iterator@_WU?$char_traits@_W@std@@@std@@@std@@MBE?AV?$istreambuf_iterator@_WU?$char_traits@_W@std@@@2@V32@0AAVios_base@2@AAHAAO@Z 1002bbe1 f i libcpmt:wlocale.obj
 0001:0002ac1f       ?do_get@?$num_get@_WV?$istreambuf_iterator@_WU?$char_traits@_W@std@@@std@@@std@@MBE?AV?$istreambuf_iterator@_WU?$char_traits@_W@std@@@2@V32@0AAVios_base@2@AAHAAPAX@Z 1002bc1f f i libcpmt:wlocale.obj
 0001:0002acdb       ?do_get@?$num_get@_WV?$istreambuf_iterator@_WU?$char_traits@_W@std@@@std@@@std@@MBE?AV?$istreambuf_iterator@_WU?$char_traits@_W@std@@@2@V32@0AAVios_base@2@AAHAA_J@Z 1002bcdb f i libcpmt:wlocale.obj
 0001:0002ada6       ?do_get@?$num_get@_WV?$istreambuf_iterator@_WU?$char_traits@_W@std@@@std@@@std@@MBE?AV?$istreambuf_iterator@_WU?$char_traits@_W@std@@@2@V32@0AAVios_base@2@AAHAA_K@Z 1002bda6 f i libcpmt:wlocale.obj
 0001:0002ae71       ?do_get@?$num_get@_WV?$istreambuf_iterator@_WU?$char_traits@_W@std@@@std@@@std@@MBE?AV?$istreambuf_iterator@_WU?$char_traits@_W@std@@@2@V32@0AAVios_base@2@AAHAA_N@Z 1002be71 f i libcpmt:wlocale.obj
 0001:0002b0b6       ?do_get@?$time_get@GV?$istreambuf_iterator@GU?$char_traits@G@std@@@std@@@std@@MBE?AV?$istreambuf_iterator@GU?$char_traits@G@std@@@2@V32@0AAVios_base@2@AAHPAUtm@@DD@Z 1002c0b6 f i libcpmt:wlocale.obj
 0001:0002b477       ?do_get@?$time_get@_WV?$istreambuf_iterator@_WU?$char_traits@_W@std@@@std@@@std@@MBE?AV?$istreambuf_iterator@_WU?$char_traits@_W@std@@@2@V32@0AAVios_base@2@AAHPAUtm@@DD@Z 1002c477 f i libcpmt:wlocale.obj
 0001:0002b838       ?do_get_date@?$time_get@GV?$istreambuf_iterator@GU?$char_traits@G@std@@@std@@@std@@MBE?AV?$istreambuf_iterator@GU?$char_traits@G@std@@@2@V32@0AAVios_base@2@AAHPAUtm@@@Z 1002c838 f i libcpmt:wlocale.obj
 0001:0002bce3       ?do_get_date@?$time_get@_WV?$istreambuf_iterator@_WU?$char_traits@_W@std@@@std@@@std@@MBE?AV?$istreambuf_iterator@_WU?$char_traits@_W@std@@@2@V32@0AAVios_base@2@AAHPAUtm@@@Z 1002cce3 f i libcpmt:wlocale.obj
 0001:0002c18e       ?do_get_monthname@?$time_get@GV?$istreambuf_iterator@GU?$char_traits@G@std@@@std@@@std@@MBE?AV?$istreambuf_iterator@GU?$char_traits@G@std@@@2@V32@0AAVios_base@2@AAHPAUtm@@@Z 1002d18e f i libcpmt:wlocale.obj
 0001:0002c1d0       ?do_get_monthname@?$time_get@_WV?$istreambuf_iterator@_WU?$char_traits@_W@std@@@std@@@std@@MBE?AV?$istreambuf_iterator@_WU?$char_traits@_W@std@@@2@V32@0AAVios_base@2@AAHPAUtm@@@Z 1002d1d0 f i libcpmt:wlocale.obj
 0001:0002c212       ?do_get_time@?$time_get@GV?$istreambuf_iterator@GU?$char_traits@G@std@@@std@@@std@@MBE?AV?$istreambuf_iterator@GU?$char_traits@G@std@@@2@V32@0AAVios_base@2@AAHPAUtm@@@Z 1002d212 f i libcpmt:wlocale.obj
 0001:0002c334       ?do_get_time@?$time_get@_WV?$istreambuf_iterator@_WU?$char_traits@_W@std@@@std@@@std@@MBE?AV?$istreambuf_iterator@_WU?$char_traits@_W@std@@@2@V32@0AAVios_base@2@AAHPAUtm@@@Z 1002d334 f i libcpmt:wlocale.obj
 0001:0002c456       ?do_get_weekday@?$time_get@GV?$istreambuf_iterator@GU?$char_traits@G@std@@@std@@@std@@MBE?AV?$istreambuf_iterator@GU?$char_traits@G@std@@@2@V32@0AAVios_base@2@AAHPAUtm@@@Z 1002d456 f i libcpmt:wlocale.obj
 0001:0002c498       ?do_get_weekday@?$time_get@_WV?$istreambuf_iterator@_WU?$char_traits@_W@std@@@std@@@std@@MBE?AV?$istreambuf_iterator@_WU?$char_traits@_W@std@@@2@V32@0AAVios_base@2@AAHPAUtm@@@Z 1002d498 f i libcpmt:wlocale.obj
 0001:0002c4da       ?do_get_year@?$time_get@GV?$istreambuf_iterator@GU?$char_traits@G@std@@@std@@@std@@MBE?AV?$istreambuf_iterator@GU?$char_traits@G@std@@@2@V32@0AAVios_base@2@AAHPAUtm@@@Z 1002d4da f i libcpmt:wlocale.obj
 0001:0002c56f       ?do_get_year@?$time_get@_WV?$istreambuf_iterator@_WU?$char_traits@_W@std@@@std@@@std@@MBE?AV?$istreambuf_iterator@_WU?$char_traits@_W@std@@@2@V32@0AAVios_base@2@AAHPAUtm@@@Z 1002d56f f i libcpmt:wlocale.obj
 0001:0002c604       ?do_hash@?$collate@G@std@@MBEJPBG0@Z 1002d604 f i libcpmt:wlocale.obj
 0001:0002c604       ?do_hash@?$collate@_W@std@@MBEJPB_W0@Z 1002d604 f i libcpmt:wlocale.obj
 0001:0002c625       ?do_in@?$codecvt@GDU_Mbstatet@@@std@@MBEHAAU_Mbstatet@@PBD1AAPBDPAG3AAPAG@Z 1002d625 f i libcpmt:wlocale.obj
 0001:0002c696       ?do_is@?$ctype@G@std@@MBEPBGPBG0PAF@Z 1002d696 f i libcpmt:wlocale.obj
 0001:0002c6b2       ?do_is@?$ctype@G@std@@MBE_NFG@Z 1002d6b2 f i libcpmt:wlocale.obj
 0001:0002c6ce       ?do_length@?$codecvt@GDU_Mbstatet@@@std@@MBEHAAU_Mbstatet@@PBD1I@Z 1002d6ce f i libcpmt:wlocale.obj
 0001:0002c724       ?do_narrow@?$ctype@G@std@@MBEDGD@Z 1002d724 f i libcpmt:wlocale.obj
 0001:0002c72d       ?do_narrow@?$ctype@G@std@@MBEPBGPBG0DPAD@Z 1002d72d f i libcpmt:wlocale.obj
 0001:0002c762       ?do_neg_format@?$_Mpunct@D@std@@MBE?AUpattern@money_base@2@XZ 1002d762 f i libcpmt:xlocale.obj
 0001:0002c762       ?do_neg_format@?$_Mpunct@G@std@@MBE?AUpattern@money_base@2@XZ 1002d762 f i libcpmt:wlocale.obj
 0001:0002c762       ?do_neg_format@?$_Mpunct@_W@std@@MBE?AUpattern@money_base@2@XZ 1002d762 f i libcpmt:wlocale.obj
 0001:0002c771       ?do_negative_sign@?$_Mpunct@G@std@@MBE?AV?$basic_string@GU?$char_traits@G@std@@V?$allocator@G@2@@2@XZ 1002d771 f i libcpmt:wlocale.obj
 0001:0002c787       ?do_negative_sign@?$_Mpunct@_W@std@@MBE?AV?$basic_string@_WU?$char_traits@_W@std@@V?$allocator@_W@2@@2@XZ 1002d787 f i libcpmt:wlocale.obj
 0001:0002c79d       ?do_open@?$messages@D@std@@MBEHABV?$basic_string@DU?$char_traits@D@std@@V?$allocator@D@2@@2@ABVlocale@2@@Z 1002d79d f i libcpmt:xlocale.obj
 0001:0002c79d       ?do_open@?$messages@G@std@@MBEHABV?$basic_string@DU?$char_traits@D@std@@V?$allocator@D@2@@2@ABVlocale@2@@Z 1002d79d f i libcpmt:wlocale.obj
 0001:0002c79d       ?do_open@?$messages@_W@std@@MBEHABV?$basic_string@DU?$char_traits@D@std@@V?$allocator@D@2@@2@ABVlocale@2@@Z 1002d79d f i libcpmt:wlocale.obj
 0001:0002c7a3       ?do_out@?$codecvt@GDU_Mbstatet@@@std@@MBEHAAU_Mbstatet@@PBG1AAPBGPAD3AAPAD@Z 1002d7a3 f i libcpmt:wlocale.obj
 0001:0002c889       ?do_pos_format@?$_Mpunct@D@std@@MBE?AUpattern@money_base@2@XZ 1002d889 f i libcpmt:xlocale.obj
 0001:0002c889       ?do_pos_format@?$_Mpunct@G@std@@MBE?AUpattern@money_base@2@XZ 1002d889 f i libcpmt:wlocale.obj
 0001:0002c889       ?do_pos_format@?$_Mpunct@_W@std@@MBE?AUpattern@money_base@2@XZ 1002d889 f i libcpmt:wlocale.obj
 0001:0002c898       ?do_positive_sign@?$_Mpunct@G@std@@MBE?AV?$basic_string@GU?$char_traits@G@std@@V?$allocator@G@2@@2@XZ 1002d898 f i libcpmt:wlocale.obj
 0001:0002c898       ?do_truename@?$numpunct@G@std@@MBE?AV?$basic_string@GU?$char_traits@G@std@@V?$allocator@G@2@@2@XZ 1002d898 f i libcpmt:wlocale.obj
 0001:0002c8ae       ?do_positive_sign@?$_Mpunct@_W@std@@MBE?AV?$basic_string@_WU?$char_traits@_W@std@@V?$allocator@_W@2@@2@XZ 1002d8ae f i libcpmt:wlocale.obj
 0001:0002c8c4       ?do_put@?$money_put@GV?$ostreambuf_iterator@GU?$char_traits@G@std@@@std@@@std@@MBE?AV?$ostreambuf_iterator@GU?$char_traits@G@std@@@2@V32@_NAAVios_base@2@GABV?$basic_string@GU?$char_traits@G@std@@V?$allocator@G@2@@2@@Z 1002d8c4 f i libcpmt:wlocale.obj
 0001:0002ca06       ?do_put@?$money_put@GV?$ostreambuf_iterator@GU?$char_traits@G@std@@@std@@@std@@MBE?AV?$ostreambuf_iterator@GU?$char_traits@G@std@@@2@V32@_NAAVios_base@2@GO@Z 1002da06 f i libcpmt:wlocale.obj
 0001:0002cb7b       ?do_put@?$money_put@_WV?$ostreambuf_iterator@_WU?$char_traits@_W@std@@@std@@@std@@MBE?AV?$ostreambuf_iterator@_WU?$char_traits@_W@std@@@2@V32@_NAAVios_base@2@_WABV?$basic_string@_WU?$char_traits@_W@std@@V?$allocator@_W@2@@2@@Z 1002db7b f i libcpmt:wlocale.obj
 0001:0002ccbd       ?do_put@?$money_put@_WV?$ostreambuf_iterator@_WU?$char_traits@_W@std@@@std@@@std@@MBE?AV?$ostreambuf_iterator@_WU?$char_traits@_W@std@@@2@V32@_NAAVios_base@2@_WO@Z 1002dcbd f i libcpmt:wlocale.obj
 0001:0002ce32       ?do_put@?$num_put@GV?$ostreambuf_iterator@GU?$char_traits@G@std@@@std@@@std@@MBE?AV?$ostreambuf_iterator@GU?$char_traits@G@std@@@2@V32@AAVios_base@2@GJ@Z 1002de32 f i libcpmt:wlocale.obj
 0001:0002ce9d       ?do_put@?$num_put@GV?$ostreambuf_iterator@GU?$char_traits@G@std@@@std@@@std@@MBE?AV?$ostreambuf_iterator@GU?$char_traits@G@std@@@2@V32@AAVios_base@2@GK@Z 1002de9d f i libcpmt:wlocale.obj
 0001:0002cf08       ?do_put@?$num_put@GV?$ostreambuf_iterator@GU?$char_traits@G@std@@@std@@@std@@MBE?AV?$ostreambuf_iterator@GU?$char_traits@G@std@@@2@V32@AAVios_base@2@GN@Z 1002df08 f i libcpmt:wlocale.obj
 0001:0002d05e       ?do_put@?$num_put@GV?$ostreambuf_iterator@GU?$char_traits@G@std@@@std@@@std@@MBE?AV?$ostreambuf_iterator@GU?$char_traits@G@std@@@2@V32@AAVios_base@2@GO@Z 1002e05e f i libcpmt:wlocale.obj
 0001:0002d1b4       ?do_put@?$num_put@GV?$ostreambuf_iterator@GU?$char_traits@G@std@@@std@@@std@@MBE?AV?$ostreambuf_iterator@GU?$char_traits@G@std@@@2@V32@AAVios_base@2@GPBX@Z 1002e1b4 f i libcpmt:wlocale.obj
 0001:0002d20f       ?do_put@?$num_put@GV?$ostreambuf_iterator@GU?$char_traits@G@std@@@std@@@std@@MBE?AV?$ostreambuf_iterator@GU?$char_traits@G@std@@@2@V32@AAVios_base@2@G_J@Z 1002e20f f i libcpmt:wlocale.obj
 0001:0002d27d       ?do_put@?$num_put@GV?$ostreambuf_iterator@GU?$char_traits@G@std@@@std@@@std@@MBE?AV?$ostreambuf_iterator@GU?$char_traits@G@std@@@2@V32@AAVios_base@2@G_K@Z 1002e27d f i libcpmt:wlocale.obj
 0001:0002d2eb       ?do_put@?$num_put@GV?$ostreambuf_iterator@GU?$char_traits@G@std@@@std@@@std@@MBE?AV?$ostreambuf_iterator@GU?$char_traits@G@std@@@2@V32@AAVios_base@2@G_N@Z 1002e2eb f i libcpmt:wlocale.obj
 0001:0002d4a8       ?do_put@?$time_put@GV?$ostreambuf_iterator@GU?$char_traits@G@std@@@std@@@std@@MBE?AV?$ostreambuf_iterator@GU?$char_traits@G@std@@@2@V32@AAVios_base@2@GPBUtm@@DD@Z 1002e4a8 f i libcpmt:wlocale.obj
 0001:0002d629       ?do_put@?$time_put@_WV?$ostreambuf_iterator@_WU?$char_traits@_W@std@@@std@@@std@@MBE?AV?$ostreambuf_iterator@_WU?$char_traits@_W@std@@@2@V32@AAVios_base@2@_WPBUtm@@DD@Z 1002e629 f i libcpmt:wlocale.obj
 0001:0002d7aa       ?do_scan_is@?$ctype@G@std@@MBEPBGFPBG0@Z 1002e7aa f i libcpmt:wlocale.obj
 0001:0002d7e7       ?do_scan_not@?$ctype@G@std@@MBEPBGFPBG0@Z 1002e7e7 f i libcpmt:wlocale.obj
 0001:0002d824       ?do_tolower@?$ctype@G@std@@MBEGG@Z 1002e824 f i libcpmt:wlocale.obj
 0001:0002d839       ?do_tolower@?$ctype@G@std@@MBEPBGPAGPBG@Z 1002e839 f i libcpmt:wlocale.obj
 0001:0002d868       ?do_toupper@?$ctype@G@std@@MBEGG@Z 1002e868 f i libcpmt:wlocale.obj
 0001:0002d87d       ?do_toupper@?$ctype@G@std@@MBEPBGPAGPBG@Z 1002e87d f i libcpmt:wlocale.obj
 0001:0002d8ac       ?do_transform@?$collate@G@std@@MBE?AV?$basic_string@GU?$char_traits@G@std@@V?$allocator@G@2@@2@PBG0@Z 1002e8ac f i libcpmt:wlocale.obj
 0001:0002d934       ?do_transform@?$collate@_W@std@@MBE?AV?$basic_string@_WU?$char_traits@_W@std@@V?$allocator@_W@2@@2@PB_W0@Z 1002e934 f i libcpmt:wlocale.obj
 0001:0002d9bc       ?do_unshift@?$codecvt@GDU_Mbstatet@@@std@@MBEHAAU_Mbstatet@@PAD1AAPAD@Z 1002e9bc f i libcpmt:wlocale.obj
 0001:0002da4c       ?do_widen@?$ctype@G@std@@MBEGD@Z 1002ea4c f i libcpmt:wlocale.obj
 0001:0002da55       ?do_widen@?$ctype@G@std@@MBEPBDPBD0PAG@Z 1002ea55 f i libcpmt:wlocale.obj
 0001:0002da88       ?equal@?$istreambuf_iterator@GU?$char_traits@G@std@@@std@@QBE_NABV12@@Z 1002ea88 f i libcpmt:wlocale.obj
 0001:0002dac2       ?equal@?$istreambuf_iterator@_WU?$char_traits@_W@std@@@std@@QBE_NABV12@@Z 1002eac2 f i libcpmt:wlocale.obj
 0001:0002dafc       ?erase@?$basic_string@DU?$char_traits@D@std@@V?$allocator@D@2@@std@@QAEAAV12@I@Z 1002eafc f i libcpmt:wlocale.obj
 0001:0002db24       ?frac_digits@?$_Mpunct@D@std@@QBEHXZ 1002eb24 f i libcpmt:xlocale.obj
 0001:0002db24       ?frac_digits@?$_Mpunct@G@std@@QBEHXZ 1002eb24 f i libcpmt:wlocale.obj
 0001:0002db24       ?frac_digits@?$_Mpunct@_W@std@@QBEHXZ 1002eb24 f i libcpmt:wlocale.obj
 0001:0002db3c       ?get_monthname@?$time_get@DV?$istreambuf_iterator@DU?$char_traits@D@std@@@std@@@std@@QBE?AV?$istreambuf_iterator@DU?$char_traits@D@std@@@2@V32@0AAVios_base@2@AAHPAUtm@@@Z 1002eb3c f i libcpmt:xlocale.obj
 0001:0002db3c       ?get_monthname@?$time_get@GV?$istreambuf_iterator@GU?$char_traits@G@std@@@std@@@std@@QBE?AV?$istreambuf_iterator@GU?$char_traits@G@std@@@2@V32@0AAVios_base@2@AAHPAUtm@@@Z 1002eb3c f i libcpmt:wlocale.obj
 0001:0002db3c       ?get_monthname@?$time_get@_WV?$istreambuf_iterator@_WU?$char_traits@_W@std@@@std@@@std@@QBE?AV?$istreambuf_iterator@_WU?$char_traits@_W@std@@@2@V32@0AAVios_base@2@AAHPAUtm@@@Z 1002eb3c f i libcpmt:wlocale.obj
 0001:0002db74       ?get_weekday@?$time_get@DV?$istreambuf_iterator@DU?$char_traits@D@std@@@std@@@std@@QBE?AV?$istreambuf_iterator@DU?$char_traits@D@std@@@2@V32@0AAVios_base@2@AAHPAUtm@@@Z 1002eb74 f i libcpmt:xlocale.obj
 0001:0002db74       ?get_weekday@?$time_get@GV?$istreambuf_iterator@GU?$char_traits@G@std@@@std@@@std@@QBE?AV?$istreambuf_iterator@GU?$char_traits@G@std@@@2@V32@0AAVios_base@2@AAHPAUtm@@@Z 1002eb74 f i libcpmt:wlocale.obj
 0001:0002db74       ?get_weekday@?$time_get@_WV?$istreambuf_iterator@_WU?$char_traits@_W@std@@@std@@@std@@QBE?AV?$istreambuf_iterator@_WU?$char_traits@_W@std@@@2@V32@0AAVios_base@2@AAHPAUtm@@@Z 1002eb74 f i libcpmt:wlocale.obj
 0001:0002dbac       ?get_year@?$time_get@DV?$istreambuf_iterator@DU?$char_traits@D@std@@@std@@@std@@QBE?AV?$istreambuf_iterator@DU?$char_traits@D@std@@@2@V32@0AAVios_base@2@AAHPAUtm@@@Z 1002ebac f i libcpmt:xlocale.obj
 0001:0002dbac       ?get_year@?$time_get@GV?$istreambuf_iterator@GU?$char_traits@G@std@@@std@@@std@@QBE?AV?$istreambuf_iterator@GU?$char_traits@G@std@@@2@V32@0AAVios_base@2@AAHPAUtm@@@Z 1002ebac f i libcpmt:wlocale.obj
 0001:0002dbac       ?get_year@?$time_get@_WV?$istreambuf_iterator@_WU?$char_traits@_W@std@@@std@@@std@@QBE?AV?$istreambuf_iterator@_WU?$char_traits@_W@std@@@2@V32@0AAVios_base@2@AAHPAUtm@@@Z 1002ebac f i libcpmt:wlocale.obj
 0001:0002dbe4       ?insert@?$basic_string@GU?$char_traits@G@std@@V?$allocator@G@2@@std@@QAEAAV12@IIG@Z 1002ebe4 f i libcpmt:wlocale.obj
 0001:0002dc5a       ?name@locale@std@@QBE?AV?$basic_string@DU?$char_traits@D@std@@V?$allocator@D@2@@2@XZ 1002ec5a f i libcpmt:wlocale.obj
 0001:0002dd05       ?push_back@?$basic_string@GU?$char_traits@G@std@@V?$allocator@G@2@@std@@QAEXG@Z 1002ed05 f i libcpmt:wlocale.obj
 0001:0002dd41       ?resize@?$basic_string@GU?$char_traits@G@std@@V?$allocator@G@2@@std@@QAEXIG@Z 1002ed41 f i libcpmt:wlocale.obj
 0001:0002dd64       ?resize@?$basic_string@_WU?$char_traits@_W@std@@V?$allocator@_W@2@@std@@QAEXI_W@Z 1002ed64 f i libcpmt:wlocale.obj
 0001:0002dd87       ?sbumpc@?$basic_streambuf@GU?$char_traits@G@std@@@std@@QAEGXZ 1002ed87 f i libcpmt:wlocale.obj
 0001:0002ddc3       ?sgetc@?$basic_streambuf@GU?$char_traits@G@std@@@std@@QAEGXZ 1002edc3 f i libcpmt:wlocale.obj
 0001:0002ddf4       ?sputc@?$basic_streambuf@GU?$char_traits@G@std@@@std@@QAEGG@Z 1002edf4 f i libcpmt:wlocale.obj
 0001:0002de3c       ?widen@?$ctype@G@std@@QBEPBDPBD0PAG@Z 1002ee3c f i libcpmt:wlocale.obj
 0001:0002de63       ??$_Copy_unchecked@PADV?$ostreambuf_iterator@DU?$char_traits@D@std@@@std@@@std@@YA?AV?$ostreambuf_iterator@DU?$char_traits@D@std@@@0@PAD0V10@@Z 1002ee63 f i libcpmt:xlocale.obj
 0001:0002de8f       ??$_Getvals@D@?$_Mpunct@D@std@@IAEXDPBUlconv@@@Z 1002ee8f f i libcpmt:xlocale.obj
 0001:0002df0b       ??$_Getvals@D@?$time_get@DV?$istreambuf_iterator@DU?$char_traits@D@std@@@std@@@std@@IAEXDABV_Locinfo@1@@Z 1002ef0b f i libcpmt:xlocale.obj
 0001:0002df76       ??$copy@PADV?$ostreambuf_iterator@DU?$char_traits@D@std@@@std@@@std@@YA?AV?$ostreambuf_iterator@DU?$char_traits@D@std@@@0@PAD0V10@@Z 1002ef76 f i libcpmt:xlocale.obj
 0001:0002dfa2       ??$use_facet@V?$collate@D@std@@@std@@YAABV?$collate@D@0@ABVlocale@0@@Z 1002efa2 f i libcpmt:xlocale.obj
 0001:0002e037       ??$use_facet@V?$messages@D@std@@@std@@YAABV?$messages@D@0@ABVlocale@0@@Z 1002f037 f i libcpmt:xlocale.obj
 0001:0002e0cc       ??$use_facet@V?$money_get@DV?$istreambuf_iterator@DU?$char_traits@D@std@@@std@@@std@@@std@@YAABV?$money_get@DV?$istreambuf_iterator@DU?$char_traits@D@std@@@std@@@0@ABVlocale@0@@Z 1002f0cc f i libcpmt:xlocale.obj
 0001:0002e161       ??$use_facet@V?$money_put@DV?$ostreambuf_iterator@DU?$char_traits@D@std@@@std@@@std@@@std@@YAABV?$money_put@DV?$ostreambuf_iterator@DU?$char_traits@D@std@@@std@@@0@ABVlocale@0@@Z 1002f161 f i libcpmt:xlocale.obj
 0001:0002e1f6       ??$use_facet@V?$moneypunct@D$00@std@@@std@@YAABV?$moneypunct@D$00@0@ABVlocale@0@@Z 1002f1f6 f i libcpmt:xlocale.obj
 0001:0002e28b       ??$use_facet@V?$moneypunct@D$0A@@std@@@std@@YAABV?$moneypunct@D$0A@@0@ABVlocale@0@@Z 1002f28b f i libcpmt:xlocale.obj
 0001:0002e320       ??$use_facet@V?$time_get@DV?$istreambuf_iterator@DU?$char_traits@D@std@@@std@@@std@@@std@@YAABV?$time_get@DV?$istreambuf_iterator@DU?$char_traits@D@std@@@std@@@0@ABVlocale@0@@Z 1002f320 f i libcpmt:xlocale.obj
 0001:0002e3b5       ??$use_facet@V?$time_put@DV?$ostreambuf_iterator@DU?$char_traits@D@std@@@std@@@std@@@std@@YAABV?$time_put@DV?$ostreambuf_iterator@DU?$char_traits@D@std@@@std@@@0@ABVlocale@0@@Z 1002f3b5 f i libcpmt:xlocale.obj
 0001:0002e44a       ??0?$time_get@DV?$istreambuf_iterator@DU?$char_traits@D@std@@@std@@@std@@QAE@ABV_Locinfo@1@I@Z 1002f44a f i libcpmt:xlocale.obj
 0001:0002e47d       ??1?$collate@D@std@@MAE@XZ 1002f47d f i libcpmt:xlocale.obj
 0001:0002e497       ??1?$time_put@DV?$ostreambuf_iterator@DU?$char_traits@D@std@@@std@@@std@@MAE@XZ 1002f497 f i libcpmt:xlocale.obj
 0001:0002e4b1       ??_E?$_Mpunct@D@std@@MAEPAXI@Z 1002f4b1 f i libcpmt:xlocale.obj
 0001:0002e4b1       ??_E?$moneypunct@D$00@std@@MAEPAXI@Z 1002f4b1 f i libcpmt:xlocale.obj
 0001:0002e4b1       ??_E?$moneypunct@D$0A@@std@@MAEPAXI@Z 1002f4b1 f i libcpmt:xlocale.obj
 0001:0002e4b1       ??_G?$_Mpunct@D@std@@MAEPAXI@Z 1002f4b1 f i libcpmt:xlocale.obj
 0001:0002e4b1       ??_G?$moneypunct@D$00@std@@MAEPAXI@Z 1002f4b1 f i libcpmt:xlocale.obj
 0001:0002e4b1       ??_G?$moneypunct@D$0A@@std@@MAEPAXI@Z 1002f4b1 f i libcpmt:xlocale.obj
 0001:0002e4df       ??_E?$collate@D@std@@MAEPAXI@Z 1002f4df f i libcpmt:xlocale.obj
 0001:0002e4df       ??_G?$collate@D@std@@MAEPAXI@Z 1002f4df f i libcpmt:xlocale.obj
 0001:0002e501       ??_E?$time_get@DV?$istreambuf_iterator@DU?$char_traits@D@std@@@std@@@std@@MAEPAXI@Z 1002f501 f i libcpmt:xlocale.obj
 0001:0002e501       ??_G?$time_get@DV?$istreambuf_iterator@DU?$char_traits@D@std@@@std@@@std@@MAEPAXI@Z 1002f501 f i libcpmt:xlocale.obj
 0001:0002e52f       ??_E?$time_put@DV?$ostreambuf_iterator@DU?$char_traits@D@std@@@std@@@std@@MAEPAXI@Z 1002f52f f i libcpmt:xlocale.obj
 0001:0002e52f       ??_G?$time_put@DV?$ostreambuf_iterator@DU?$char_traits@D@std@@@std@@@std@@MAEPAXI@Z 1002f52f f i libcpmt:xlocale.obj
 0001:0002e551       ?_Getcat@?$collate@D@std@@SAIPAPBVfacet@locale@2@PBV42@@Z 1002f551 f i libcpmt:xlocale.obj
 0001:0002e5f3       ?_Getcat@?$messages@D@std@@SAIPAPBVfacet@locale@2@PBV42@@Z 1002f5f3 f i libcpmt:xlocale.obj
 0001:0002e65b       ?_Getcat@?$money_get@DV?$istreambuf_iterator@DU?$char_traits@D@std@@@std@@@std@@SAIPAPBVfacet@locale@2@PBV42@@Z 1002f65b f i libcpmt:xlocale.obj
 0001:0002e6c3       ?_Getcat@?$money_put@DV?$ostreambuf_iterator@DU?$char_traits@D@std@@@std@@@std@@SAIPAPBVfacet@locale@2@PBV42@@Z 1002f6c3 f i libcpmt:xlocale.obj
 0001:0002e72b       ?_Getcat@?$moneypunct@D$00@std@@SAIPAPBVfacet@locale@2@PBV42@@Z 1002f72b f i libcpmt:xlocale.obj
 0001:0002e7af       ?_Getcat@?$moneypunct@D$0A@@std@@SAIPAPBVfacet@locale@2@PBV42@@Z 1002f7af f i libcpmt:xlocale.obj
 0001:0002e834       ?_Getcat@?$time_get@DV?$istreambuf_iterator@DU?$char_traits@D@std@@@std@@@std@@SAIPAPBVfacet@locale@2@PBV42@@Z 1002f834 f i libcpmt:xlocale.obj
 0001:0002e8a0       ?_Getcat@?$time_put@DV?$ostreambuf_iterator@DU?$char_traits@D@std@@@std@@@std@@SAIPAPBVfacet@locale@2@PBV42@@Z 1002f8a0 f i libcpmt:xlocale.obj
 0001:0002e914       ?_Getfmt@?$time_get@DV?$istreambuf_iterator@DU?$char_traits@D@std@@@std@@@std@@IBE?AV?$istreambuf_iterator@DU?$char_traits@D@std@@@2@V32@0AAVios_base@2@AAHPAUtm@@PBD@Z 1002f914 f i libcpmt:xlocale.obj
 0001:0002ea44       ?_Getint@?$time_get@DV?$istreambuf_iterator@DU?$char_traits@D@std@@@std@@@std@@ABAHAAV?$istreambuf_iterator@DU?$char_traits@D@std@@@2@0HHAAHABV?$ctype@D@2@@Z 1002fa44 f i libcpmt:xlocale.obj
 0001:0002ec5d       ?_Getmfld@?$money_get@DV?$istreambuf_iterator@DU?$char_traits@D@std@@@std@@@std@@ABE?AV?$basic_string@DU?$char_traits@D@std@@V?$allocator@D@2@@2@AAV?$istreambuf_iterator@DU?$char_traits@D@std@@@2@0_NAAVios_base@2@AAY0M@D@Z 1002fc5d f i libcpmt:xlocale.obj
 0001:0002f77a       ?_Init@?$_Mpunct@D@std@@IAEXABV_Locinfo@2@_N@Z 1003077a f i libcpmt:xlocale.obj
 0001:0002f845       ?_Init@?$time_get@DV?$istreambuf_iterator@DU?$char_traits@D@std@@@std@@@std@@IAEXABV_Locinfo@2@@Z 10030845 f i libcpmt:xlocale.obj
 0001:0002f87d       ?_Init@?$time_put@DV?$ostreambuf_iterator@DU?$char_traits@D@std@@@std@@@std@@IAEXABV_Locinfo@2@@Z 1003087d f i libcpmt:xlocale.obj
 0001:0002f8a6       ?_Makexloc@_Locimp@locale@std@@CAXABV_Locinfo@3@HPAV123@PBV23@@Z 100308a6 f   libcpmt:xlocale.obj
 0001:0002fbb2       ?_Put@?$money_put@DV?$ostreambuf_iterator@DU?$char_traits@D@std@@@std@@@std@@CA?AV?$ostreambuf_iterator@DU?$char_traits@D@std@@@2@V32@V?$_String_const_iterator@V?$_String_val@U?$_Simple_types@D@std@@@std@@@2@I@Z 10030bb2 f i libcpmt:xlocale.obj
 0001:0002fbe9       ?_Putmfld@?$money_put@DV?$ostreambuf_iterator@DU?$char_traits@D@std@@@std@@@std@@ABE?AV?$ostreambuf_iterator@DU?$char_traits@D@std@@@2@V32@_NAAVios_base@2@D1V?$basic_string@DU?$char_traits@D@std@@V?$allocator@D@2@@2@D@Z 10030be9 f i libcpmt:xlocale.obj
 0001:000301d9       ?_Rep@?$money_put@DV?$ostreambuf_iterator@DU?$char_traits@D@std@@@std@@@std@@CA?AV?$ostreambuf_iterator@DU?$char_traits@D@std@@@2@V32@DI@Z 100311d9 f i libcpmt:xlocale.obj
 0001:00030205       ?do_compare@?$collate@D@std@@MBEHPBD000@Z 10031205 f i libcpmt:xlocale.obj
 0001:00030236       ?do_get@?$messages@D@std@@MBE?AV?$basic_string@DU?$char_traits@D@std@@V?$allocator@D@2@@2@HHHABV32@@Z 10031236 f i libcpmt:xlocale.obj
 0001:00030259       ?do_get@?$money_get@DV?$istreambuf_iterator@DU?$char_traits@D@std@@@std@@@std@@MBE?AV?$istreambuf_iterator@DU?$char_traits@D@std@@@2@V32@0_NAAVios_base@2@AAHAAO@Z 10031259 f i libcpmt:xlocale.obj
 0001:00030301       ?do_get@?$money_get@DV?$istreambuf_iterator@DU?$char_traits@D@std@@@std@@@std@@MBE?AV?$istreambuf_iterator@DU?$char_traits@D@std@@@2@V32@0_NAAVios_base@2@AAHAAV?$basic_string@DU?$char_traits@D@std@@V?$allocator@D@2@@2@@Z 10031301 f i libcpmt:xlocale.obj
 0001:000303d3       ?do_get@?$time_get@DV?$istreambuf_iterator@DU?$char_traits@D@std@@@std@@@std@@MBE?AV?$istreambuf_iterator@DU?$char_traits@D@std@@@2@V32@0AAVios_base@2@AAHPAUtm@@DD@Z 100313d3 f i libcpmt:xlocale.obj
 0001:00030794       ?do_get_date@?$time_get@DV?$istreambuf_iterator@DU?$char_traits@D@std@@@std@@@std@@MBE?AV?$istreambuf_iterator@DU?$char_traits@D@std@@@2@V32@0AAVios_base@2@AAHPAUtm@@@Z 10031794 f i libcpmt:xlocale.obj
 0001:00030c1b       ?do_get_monthname@?$time_get@DV?$istreambuf_iterator@DU?$char_traits@D@std@@@std@@@std@@MBE?AV?$istreambuf_iterator@DU?$char_traits@D@std@@@2@V32@0AAVios_base@2@AAHPAUtm@@@Z 10031c1b f i libcpmt:xlocale.obj
 0001:00030c5d       ?do_get_time@?$time_get@DV?$istreambuf_iterator@DU?$char_traits@D@std@@@std@@@std@@MBE?AV?$istreambuf_iterator@DU?$char_traits@D@std@@@2@V32@0AAVios_base@2@AAHPAUtm@@@Z 10031c5d f i libcpmt:xlocale.obj
 0001:00030d7f       ?do_get_weekday@?$time_get@DV?$istreambuf_iterator@DU?$char_traits@D@std@@@std@@@std@@MBE?AV?$istreambuf_iterator@DU?$char_traits@D@std@@@2@V32@0AAVios_base@2@AAHPAUtm@@@Z 10031d7f f i libcpmt:xlocale.obj
 0001:00030dc1       ?do_get_year@?$time_get@DV?$istreambuf_iterator@DU?$char_traits@D@std@@@std@@@std@@MBE?AV?$istreambuf_iterator@DU?$char_traits@D@std@@@2@V32@0AAVios_base@2@AAHPAUtm@@@Z 10031dc1 f i libcpmt:xlocale.obj
 0001:00030e56       ?do_hash@?$collate@D@std@@MBEJPBD0@Z 10031e56 f i libcpmt:xlocale.obj
 0001:00030e74       ?do_negative_sign@?$_Mpunct@D@std@@MBE?AV?$basic_string@DU?$char_traits@D@std@@V?$allocator@D@2@@2@XZ 10031e74 f i libcpmt:xlocale.obj
 0001:00030e8a       ?do_put@?$money_put@DV?$ostreambuf_iterator@DU?$char_traits@D@std@@@std@@@std@@MBE?AV?$ostreambuf_iterator@DU?$char_traits@D@std@@@2@V32@_NAAVios_base@2@DABV?$basic_string@DU?$char_traits@D@std@@V?$allocator@D@2@@2@@Z 10031e8a f i libcpmt:xlocale.obj
 0001:00030fc6       ?do_put@?$money_put@DV?$ostreambuf_iterator@DU?$char_traits@D@std@@@std@@@std@@MBE?AV?$ostreambuf_iterator@DU?$char_traits@D@std@@@2@V32@_NAAVios_base@2@DO@Z 10031fc6 f i libcpmt:xlocale.obj
 0001:00031139       ?do_put@?$time_put@DV?$ostreambuf_iterator@DU?$char_traits@D@std@@@std@@@std@@MBE?AV?$ostreambuf_iterator@DU?$char_traits@D@std@@@2@V32@AAVios_base@2@DPBUtm@@DD@Z 10032139 f i libcpmt:xlocale.obj
 0001:00031299       ?do_transform@?$collate@D@std@@MBE?AV?$basic_string@DU?$char_traits@D@std@@V?$allocator@D@2@@2@PBD0@Z 10032299 f i libcpmt:xlocale.obj
 0001:0003131f       __Stolx                    1003231f f   libcpmt:xstol.obj
 0001:000313c3       __Stoulx                   100323c3 f   libcpmt:xstoul.obj
 0001:00031535       __Stollx                   10032535 f   libcpmt:xstoll.obj
 0001:00031600       __Stoullx                  10032600 f   libcpmt:xstoull.obj
 0001:000317c3       ??1_Init_atexit@@QAE@XZ    100327c3 f i libcpmt:iosptrs.obj
 0001:0003182b       ?_Atexit@@YAXP6AXXZ@Z      1003282b f   libcpmt:iosptrs.obj
 0001:00031b14       ___crtGetSystemTimePreciseAsFileTime 10032b14 f   libcpmt:winapisupp.obj
 0001:00031b3a       ___crtTryAcquireSRWLockExclusive 10032b3a f   libcpmt:winapisupp.obj
 0001:00031b54       ___crtLCMapStringW         10032b54 f   libcpmt:StlLCMapStringW.obj
 0001:00031b91       ??1?$__crt_scoped_stack_ptr@_W@@QAE@XZ 10032b91 f i libcpmt:StlLCMapStringA.obj
 0001:00031baa       ___crtLCMapStringA         10032baa f   libcpmt:StlLCMapStringA.obj
 0001:00031d76       __freea_crt                10032d76 f i libcpmt:StlLCMapStringA.obj
 0001:00031d94       __Getcoll                  10032d94 f   libcpmt:xstrcoll.obj
 0001:00031db5       __Strcoll                  10032db5 f   libcpmt:xstrcoll.obj
 0001:00031e48       __Getdateorder             10032e48 f   libcpmt:xdateord.obj
 0001:00031e8b       __Wcscoll                  10032e8b f   libcpmt:xwcscoll.obj
 0001:00031f13       _wmemcmp                   10032f13 f i libcpmt:xwcscoll.obj
 0001:00031f50       __Wcsxfrm                  10032f50 f   libcpmt:xwcsxfrm.obj
 0001:0003201a       __Strxfrm                  1003301a f   libcpmt:xstrxfrm.obj
 0001:000320c4       ___crtCompareStringA       100330c4 f   libcpmt:StlCompareStringA.obj
 0001:0003232a       ___crtCompareStringW       1003332a f   libcpmt:StlCompareStringW.obj
 0001:0003238e       ??3@YAXPAX@Z               1003338e f   LIBCMT:delete_scalar.obj
 0001:00032393       ??_V@YAXPAX@Z              10033393 f   LIBCMT:delete_array.obj
 0001:00032398       ??2@YAPAXI@Z               10033398 f   LIBCMT:new_scalar.obj
 0001:000323c8       ??2@YAPAXIABUnothrow_t@std@@@Z 100333c8 f   LIBCMT:new_scalar_nothrow.obj
 0001:00032461       ___scrt_acquire_startup_lock 10033461 f   LIBCMT:utility.obj
 0001:00032493       ___scrt_dllmain_after_initialize_c 10033493 f   LIBCMT:utility.obj
 0001:000324be       ___scrt_dllmain_before_initialize_c 100334be f   LIBCMT:utility.obj
 0001:000324cc       ___scrt_dllmain_crt_thread_attach 100334cc f   LIBCMT:utility.obj
 0001:000324eb       ___scrt_dllmain_crt_thread_detach 100334eb f   LIBCMT:utility.obj
 0001:000324f8       ___scrt_dllmain_exception_filter 100334f8 f   LIBCMT:utility.obj
 0001:0003252c       ___scrt_dllmain_uninitialize_c 1003352c f   LIBCMT:utility.obj
 0001:0003254f       ___scrt_dllmain_uninitialize_critical 1003354f f   LIBCMT:utility.obj
 0001:0003255c       ___scrt_initialize_crt     1003355c f   LIBCMT:utility.obj
 0001:00032595       ___scrt_initialize_onexit_tables 10033595 f   LIBCMT:utility.obj
 0001:0003261c       ___scrt_is_nonwritable_in_current_image 1003361c f   LIBCMT:utility.obj
 0001:000326b0       ___scrt_release_startup_lock 100336b0 f   LIBCMT:utility.obj
 0001:000326cd       ___scrt_uninitialize_crt   100336cd f   LIBCMT:utility.obj
 0001:000326f5       __onexit                   100336f5 f   LIBCMT:utility.obj
 0001:00032722       _atexit                    10033722 f   LIBCMT:utility.obj
 0001:00032737       ??3@YAXPAXI@Z              10033737 f   LIBCMT:delete_scalar_size.obj
 0001:00032745       ??_U@YAPAXI@Z              10033745 f   LIBCMT:new_array.obj
 0001:0003274e       ??_Etype_info@@UAEPAXI@Z   1003374e f i LIBCMT:std_type_info_static.obj
 0001:0003274e       ??_Gtype_info@@UAEPAXI@Z   1003374e f i LIBCMT:std_type_info_static.obj
 0001:00032ab1       __DllMainCRTStartup@12     10033ab1 f   LIBCMT:dll_dllmain.obj
 0001:00032ad4       @__security_check_cookie@4 10033ad4 f   LIBCMT:secchk.obj
 0001:00032ae2       __EH_epilog3               10033ae2 f   LIBCMT:ehprolg3.obj
 0001:00032af6       __EH_epilog3_GS            10033af6 f   LIBCMT:ehprolg3.obj
 0001:00032b05       __EH_prolog3               10033b05 f   LIBCMT:ehprolg3.obj
 0001:00032b38       __EH_prolog3_GS            10033b38 f   LIBCMT:ehprolg3.obj
 0001:00032b6e       __EH_prolog3_catch         10033b6e f   LIBCMT:ehprolg3.obj
 0001:00032bb0       __aulldiv                  10033bb0 f   LIBCMT:ulldiv.obj
 0001:00032c20       __aullrem                  10033c20 f   LIBCMT:ullrem.obj
 0001:00032ca0       __allmul                   10033ca0 f   LIBCMT:llmul.obj
 0001:00032ce0       __alloca_probe_16          10033ce0 f   LIBCMT:alloca16.obj
 0001:00032cf6       __alloca_probe_8           10033cf6     LIBCMT:alloca16.obj
 0001:00032d0c       ___isa_available_init      10033d0c f   LIBCMT:cpu_disp.obj
 0001:00032ee0       __get_startup_argv_mode    10033ee0 f   LIBCMT:argv_mode.obj
 0001:00032ee4       ___scrt_is_ucrt_dll_in_use 10033ee4 f   LIBCMT:ucrt_detection.obj
 0001:00032ef0       ___scrt_fastfail           10033ef0 f   LIBCMT:utility_desktop.obj
 0001:0003300b       __crt_debugger_hook        1003400b f   LIBCMT:utility_desktop.obj
 0001:00033020       __SEH_prolog4              10034020 f   LIBCMT:sehprolg4.obj
 0001:000330b2       ___security_init_cookie    100340b2 f   LIBCMT:gs_support.obj
 0001:000330fd       ?__scrt_initialize_type_info@@YAXXZ 100340fd f   LIBCMT:tncleanup.obj
 0001:00033109       ?__scrt_uninitialize_type_info@@YAXXZ 10034109 f   LIBCMT:tncleanup.obj
 0001:00033115       ___local_stdio_scanf_options 10034115 f i LIBCMT:default_local_stdio_options.obj
 0001:0003311b       ___scrt_initialize_default_local_stdio_options 1003411b f   LIBCMT:default_local_stdio_options.obj
 0001:00033138       ___scrt_get_dyn_tls_init_callback 10034138 f   LIBCMT:dyn_tls_init.obj
 0001:0003313e       __RTC_Initialize           1003413e f   LIBCMT:initsect.obj
 0001:0003316a       __RTC_Terminate            1003416a f   LIBCMT:initsect.obj
 0001:00033196       ___raise_securityfailure   10034196 f   LIBCMT:gs_report.obj
 0001:000331be       ___report_gsfailure        100341be f   LIBCMT:gs_report.obj
 0001:000332b8       ___report_rangecheckfailure 100342b8 f   LIBCMT:gs_report.obj
 0001:000332c4       ___report_securityfailure  100342c4 f   LIBCMT:gs_report.obj
 0001:000333a0       __alloca_probe             100343a0 f   LIBCMT:chkstk.obj
 0001:000333a0       __chkstk                   100343a0 f   LIBCMT:chkstk.obj
 0001:000333cb       ?GetRangeOfTrysToCheck@__FrameHandler3@@SA?AU?$pair@Viterator@TryBlockMap@__FrameHandler3@@V123@@std@@AAVTryBlockMap@1@HPAXPBU_s_FuncInfo@@H@Z 100343cb f   libvcruntime:trnsctrl.obj
 0001:0003343b       ?_CallCatchBlock2@@YAPAXPAUEHRegistrationNode@@PBU_s_FuncInfo@@PAXHK@Z 1003443b f   libvcruntime:trnsctrl.obj
 0001:00033498       ?_CallSETranslator@@YAHPAUEHExceptionRecord@@PAUEHRegistrationNode@@PAX2PBU_s_FuncInfo@@H1@Z 10034498 f   libvcruntime:trnsctrl.obj
 0001:0003358e       ?_JumpToContinuation@@YGXPAXPAUEHRegistrationNode@@@Z 1003458e f   libvcruntime:trnsctrl.obj
 0001:000335be       ?_UnwindNestedFrames@@YGXPAUEHRegistrationNode@@PAUEHExceptionRecord@@@Z 100345be f   libvcruntime:trnsctrl.obj
 0001:00033611       __CatchGuardHandler        10034611 f   libvcruntime:trnsctrl.obj
 0001:00033642       __CreateFrameInfo          10034642 f   libvcruntime:trnsctrl.obj
 0001:00033666       __FindAndUnlinkFrame       10034666 f   libvcruntime:trnsctrl.obj
 0001:000336ae       __TranslatorGuardHandler   100346ae f   libvcruntime:trnsctrl.obj
 0001:0003374b       ___CxxFrameHandler3        1003474b f   libvcruntime:trnsctrl.obj
 0001:000337d0       __except_handler4          100347d0 f   libvcruntime:chandler4.obj
 0001:0003392e       ___std_exception_copy      1003492e f   libvcruntime:std_exception.obj
 0001:00033991       ___std_exception_destroy   10034991 f   libvcruntime:std_exception.obj
 0001:000339b0       __get_purecall_handler     100349b0 f   libvcruntime:purevirt.obj
 0001:000339b7       __purecall                 100349b7 f   libvcruntime:purevirt.obj
 0001:000339e0       _memcpy                    100349e0 f   libvcruntime:memcpy.obj
 0001:000339e0       _memmove                   100349e0 f   libvcruntime:memmove.obj
 0001:00033f60       _memset                    10034f60 f   libvcruntime:memset.obj
 0001:000340ba       __CxxThrowException@8      100350ba f   libvcruntime:throw.obj
 0001:00034126       ___DestructExceptionObject 10035126 f   libvcruntime:ehhelpers.obj
 0001:000341c7       ?_CallMemberFunction0@@YGXQAX0@Z 100351c7 f i libvcruntime:ehhelpers.obj
 0001:0003422c       __IsExceptionObjectToBeDestroyed 1003522c f   libvcruntime:ehhelpers.obj
 0001:00034252       ___AdjustPointer           10035252 f   libvcruntime:ehhelpers.obj
 0001:00034277       ___FrameUnwindFilter       10035277 f   libvcruntime:ehhelpers.obj
 0001:000342cd       ___std_terminate           100352cd f   libvcruntime:ehhelpers.obj
 0001:000342e0       _memchr                    100352e0 f   libvcruntime:memchr.obj
 0001:00034390       ___uncaught_exception      10035390 f   libvcruntime:uncaught_exception.obj
 0001:000343a4       _memcmp                    100353a4 f   libvcruntime:memcmp.obj
 0001:00035a20       ___vcrt_initialize         10036a20 f   libvcruntime:initialization.obj
 0001:00035a3f       ___vcrt_thread_attach      10036a3f f   libvcruntime:initialization.obj
 0001:00035a4a       ___vcrt_thread_detach      10036a4a f   libvcruntime:initialization.obj
 0001:00035a55       ___vcrt_uninitialize       10036a55 f   libvcruntime:initialization.obj
 0001:00035a6c       ___vcrt_uninitialize_critical 10036a6c f   libvcruntime:initialization.obj
 0001:00035a74       ___std_type_info_compare   10036a74 f   libvcruntime:std_type_info.obj
 0001:00035ab0       ___std_type_info_destroy_list 10036ab0 f   libvcruntime:std_type_info.obj
 0001:00035ad3       ___vcrt_freefls@4          10036ad3 f   libvcruntime:per_thread_data.obj
 0001:00035aef       ___vcrt_freeptd            10036aef f   libvcruntime:per_thread_data.obj
 0001:00035b25       ___vcrt_getptd             10036b25 f   libvcruntime:per_thread_data.obj
 0001:00035b33       ___vcrt_getptd_noexit      10036b33 f   libvcruntime:per_thread_data.obj
 0001:00035bc5       ___vcrt_getptd_noinit      10036bc5 f   libvcruntime:per_thread_data.obj
 0001:00035bfc       ___vcrt_initialize_ptd     10036bfc f   libvcruntime:per_thread_data.obj
 0001:00035c2f       ___vcrt_uninitialize_ptd   10036c2f f   libvcruntime:per_thread_data.obj
 0001:0003637c       ??$TypeMatchHelper@V__FrameHandler3@@@@YAHPBU_s_HandlerType@@PBU_s_CatchableType@@PBU_s_ThrowInfo@@@Z 1003737c f i libvcruntime:frame.obj
 0001:0003640a       ??$__InternalCxxFrameHandler@V__FrameHandler3@@@@YA?AW4_EXCEPTION_DISPOSITION@@PAUEHExceptionRecord@@PAUEHRegistrationNode@@PAU_CONTEXT@@PAXPBU_s_FuncInfo@@H1E@Z 1003740a f i libvcruntime:frame.obj
 0001:0003650c       ??0bad_exception@std@@QAE@ABV01@@Z 1003750c f i libvcruntime:frame.obj
 0001:00036527       ??0bad_exception@std@@QAE@XZ 10037527 f i libvcruntime:frame.obj
 0001:0003653f       ??8type_info@@QBE_NABV0@@Z 1003753f f i libvcruntime:frame.obj
 0001:000367b6       ?FrameUnwindToEmptyState@__FrameHandler3@@SAXPAUEHRegistrationNode@@PAXPBU_s_FuncInfo@@@Z 100377b6 f   libvcruntime:frame.obj
 0001:000367ce       ?FrameUnwindToState@__FrameHandler3@@SAXPAUEHRegistrationNode@@PAXPBU_s_FuncInfo@@H@Z 100377ce f   libvcruntime:frame.obj
 0001:00036950       ?_CallMemberFunction1@@YGXQAX00@Z 10037950 f i libvcruntime:frame.obj
 0001:00036960       ?_CallMemberFunction2@@YGXQAX00H@Z 10037960 f i libvcruntime:frame.obj
 0001:00036973       ?getESTypes@__FrameHandler3@@SAPBU_s_ESTypeList@@PBU_s_FuncInfo@@@Z 10037973 f i libvcruntime:frame.obj
 0001:00036980       __CallSettingFrame@12      10037980 f   libvcruntime:lowhelpr.obj
 0001:000369a7       __NLG_Return               100379a7     libvcruntime:lowhelpr.obj
 0001:000369cc       ___except_validate_context_record 100379cc f   libvcruntime:jbcxrval.obj
 0001:00036a00       __local_unwind4            10037a00 f   libvcruntime:exsup4.obj
 0001:00036af0       @_EH4_CallFilterFunc@8     10037af0 f   libvcruntime:exsup4.obj
 0001:00036b10       @_EH4_TransferToHandler@8  10037b10 f   libvcruntime:exsup4.obj
 0001:00036b30       @_EH4_GlobalUnwind2@8      10037b30 f   libvcruntime:exsup4.obj
 0001:00036b50       @_EH4_LocalUnwind@16       10037b50 f   libvcruntime:exsup4.obj
 0001:00036b67       ___vcrt_initialize_locks   10037b67 f   libvcruntime:locks.obj
 0001:00036ba3       ___vcrt_uninitialize_locks 10037ba3 f   libvcruntime:locks.obj
 0001:00036cb7       ___vcrt_FlsAlloc           10037cb7 f   libvcruntime:winapi_downlevel.obj
 0001:00036cf2       ___vcrt_FlsFree            10037cf2 f   libvcruntime:winapi_downlevel.obj
 0001:00036d2d       ___vcrt_FlsGetValue        10037d2d f   libvcruntime:winapi_downlevel.obj
 0001:00036d68       ___vcrt_FlsSetValue        10037d68 f   libvcruntime:winapi_downlevel.obj
 0001:00036da6       ___vcrt_InitializeCriticalSectionEx 10037da6 f   libvcruntime:winapi_downlevel.obj
 0001:00036ded       _unexpected                10037ded f   libvcruntime:unexpected.obj
 0001:00036e0a       ?GetCurrentState@__FrameHandler3@@SAHPAUEHRegistrationNode@@PAXPBU_s_FuncInfo@@@Z 10037e0a f   libvcruntime:ehstate.obj
 0001:00036e27       ?SetState@__FrameHandler3@@SAXPAUEHRegistrationNode@@PBU_s_FuncInfo@@H@Z 10037e27 f   libvcruntime:ehstate.obj
 0001:00036e40       __global_unwind2           10037e40 f   libvcruntime:exsup.obj
 0001:00036ec0       __local_unwind2            10037ec0 f   libvcruntime:exsup.obj
 0001:00036f60       __NLG_Notify1              10037f60 f   libvcruntime:exsup.obj
 0001:00036f70       __NLG_Notify               10037f70 f   libvcruntime:exsup.obj
 0001:00036f87       __NLG_Dispatch             10037f87     libvcruntime:exsup.obj
 0001:00036f87       __NLG_Dispatch2            10037f87     libvcruntime:exsup.obj
 0001:00036f90       __NLG_Call                 10037f90 f   libvcruntime:exsup.obj
 0001:00036f92       __NLG_Return2              10037f92     libvcruntime:exsup.obj
 0001:0003727b       ___acrt_initialize_thread_local_exit_callback 1003827b f   libucrt:exit.obj
 0001:0003728a       __cexit                    1003828a f   libucrt:exit.obj
 0001:00037299       __exit                     10038299 f   libucrt:exit.obj
 0001:000372af       __is_c_termination_complete 100382af f   libucrt:exit.obj
 0001:000372b6       _exit                      100382b6 f   libucrt:exit.obj
 0001:000372cc       _calloc                    100382cc f   libucrt:calloc.obj
 0001:00037ab4       ??$count@D@formatting_buffer@__crt_stdio_output@@QBEIXZ 10038ab4 f i libucrt:output.obj
 0001:00037acc       ??$count@_W@formatting_buffer@__crt_stdio_output@@QBEIXZ 10038acc f i libucrt:output.obj
 0001:00037ae5       ??$ensure_buffer_is_big_enough@D@formatting_buffer@__crt_stdio_output@@QAE_NIAAV__crt_cached_ptd_host@@@Z 10038ae5 f i libucrt:output.obj
 0001:00037b66       ??$ensure_buffer_is_big_enough@_W@formatting_buffer@__crt_stdio_output@@QAE_NIAAV__crt_cached_ptd_host@@@Z 10038b66 f i libucrt:output.obj
 0001:00037be8       ??$is_overflow_condition@K@__crt_strtox@@YA_NIK@Z 10038be8 f i libucrt:output.obj
 0001:00037c19       ??$is_wide_character_specifier@D@__crt_stdio_output@@YA_N_KDW4length_modifier@0@@Z 10038c19 f i libucrt:output.obj
 0001:00037c4a       ??$is_wide_character_specifier@_W@__crt_stdio_output@@YA_N_K_WW4length_modifier@0@@Z 10038c4a f i libucrt:output.obj
 0001:00037c98       ??$make_c_string_character_source@DPAPAD@__crt_strtox@@YA?AV?$c_string_character_source@D@0@QBDQAPAD@Z 10038c98 f i libucrt:output.obj
 0001:00037c98       ??$make_c_string_character_source@_WPAPA_W@__crt_strtox@@YA?AV?$c_string_character_source@_W@0@QB_WQAPA_W@Z 10038c98 f i libucrt:output.obj
 0001:00037cb3       ??$parse_integer@KV?$c_string_character_source@D@__crt_strtox@@$0A@@__crt_strtox@@YAKAAV__crt_cached_ptd_host@@V?$c_string_character_source@D@0@H_N@Z 10038cb3 f i libucrt:output.obj
 0001:00037ec2       ??$parse_integer@KV?$c_string_character_source@_W@__crt_strtox@@$0A@@__crt_strtox@@YAKAAV__crt_cached_ptd_host@@V?$c_string_character_source@_W@0@H_N@Z 10038ec2 f i libucrt:output.obj
 0001:00038491       ??$scratch_data@D@formatting_buffer@__crt_stdio_output@@QAEPADXZ 10039491 f i libucrt:output.obj
 0001:000384af       ??$type_case_integer@$07@?$output_processor@DV?$stream_output_adapter@D@__crt_stdio_output@@V?$standard_base@DV?$stream_output_adapter@D@__crt_stdio_output@@@2@@__crt_stdio_output@@AAE_N_N@Z 100394af f i libucrt:output.obj
 0001:000384af       ??$type_case_integer@$07@?$output_processor@DV?$string_output_adapter@D@__crt_stdio_output@@V?$format_validation_base@DV?$string_output_adapter@D@__crt_stdio_output@@@2@@__crt_stdio_output@@AAE_N_N@Z 100394af f i libucrt:output.obj
 0001:000384af       ??$type_case_integer@$07@?$output_processor@DV?$string_output_adapter@D@__crt_stdio_output@@V?$standard_base@DV?$string_output_adapter@D@__crt_stdio_output@@@2@@__crt_stdio_output@@AAE_N_N@Z 100394af f i libucrt:output.obj
 0001:0003862c       ??$type_case_integer@$07@?$output_processor@_WV?$stream_output_adapter@_W@__crt_stdio_output@@V?$standard_base@_WV?$stream_output_adapter@_W@__crt_stdio_output@@@2@@__crt_stdio_output@@AAE_N_N@Z 1003962c f i libucrt:output.obj
 0001:0003862c       ??$type_case_integer@$07@?$output_processor@_WV?$string_output_adapter@_W@__crt_stdio_output@@V?$format_validation_base@_WV?$string_output_adapter@_W@__crt_stdio_output@@@2@@__crt_stdio_output@@AAE_N_N@Z 1003962c f i libucrt:output.obj
 0001:0003862c       ??$type_case_integer@$07@?$output_processor@_WV?$string_output_adapter@_W@__crt_stdio_output@@V?$standard_base@_WV?$string_output_adapter@_W@__crt_stdio_output@@@2@@__crt_stdio_output@@AAE_N_N@Z 1003962c f i libucrt:output.obj
 0001:000387ae       ??$type_case_integer@$09@?$output_processor@DV?$stream_output_adapter@D@__crt_stdio_output@@V?$standard_base@DV?$stream_output_adapter@D@__crt_stdio_output@@@2@@__crt_stdio_output@@AAE_N_N@Z 100397ae f i libucrt:output.obj
 0001:000387ae       ??$type_case_integer@$09@?$output_processor@DV?$string_output_adapter@D@__crt_stdio_output@@V?$format_validation_base@DV?$string_output_adapter@D@__crt_stdio_output@@@2@@__crt_stdio_output@@AAE_N_N@Z 100397ae f i libucrt:output.obj
 0001:000387ae       ??$type_case_integer@$09@?$output_processor@DV?$string_output_adapter@D@__crt_stdio_output@@V?$standard_base@DV?$string_output_adapter@D@__crt_stdio_output@@@2@@__crt_stdio_output@@AAE_N_N@Z 100397ae f i libucrt:output.obj
 0001:0003892b       ??$type_case_integer@$09@?$output_processor@_WV?$stream_output_adapter@_W@__crt_stdio_output@@V?$standard_base@_WV?$stream_output_adapter@_W@__crt_stdio_output@@@2@@__crt_stdio_output@@AAE_N_N@Z 1003992b f i libucrt:output.obj
 0001:0003892b       ??$type_case_integer@$09@?$output_processor@_WV?$string_output_adapter@_W@__crt_stdio_output@@V?$format_validation_base@_WV?$string_output_adapter@_W@__crt_stdio_output@@@2@@__crt_stdio_output@@AAE_N_N@Z 1003992b f i libucrt:output.obj
 0001:0003892b       ??$type_case_integer@$09@?$output_processor@_WV?$string_output_adapter@_W@__crt_stdio_output@@V?$standard_base@_WV?$string_output_adapter@_W@__crt_stdio_output@@@2@@__crt_stdio_output@@AAE_N_N@Z 1003992b f i libucrt:output.obj
 0001:00038aad       ??$type_case_integer@$0BA@@?$output_processor@DV?$stream_output_adapter@D@__crt_stdio_output@@V?$standard_base@DV?$stream_output_adapter@D@__crt_stdio_output@@@2@@__crt_stdio_output@@AAE_N_N@Z 10039aad f i libucrt:output.obj
 0001:00038aad       ??$type_case_integer@$0BA@@?$output_processor@DV?$string_output_adapter@D@__crt_stdio_output@@V?$format_validation_base@DV?$string_output_adapter@D@__crt_stdio_output@@@2@@__crt_stdio_output@@AAE_N_N@Z 10039aad f i libucrt:output.obj
 0001:00038aad       ??$type_case_integer@$0BA@@?$output_processor@DV?$string_output_adapter@D@__crt_stdio_output@@V?$standard_base@DV?$string_output_adapter@D@__crt_stdio_output@@@2@@__crt_stdio_output@@AAE_N_N@Z 10039aad f i libucrt:output.obj
 0001:00038c2a       ??$type_case_integer@$0BA@@?$output_processor@_WV?$stream_output_adapter@_W@__crt_stdio_output@@V?$standard_base@_WV?$stream_output_adapter@_W@__crt_stdio_output@@@2@@__crt_stdio_output@@AAE_N_N@Z 10039c2a f i libucrt:output.obj
 0001:00038c2a       ??$type_case_integer@$0BA@@?$output_processor@_WV?$string_output_adapter@_W@__crt_stdio_output@@V?$format_validation_base@_WV?$string_output_adapter@_W@__crt_stdio_output@@@2@@__crt_stdio_output@@AAE_N_N@Z 10039c2a f i libucrt:output.obj
 0001:00038c2a       ??$type_case_integer@$0BA@@?$output_processor@_WV?$string_output_adapter@_W@__crt_stdio_output@@V?$standard_base@_WV?$string_output_adapter@_W@__crt_stdio_output@@@2@@__crt_stdio_output@@AAE_N_N@Z 10039c2a f i libucrt:output.obj
 0001:00038dac       ??$type_case_integer_parse_into_buffer@I$07@?$output_processor@DV?$stream_output_adapter@D@__crt_stdio_output@@V?$standard_base@DV?$stream_output_adapter@D@__crt_stdio_output@@@2@@__crt_stdio_output@@AAEXI_N@Z 10039dac f i libucrt:output.obj
 0001:00038dac       ??$type_case_integer_parse_into_buffer@I$07@?$output_processor@DV?$string_output_adapter@D@__crt_stdio_output@@V?$format_validation_base@DV?$string_output_adapter@D@__crt_stdio_output@@@2@@__crt_stdio_output@@AAEXI_N@Z 10039dac f i libucrt:output.obj
 0001:00038dac       ??$type_case_integer_parse_into_buffer@I$07@?$output_processor@DV?$string_output_adapter@D@__crt_stdio_output@@V?$standard_base@DV?$string_output_adapter@D@__crt_stdio_output@@@2@@__crt_stdio_output@@AAEXI_N@Z 10039dac f i libucrt:output.obj
 0001:00038e16       ??$type_case_integer_parse_into_buffer@I$07@?$output_processor@_WV?$stream_output_adapter@_W@__crt_stdio_output@@V?$standard_base@_WV?$stream_output_adapter@_W@__crt_stdio_output@@@2@@__crt_stdio_output@@AAEXI_N@Z 10039e16 f i libucrt:output.obj
 0001:00038e16       ??$type_case_integer_parse_into_buffer@I$07@?$output_processor@_WV?$string_output_adapter@_W@__crt_stdio_output@@V?$format_validation_base@_WV?$string_output_adapter@_W@__crt_stdio_output@@@2@@__crt_stdio_output@@AAEXI_N@Z 10039e16 f i libucrt:output.obj
 0001:00038e16       ??$type_case_integer_parse_into_buffer@I$07@?$output_processor@_WV?$string_output_adapter@_W@__crt_stdio_output@@V?$standard_base@_WV?$string_output_adapter@_W@__crt_stdio_output@@@2@@__crt_stdio_output@@AAEXI_N@Z 10039e16 f i libucrt:output.obj
 0001:00038e83       ??$type_case_integer_parse_into_buffer@I$09@?$output_processor@DV?$stream_output_adapter@D@__crt_stdio_output@@V?$standard_base@DV?$stream_output_adapter@D@__crt_stdio_output@@@2@@__crt_stdio_output@@AAEXI_N@Z 10039e83 f i libucrt:output.obj
 0001:00038e83       ??$type_case_integer_parse_into_buffer@I$09@?$output_processor@DV?$string_output_adapter@D@__crt_stdio_output@@V?$format_validation_base@DV?$string_output_adapter@D@__crt_stdio_output@@@2@@__crt_stdio_output@@AAEXI_N@Z 10039e83 f i libucrt:output.obj
 0001:00038e83       ??$type_case_integer_parse_into_buffer@I$09@?$output_processor@DV?$string_output_adapter@D@__crt_stdio_output@@V?$standard_base@DV?$string_output_adapter@D@__crt_stdio_output@@@2@@__crt_stdio_output@@AAEXI_N@Z 10039e83 f i libucrt:output.obj
 0001:00038efd       ??$type_case_integer_parse_into_buffer@I$09@?$output_processor@_WV?$stream_output_adapter@_W@__crt_stdio_output@@V?$standard_base@_WV?$stream_output_adapter@_W@__crt_stdio_output@@@2@@__crt_stdio_output@@AAEXI_N@Z 10039efd f i libucrt:output.obj
 0001:00038efd       ??$type_case_integer_parse_into_buffer@I$09@?$output_processor@_WV?$string_output_adapter@_W@__crt_stdio_output@@V?$format_validation_base@_WV?$string_output_adapter@_W@__crt_stdio_output@@@2@@__crt_stdio_output@@AAEXI_N@Z 10039efd f i libucrt:output.obj
 0001:00038efd       ??$type_case_integer_parse_into_buffer@I$09@?$output_processor@_WV?$string_output_adapter@_W@__crt_stdio_output@@V?$standard_base@_WV?$string_output_adapter@_W@__crt_stdio_output@@@2@@__crt_stdio_output@@AAEXI_N@Z 10039efd f i libucrt:output.obj
 0001:00038f8c       ??$type_case_integer_parse_into_buffer@I$0BA@@?$output_processor@DV?$stream_output_adapter@D@__crt_stdio_output@@V?$standard_base@DV?$stream_output_adapter@D@__crt_stdio_output@@@2@@__crt_stdio_output@@AAEXI_N@Z 10039f8c f i libucrt:output.obj
 0001:00038f8c       ??$type_case_integer_parse_into_buffer@I$0BA@@?$output_processor@DV?$string_output_adapter@D@__crt_stdio_output@@V?$format_validation_base@DV?$string_output_adapter@D@__crt_stdio_output@@@2@@__crt_stdio_output@@AAEXI_N@Z 10039f8c f i libucrt:output.obj
 0001:00038f8c       ??$type_case_integer_parse_into_buffer@I$0BA@@?$output_processor@DV?$string_output_adapter@D@__crt_stdio_output@@V?$standard_base@DV?$string_output_adapter@D@__crt_stdio_output@@@2@@__crt_stdio_output@@AAEXI_N@Z 10039f8c f i libucrt:output.obj
 0001:00039014       ??$type_case_integer_parse_into_buffer@I$0BA@@?$output_processor@_WV?$stream_output_adapter@_W@__crt_stdio_output@@V?$standard_base@_WV?$stream_output_adapter@_W@__crt_stdio_output@@@2@@__crt_stdio_output@@AAEXI_N@Z 1003a014 f i libucrt:output.obj
 0001:00039014       ??$type_case_integer_parse_into_buffer@I$0BA@@?$output_processor@_WV?$string_output_adapter@_W@__crt_stdio_output@@V?$format_validation_base@_WV?$string_output_adapter@_W@__crt_stdio_output@@@2@@__crt_stdio_output@@AAEXI_N@Z 1003a014 f i libucrt:output.obj
 0001:00039014       ??$type_case_integer_parse_into_buffer@I$0BA@@?$output_processor@_WV?$string_output_adapter@_W@__crt_stdio_output@@V?$standard_base@_WV?$string_output_adapter@_W@__crt_stdio_output@@@2@@__crt_stdio_output@@AAEXI_N@Z 1003a014 f i libucrt:output.obj
 0001:000390a1       ??$type_case_integer_parse_into_buffer@_K$07@?$output_processor@DV?$stream_output_adapter@D@__crt_stdio_output@@V?$standard_base@DV?$stream_output_adapter@D@__crt_stdio_output@@@2@@__crt_stdio_output@@AAEX_K_N@Z 1003a0a1 f i libucrt:output.obj
 0001:000390a1       ??$type_case_integer_parse_into_buffer@_K$07@?$output_processor@DV?$string_output_adapter@D@__crt_stdio_output@@V?$format_validation_base@DV?$string_output_adapter@D@__crt_stdio_output@@@2@@__crt_stdio_output@@AAEX_K_N@Z 1003a0a1 f i libucrt:output.obj
 0001:000390a1       ??$type_case_integer_parse_into_buffer@_K$07@?$output_processor@DV?$string_output_adapter@D@__crt_stdio_output@@V?$standard_base@DV?$string_output_adapter@D@__crt_stdio_output@@@2@@__crt_stdio_output@@AAEX_K_N@Z 1003a0a1 f i libucrt:output.obj
 0001:00039119       ??$type_case_integer_parse_into_buffer@_K$07@?$output_processor@_WV?$stream_output_adapter@_W@__crt_stdio_output@@V?$standard_base@_WV?$stream_output_adapter@_W@__crt_stdio_output@@@2@@__crt_stdio_output@@AAEX_K_N@Z 1003a119 f i libucrt:output.obj
 0001:00039119       ??$type_case_integer_parse_into_buffer@_K$07@?$output_processor@_WV?$string_output_adapter@_W@__crt_stdio_output@@V?$format_validation_base@_WV?$string_output_adapter@_W@__crt_stdio_output@@@2@@__crt_stdio_output@@AAEX_K_N@Z 1003a119 f i libucrt:output.obj
 0001:00039119       ??$type_case_integer_parse_into_buffer@_K$07@?$output_processor@_WV?$string_output_adapter@_W@__crt_stdio_output@@V?$standard_base@_WV?$string_output_adapter@_W@__crt_stdio_output@@@2@@__crt_stdio_output@@AAEX_K_N@Z 1003a119 f i libucrt:output.obj
 0001:000391a2       ??$type_case_integer_parse_into_buffer@_K$09@?$output_processor@DV?$stream_output_adapter@D@__crt_stdio_output@@V?$standard_base@DV?$stream_output_adapter@D@__crt_stdio_output@@@2@@__crt_stdio_output@@AAEX_K_N@Z 1003a1a2 f i libucrt:output.obj
 0001:000391a2       ??$type_case_integer_parse_into_buffer@_K$09@?$output_processor@DV?$string_output_adapter@D@__crt_stdio_output@@V?$format_validation_base@DV?$string_output_adapter@D@__crt_stdio_output@@@2@@__crt_stdio_output@@AAEX_K_N@Z 1003a1a2 f i libucrt:output.obj
 0001:000391a2       ??$type_case_integer_parse_into_buffer@_K$09@?$output_processor@DV?$string_output_adapter@D@__crt_stdio_output@@V?$standard_base@DV?$string_output_adapter@D@__crt_stdio_output@@@2@@__crt_stdio_output@@AAEX_K_N@Z 1003a1a2 f i libucrt:output.obj
 0001:0003923e       ??$type_case_integer_parse_into_buffer@_K$09@?$output_processor@_WV?$stream_output_adapter@_W@__crt_stdio_output@@V?$standard_base@_WV?$stream_output_adapter@_W@__crt_stdio_output@@@2@@__crt_stdio_output@@AAEX_K_N@Z 1003a23e f i libucrt:output.obj
 0001:0003923e       ??$type_case_integer_parse_into_buffer@_K$09@?$output_processor@_WV?$string_output_adapter@_W@__crt_stdio_output@@V?$format_validation_base@_WV?$string_output_adapter@_W@__crt_stdio_output@@@2@@__crt_stdio_output@@AAEX_K_N@Z 1003a23e f i libucrt:output.obj
 0001:0003923e       ??$type_case_integer_parse_into_buffer@_K$09@?$output_processor@_WV?$string_output_adapter@_W@__crt_stdio_output@@V?$standard_base@_WV?$string_output_adapter@_W@__crt_stdio_output@@@2@@__crt_stdio_output@@AAEX_K_N@Z 1003a23e f i libucrt:output.obj
 0001:000392ed       ??$type_case_integer_parse_into_buffer@_K$0BA@@?$output_processor@DV?$stream_output_adapter@D@__crt_stdio_output@@V?$standard_base@DV?$stream_output_adapter@D@__crt_stdio_output@@@2@@__crt_stdio_output@@AAEX_K_N@Z 1003a2ed f i libucrt:output.obj
 0001:000392ed       ??$type_case_integer_parse_into_buffer@_K$0BA@@?$output_processor@DV?$string_output_adapter@D@__crt_stdio_output@@V?$format_validation_base@DV?$string_output_adapter@D@__crt_stdio_output@@@2@@__crt_stdio_output@@AAEX_K_N@Z 1003a2ed f i libucrt:output.obj
 0001:000392ed       ??$type_case_integer_parse_into_buffer@_K$0BA@@?$output_processor@DV?$string_output_adapter@D@__crt_stdio_output@@V?$standard_base@DV?$string_output_adapter@D@__crt_stdio_output@@@2@@__crt_stdio_output@@AAEX_K_N@Z 1003a2ed f i libucrt:output.obj
 0001:0003937f       ??$type_case_integer_parse_into_buffer@_K$0BA@@?$output_processor@_WV?$stream_output_adapter@_W@__crt_stdio_output@@V?$standard_base@_WV?$stream_output_adapter@_W@__crt_stdio_output@@@2@@__crt_stdio_output@@AAEX_K_N@Z 1003a37f f i libucrt:output.obj
 0001:0003937f       ??$type_case_integer_parse_into_buffer@_K$0BA@@?$output_processor@_WV?$string_output_adapter@_W@__crt_stdio_output@@V?$format_validation_base@_WV?$string_output_adapter@_W@__crt_stdio_output@@@2@@__crt_stdio_output@@AAEX_K_N@Z 1003a37f f i libucrt:output.obj
 0001:0003937f       ??$type_case_integer_parse_into_buffer@_K$0BA@@?$output_processor@_WV?$string_output_adapter@_W@__crt_stdio_output@@V?$standard_base@_WV?$string_output_adapter@_W@__crt_stdio_output@@@2@@__crt_stdio_output@@AAEX_K_N@Z 1003a37f f i libucrt:output.obj
 0001:0003941a       ??0?$output_adapter_data@DV?$stream_output_adapter@D@__crt_stdio_output@@@__crt_stdio_output@@IAE@ABV?$stream_output_adapter@D@1@_KQBDAAV__crt_cached_ptd_host@@QAD@Z 1003a41a f i libucrt:output.obj
 0001:0003941a       ??0?$output_adapter_data@DV?$string_output_adapter@D@__crt_stdio_output@@@__crt_stdio_output@@IAE@ABV?$string_output_adapter@D@1@_KQBDAAV__crt_cached_ptd_host@@QAD@Z 1003a41a f i libucrt:output.obj
 0001:00039481       ??0?$output_adapter_data@_WV?$stream_output_adapter@_W@__crt_stdio_output@@@__crt_stdio_output@@IAE@ABV?$stream_output_adapter@_W@1@_KQB_WAAV__crt_cached_ptd_host@@QAD@Z 1003a481 f i libucrt:output.obj
 0001:00039481       ??0?$output_adapter_data@_WV?$string_output_adapter@_W@__crt_stdio_output@@@__crt_stdio_output@@IAE@ABV?$string_output_adapter@_W@1@_KQB_WAAV__crt_cached_ptd_host@@QAD@Z 1003a481 f i libucrt:output.obj
 0001:000394f0       ??0__crt_cached_ptd_host@@QAE@QAU__crt_locale_pointers@@@Z 1003a4f0 f i libucrt:output.obj
 0001:0003954d       ??0__crt_stdio_stream@@QAE@QAU_iobuf@@@Z 1003a54d f i libucrt:output.obj
 0001:00039560       ??1__crt_cached_ptd_host@@QAE@XZ 1003a560 f i libucrt:output.obj
 0001:0003959c       ??1formatting_buffer@__crt_stdio_output@@QAE@XZ 1003a59c f i libucrt:output.obj
 0001:000395b6       ??4?$__crt_unique_heap_ptr@DU__crt_internal_free_policy@@@@QAEAAV0@$$QAV0@@Z 1003a5b6 f i libucrt:output.obj
 0001:00039712       ?crop_zeroes@__crt_stdio_output@@YAXPADQAU__crt_locale_pointers@@@Z 1003a712 f i libucrt:output.obj
 0001:00039772       ?find_next_state@?$output_processor@DV?$stream_output_adapter@D@__crt_stdio_output@@V?$standard_base@DV?$stream_output_adapter@D@__crt_stdio_output@@@2@@__crt_stdio_output@@ABE?AW4state@2@DW432@@Z 1003a772 f i libucrt:output.obj
 0001:00039772       ?find_next_state@?$output_processor@DV?$string_output_adapter@D@__crt_stdio_output@@V?$standard_base@DV?$string_output_adapter@D@__crt_stdio_output@@@2@@__crt_stdio_output@@ABE?AW4state@2@DW432@@Z 1003a772 f i libucrt:output.obj
 0001:000397ad       ?find_next_state@?$output_processor@DV?$string_output_adapter@D@__crt_stdio_output@@V?$format_validation_base@DV?$string_output_adapter@D@__crt_stdio_output@@@2@@__crt_stdio_output@@ABE?AW4state@2@DW432@@Z 1003a7ad f i libucrt:output.obj
 0001:000397ea       ?find_next_state@?$output_processor@_WV?$stream_output_adapter@_W@__crt_stdio_output@@V?$standard_base@_WV?$stream_output_adapter@_W@__crt_stdio_output@@@2@@__crt_stdio_output@@ABE?AW4state@2@_WW432@@Z 1003a7ea f i libucrt:output.obj
 0001:000397ea       ?find_next_state@?$output_processor@_WV?$string_output_adapter@_W@__crt_stdio_output@@V?$standard_base@_WV?$string_output_adapter@_W@__crt_stdio_output@@@2@@__crt_stdio_output@@ABE?AW4state@2@_WW432@@Z 1003a7ea f i libucrt:output.obj
 0001:00039824       ?find_next_state@?$output_processor@_WV?$string_output_adapter@_W@__crt_stdio_output@@V?$format_validation_base@_WV?$string_output_adapter@_W@__crt_stdio_output@@@2@@__crt_stdio_output@@ABE?AW4state@2@_WW432@@Z 1003a824 f i libucrt:output.obj
 0001:00039860       ?force_decimal_point@__crt_stdio_output@@YAXPADQAU__crt_locale_pointers@@@Z 1003a860 f i libucrt:output.obj
 0001:000398c0       ?force_synchronize_per_thread_data@__crt_cached_ptd_host@@AAEPAU__acrt_ptd@@XZ 1003a8c0 f i libucrt:output.obj
 0001:00039910       ?get_raw_ptd@__crt_cached_ptd_host@@QAEPAU__acrt_ptd@@XZ 1003a910 f i libucrt:output.obj
 0001:0003996c       ?parse_int_from_format_string@?$output_processor@DV?$stream_output_adapter@D@__crt_stdio_output@@V?$standard_base@DV?$stream_output_adapter@D@__crt_stdio_output@@@2@@__crt_stdio_output@@AAE_NQAH@Z 1003a96c f i libucrt:output.obj
 0001:0003996c       ?parse_int_from_format_string@?$output_processor@DV?$string_output_adapter@D@__crt_stdio_output@@V?$format_validation_base@DV?$string_output_adapter@D@__crt_stdio_output@@@2@@__crt_stdio_output@@AAE_NQAH@Z 1003a96c f i libucrt:output.obj
 0001:0003996c       ?parse_int_from_format_string@?$output_processor@DV?$string_output_adapter@D@__crt_stdio_output@@V?$standard_base@DV?$string_output_adapter@D@__crt_stdio_output@@@2@@__crt_stdio_output@@AAE_NQAH@Z 1003a96c f i libucrt:output.obj
 0001:000399e4       ?parse_int_from_format_string@?$output_processor@_WV?$stream_output_adapter@_W@__crt_stdio_output@@V?$standard_base@_WV?$stream_output_adapter@_W@__crt_stdio_output@@@2@@__crt_stdio_output@@AAE_NQAH@Z 1003a9e4 f i libucrt:output.obj
 0001:000399e4       ?parse_int_from_format_string@?$output_processor@_WV?$string_output_adapter@_W@__crt_stdio_output@@V?$format_validation_base@_WV?$string_output_adapter@_W@__crt_stdio_output@@@2@@__crt_stdio_output@@AAE_NQAH@Z 1003a9e4 f i libucrt:output.obj
 0001:000399e4       ?parse_int_from_format_string@?$output_processor@_WV?$string_output_adapter@_W@__crt_stdio_output@@V?$standard_base@_WV?$string_output_adapter@_W@__crt_stdio_output@@@2@@__crt_stdio_output@@AAE_NQAH@Z 1003a9e4 f i libucrt:output.obj
 0001:00039a5e       ?process@?$output_processor@DV?$stream_output_adapter@D@__crt_stdio_output@@V?$standard_base@DV?$stream_output_adapter@D@__crt_stdio_output@@@2@@__crt_stdio_output@@QAEHXZ 1003aa5e f i libucrt:output.obj
 0001:00039d0a       ?process@?$output_processor@DV?$string_output_adapter@D@__crt_stdio_output@@V?$format_validation_base@DV?$string_output_adapter@D@__crt_stdio_output@@@2@@__crt_stdio_output@@QAEHXZ 1003ad0a f i libucrt:output.obj
 0001:00039fea       ?process@?$output_processor@DV?$string_output_adapter@D@__crt_stdio_output@@V?$standard_base@DV?$string_output_adapter@D@__crt_stdio_output@@@2@@__crt_stdio_output@@QAEHXZ 1003afea f i libucrt:output.obj
 0001:0003a2be       ?process@?$output_processor@_WV?$stream_output_adapter@_W@__crt_stdio_output@@V?$standard_base@_WV?$stream_output_adapter@_W@__crt_stdio_output@@@2@@__crt_stdio_output@@QAEHXZ 1003b2be f i libucrt:output.obj
 0001:0003a4ce       ?process@?$output_processor@_WV?$string_output_adapter@_W@__crt_stdio_output@@V?$format_validation_base@_WV?$string_output_adapter@_W@__crt_stdio_output@@@2@@__crt_stdio_output@@QAEHXZ 1003b4ce f i libucrt:output.obj
 0001:0003a71e       ?process@?$output_processor@_WV?$string_output_adapter@_W@__crt_stdio_output@@V?$standard_base@_WV?$string_output_adapter@_W@__crt_stdio_output@@@2@@__crt_stdio_output@@QAEHXZ 1003b71e f i libucrt:output.obj
 0001:0003a95e       ?state_case_size@?$output_processor@DV?$stream_output_adapter@D@__crt_stdio_output@@V?$standard_base@DV?$stream_output_adapter@D@__crt_stdio_output@@@2@@__crt_stdio_output@@AAE_NXZ 1003b95e f i libucrt:output.obj
 0001:0003aabc       ?state_case_size@?$output_processor@DV?$string_output_adapter@D@__crt_stdio_output@@V?$format_validation_base@DV?$string_output_adapter@D@__crt_stdio_output@@@2@@__crt_stdio_output@@AAE_NXZ 1003babc f i libucrt:output.obj
 0001:0003aabc       ?state_case_size@?$output_processor@DV?$string_output_adapter@D@__crt_stdio_output@@V?$standard_base@DV?$string_output_adapter@D@__crt_stdio_output@@@2@@__crt_stdio_output@@AAE_NXZ 1003babc f i libucrt:output.obj
 0001:0003ac1a       ?state_case_size@?$output_processor@_WV?$stream_output_adapter@_W@__crt_stdio_output@@V?$standard_base@_WV?$stream_output_adapter@_W@__crt_stdio_output@@@2@@__crt_stdio_output@@AAE_NXZ 1003bc1a f i libucrt:output.obj
 0001:0003ada8       ?state_case_size@?$output_processor@_WV?$string_output_adapter@_W@__crt_stdio_output@@V?$format_validation_base@_WV?$string_output_adapter@_W@__crt_stdio_output@@@2@@__crt_stdio_output@@AAE_NXZ 1003bda8 f i libucrt:output.obj
 0001:0003ada8       ?state_case_size@?$output_processor@_WV?$string_output_adapter@_W@__crt_stdio_output@@V?$standard_base@_WV?$string_output_adapter@_W@__crt_stdio_output@@@2@@__crt_stdio_output@@AAE_NXZ 1003bda8 f i libucrt:output.obj
 0001:0003af36       ?state_case_type@?$output_processor@DV?$stream_output_adapter@D@__crt_stdio_output@@V?$standard_base@DV?$stream_output_adapter@D@__crt_stdio_output@@@2@@__crt_stdio_output@@AAE_NXZ 1003bf36 f i libucrt:output.obj
 0001:0003b27e       ?state_case_type@?$output_processor@DV?$string_output_adapter@D@__crt_stdio_output@@V?$format_validation_base@DV?$string_output_adapter@D@__crt_stdio_output@@@2@@__crt_stdio_output@@AAE_NXZ 1003c27e f i libucrt:output.obj
 0001:0003b27e       ?state_case_type@?$output_processor@DV?$string_output_adapter@D@__crt_stdio_output@@V?$standard_base@DV?$string_output_adapter@D@__crt_stdio_output@@@2@@__crt_stdio_output@@AAE_NXZ 1003c27e f i libucrt:output.obj
 0001:0003b60c       ?state_case_type@?$output_processor@_WV?$stream_output_adapter@_W@__crt_stdio_output@@V?$standard_base@_WV?$stream_output_adapter@_W@__crt_stdio_output@@@2@@__crt_stdio_output@@AAE_NXZ 1003c60c f i libucrt:output.obj
 0001:0003b971       ?state_case_type@?$output_processor@_WV?$string_output_adapter@_W@__crt_stdio_output@@V?$format_validation_base@_WV?$string_output_adapter@_W@__crt_stdio_output@@@2@@__crt_stdio_output@@AAE_NXZ 1003c971 f i libucrt:output.obj
 0001:0003b971       ?state_case_type@?$output_processor@_WV?$string_output_adapter@_W@__crt_stdio_output@@V?$standard_base@_WV?$string_output_adapter@_W@__crt_stdio_output@@@2@@__crt_stdio_output@@AAE_NXZ 1003c971 f i libucrt:output.obj
 0001:0003bd92       ?to_integer_size@__crt_stdio_output@@YAIW4length_modifier@1@@Z 1003cd92 f i libucrt:output.obj
 0001:0003bde6       ?type_case_Z@?$output_processor@DV?$stream_output_adapter@D@__crt_stdio_output@@V?$standard_base@DV?$stream_output_adapter@D@__crt_stdio_output@@@2@@__crt_stdio_output@@AAE_NXZ 1003cde6 f i libucrt:output.obj
 0001:0003bde6       ?type_case_Z@?$output_processor@DV?$string_output_adapter@D@__crt_stdio_output@@V?$format_validation_base@DV?$string_output_adapter@D@__crt_stdio_output@@@2@@__crt_stdio_output@@AAE_NXZ 1003cde6 f i libucrt:output.obj
 0001:0003bde6       ?type_case_Z@?$output_processor@DV?$string_output_adapter@D@__crt_stdio_output@@V?$standard_base@DV?$string_output_adapter@D@__crt_stdio_output@@@2@@__crt_stdio_output@@AAE_NXZ 1003cde6 f i libucrt:output.obj
 0001:0003be40       ?type_case_Z@?$output_processor@_WV?$stream_output_adapter@_W@__crt_stdio_output@@V?$standard_base@_WV?$stream_output_adapter@_W@__crt_stdio_output@@@2@@__crt_stdio_output@@AAE_NXZ 1003ce40 f i libucrt:output.obj
 0001:0003be40       ?type_case_Z@?$output_processor@_WV?$string_output_adapter@_W@__crt_stdio_output@@V?$format_validation_base@_WV?$string_output_adapter@_W@__crt_stdio_output@@@2@@__crt_stdio_output@@AAE_NXZ 1003ce40 f i libucrt:output.obj
 0001:0003be40       ?type_case_Z@?$output_processor@_WV?$string_output_adapter@_W@__crt_stdio_output@@V?$standard_base@_WV?$string_output_adapter@_W@__crt_stdio_output@@@2@@__crt_stdio_output@@AAE_NXZ 1003ce40 f i libucrt:output.obj
 0001:0003be9a       ?type_case_a@?$output_processor@DV?$stream_output_adapter@D@__crt_stdio_output@@V?$standard_base@DV?$stream_output_adapter@D@__crt_stdio_output@@@2@@__crt_stdio_output@@AAE_NXZ 1003ce9a f i libucrt:output.obj
 0001:0003be9a       ?type_case_a@?$output_processor@DV?$string_output_adapter@D@__crt_stdio_output@@V?$format_validation_base@DV?$string_output_adapter@D@__crt_stdio_output@@@2@@__crt_stdio_output@@AAE_NXZ 1003ce9a f i libucrt:output.obj
 0001:0003be9a       ?type_case_a@?$output_processor@DV?$string_output_adapter@D@__crt_stdio_output@@V?$standard_base@DV?$string_output_adapter@D@__crt_stdio_output@@@2@@__crt_stdio_output@@AAE_NXZ 1003ce9a f i libucrt:output.obj
 0001:0003c024       ?type_case_a@?$output_processor@_WV?$stream_output_adapter@_W@__crt_stdio_output@@V?$standard_base@_WV?$stream_output_adapter@_W@__crt_stdio_output@@@2@@__crt_stdio_output@@AAE_NXZ 1003d024 f i libucrt:output.obj
 0001:0003c024       ?type_case_a@?$output_processor@_WV?$string_output_adapter@_W@__crt_stdio_output@@V?$format_validation_base@_WV?$string_output_adapter@_W@__crt_stdio_output@@@2@@__crt_stdio_output@@AAE_NXZ 1003d024 f i libucrt:output.obj
 0001:0003c024       ?type_case_a@?$output_processor@_WV?$string_output_adapter@_W@__crt_stdio_output@@V?$standard_base@_WV?$string_output_adapter@_W@__crt_stdio_output@@@2@@__crt_stdio_output@@AAE_NXZ 1003d024 f i libucrt:output.obj
 0001:0003c1c4       ?type_case_c_tchar@?$output_processor@DV?$stream_output_adapter@D@__crt_stdio_output@@V?$standard_base@DV?$stream_output_adapter@D@__crt_stdio_output@@@2@@__crt_stdio_output@@AAE_ND@Z 1003d1c4 f i libucrt:output.obj
 0001:0003c1c4       ?type_case_c_tchar@?$output_processor@DV?$string_output_adapter@D@__crt_stdio_output@@V?$format_validation_base@DV?$string_output_adapter@D@__crt_stdio_output@@@2@@__crt_stdio_output@@AAE_ND@Z 1003d1c4 f i libucrt:output.obj
 0001:0003c1c4       ?type_case_c_tchar@?$output_processor@DV?$string_output_adapter@D@__crt_stdio_output@@V?$standard_base@DV?$string_output_adapter@D@__crt_stdio_output@@@2@@__crt_stdio_output@@AAE_ND@Z 1003d1c4 f i libucrt:output.obj
 0001:0003c259       ?type_case_c_tchar@?$output_processor@_WV?$stream_output_adapter@_W@__crt_stdio_output@@V?$standard_base@_WV?$stream_output_adapter@_W@__crt_stdio_output@@@2@@__crt_stdio_output@@AAE_N_W@Z 1003d259 f i libucrt:output.obj
 0001:0003c259       ?type_case_c_tchar@?$output_processor@_WV?$string_output_adapter@_W@__crt_stdio_output@@V?$format_validation_base@_WV?$string_output_adapter@_W@__crt_stdio_output@@@2@@__crt_stdio_output@@AAE_N_W@Z 1003d259 f i libucrt:output.obj
 0001:0003c259       ?type_case_c_tchar@?$output_processor@_WV?$string_output_adapter@_W@__crt_stdio_output@@V?$standard_base@_WV?$string_output_adapter@_W@__crt_stdio_output@@@2@@__crt_stdio_output@@AAE_N_W@Z 1003d259 f i libucrt:output.obj
 0001:0003c300       ?type_case_n@?$output_processor@DV?$stream_output_adapter@D@__crt_stdio_output@@V?$standard_base@DV?$stream_output_adapter@D@__crt_stdio_output@@@2@@__crt_stdio_output@@AAE_NXZ 1003d300 f i libucrt:output.obj
 0001:0003c300       ?type_case_n@?$output_processor@DV?$string_output_adapter@D@__crt_stdio_output@@V?$format_validation_base@DV?$string_output_adapter@D@__crt_stdio_output@@@2@@__crt_stdio_output@@AAE_NXZ 1003d300 f i libucrt:output.obj
 0001:0003c300       ?type_case_n@?$output_processor@DV?$string_output_adapter@D@__crt_stdio_output@@V?$standard_base@DV?$string_output_adapter@D@__crt_stdio_output@@@2@@__crt_stdio_output@@AAE_NXZ 1003d300 f i libucrt:output.obj
 0001:0003c300       ?type_case_n@?$output_processor@_WV?$stream_output_adapter@_W@__crt_stdio_output@@V?$standard_base@_WV?$stream_output_adapter@_W@__crt_stdio_output@@@2@@__crt_stdio_output@@AAE_NXZ 1003d300 f i libucrt:output.obj
 0001:0003c300       ?type_case_n@?$output_processor@_WV?$string_output_adapter@_W@__crt_stdio_output@@V?$format_validation_base@_WV?$string_output_adapter@_W@__crt_stdio_output@@@2@@__crt_stdio_output@@AAE_NXZ 1003d300 f i libucrt:output.obj
 0001:0003c300       ?type_case_n@?$output_processor@_WV?$string_output_adapter@_W@__crt_stdio_output@@V?$standard_base@_WV?$string_output_adapter@_W@__crt_stdio_output@@@2@@__crt_stdio_output@@AAE_NXZ 1003d300 f i libucrt:output.obj
 0001:0003c384       ?type_case_o@?$output_processor@DV?$stream_output_adapter@D@__crt_stdio_output@@V?$standard_base@DV?$stream_output_adapter@D@__crt_stdio_output@@@2@@__crt_stdio_output@@AAE_NXZ 1003d384 f i libucrt:output.obj
 0001:0003c384       ?type_case_o@?$output_processor@DV?$string_output_adapter@D@__crt_stdio_output@@V?$format_validation_base@DV?$string_output_adapter@D@__crt_stdio_output@@@2@@__crt_stdio_output@@AAE_NXZ 1003d384 f i libucrt:output.obj
 0001:0003c384       ?type_case_o@?$output_processor@DV?$string_output_adapter@D@__crt_stdio_output@@V?$standard_base@DV?$string_output_adapter@D@__crt_stdio_output@@@2@@__crt_stdio_output@@AAE_NXZ 1003d384 f i libucrt:output.obj
 0001:0003c3a1       ?type_case_o@?$output_processor@_WV?$stream_output_adapter@_W@__crt_stdio_output@@V?$standard_base@_WV?$stream_output_adapter@_W@__crt_stdio_output@@@2@@__crt_stdio_output@@AAE_NXZ 1003d3a1 f i libucrt:output.obj
 0001:0003c3a1       ?type_case_o@?$output_processor@_WV?$string_output_adapter@_W@__crt_stdio_output@@V?$format_validation_base@_WV?$string_output_adapter@_W@__crt_stdio_output@@@2@@__crt_stdio_output@@AAE_NXZ 1003d3a1 f i libucrt:output.obj
 0001:0003c3a1       ?type_case_o@?$output_processor@_WV?$string_output_adapter@_W@__crt_stdio_output@@V?$standard_base@_WV?$string_output_adapter@_W@__crt_stdio_output@@@2@@__crt_stdio_output@@AAE_NXZ 1003d3a1 f i libucrt:output.obj
 0001:0003c3be       ?type_case_p@?$output_processor@DV?$stream_output_adapter@D@__crt_stdio_output@@V?$standard_base@DV?$stream_output_adapter@D@__crt_stdio_output@@@2@@__crt_stdio_output@@AAE_NXZ 1003d3be f i libucrt:output.obj
 0001:0003c3be       ?type_case_p@?$output_processor@DV?$string_output_adapter@D@__crt_stdio_output@@V?$format_validation_base@DV?$string_output_adapter@D@__crt_stdio_output@@@2@@__crt_stdio_output@@AAE_NXZ 1003d3be f i libucrt:output.obj
 0001:0003c3be       ?type_case_p@?$output_processor@DV?$string_output_adapter@D@__crt_stdio_output@@V?$standard_base@DV?$string_output_adapter@D@__crt_stdio_output@@@2@@__crt_stdio_output@@AAE_NXZ 1003d3be f i libucrt:output.obj
 0001:0003c3d4       ?type_case_p@?$output_processor@_WV?$stream_output_adapter@_W@__crt_stdio_output@@V?$standard_base@_WV?$stream_output_adapter@_W@__crt_stdio_output@@@2@@__crt_stdio_output@@AAE_NXZ 1003d3d4 f i libucrt:output.obj
 0001:0003c3d4       ?type_case_p@?$output_processor@_WV?$string_output_adapter@_W@__crt_stdio_output@@V?$format_validation_base@_WV?$string_output_adapter@_W@__crt_stdio_output@@@2@@__crt_stdio_output@@AAE_NXZ 1003d3d4 f i libucrt:output.obj
 0001:0003c3d4       ?type_case_p@?$output_processor@_WV?$string_output_adapter@_W@__crt_stdio_output@@V?$standard_base@_WV?$string_output_adapter@_W@__crt_stdio_output@@@2@@__crt_stdio_output@@AAE_NXZ 1003d3d4 f i libucrt:output.obj
 0001:0003c3ea       ?type_case_s@?$output_processor@DV?$stream_output_adapter@D@__crt_stdio_output@@V?$standard_base@DV?$stream_output_adapter@D@__crt_stdio_output@@@2@@__crt_stdio_output@@AAE_NXZ 1003d3ea f i libucrt:output.obj
 0001:0003c3ea       ?type_case_s@?$output_processor@DV?$string_output_adapter@D@__crt_stdio_output@@V?$format_validation_base@DV?$string_output_adapter@D@__crt_stdio_output@@@2@@__crt_stdio_output@@AAE_NXZ 1003d3ea f i libucrt:output.obj
 0001:0003c3ea       ?type_case_s@?$output_processor@DV?$string_output_adapter@D@__crt_stdio_output@@V?$standard_base@DV?$string_output_adapter@D@__crt_stdio_output@@@2@@__crt_stdio_output@@AAE_NXZ 1003d3ea f i libucrt:output.obj
 0001:0003c45b       ?type_case_s@?$output_processor@_WV?$stream_output_adapter@_W@__crt_stdio_output@@V?$standard_base@_WV?$stream_output_adapter@_W@__crt_stdio_output@@@2@@__crt_stdio_output@@AAE_NXZ 1003d45b f i libucrt:output.obj
 0001:0003c45b       ?type_case_s@?$output_processor@_WV?$string_output_adapter@_W@__crt_stdio_output@@V?$format_validation_base@_WV?$string_output_adapter@_W@__crt_stdio_output@@@2@@__crt_stdio_output@@AAE_NXZ 1003d45b f i libucrt:output.obj
 0001:0003c45b       ?type_case_s@?$output_processor@_WV?$string_output_adapter@_W@__crt_stdio_output@@V?$standard_base@_WV?$string_output_adapter@_W@__crt_stdio_output@@@2@@__crt_stdio_output@@AAE_NXZ 1003d45b f i libucrt:output.obj
 0001:0003c4ce       ?type_case_s_compute_narrow_string_length@?$output_processor@_WV?$stream_output_adapter@_W@__crt_stdio_output@@V?$standard_base@_WV?$stream_output_adapter@_W@__crt_stdio_output@@@2@@__crt_stdio_output@@AAEHH_W@Z 1003d4ce f i libucrt:output.obj
 0001:0003c4ce       ?type_case_s_compute_narrow_string_length@?$output_processor@_WV?$string_output_adapter@_W@__crt_stdio_output@@V?$format_validation_base@_WV?$string_output_adapter@_W@__crt_stdio_output@@@2@@__crt_stdio_output@@AAEHH_W@Z 1003d4ce f i libucrt:output.obj
 0001:0003c4ce       ?type_case_s_compute_narrow_string_length@?$output_processor@_WV?$string_output_adapter@_W@__crt_stdio_output@@V?$standard_base@_WV?$string_output_adapter@_W@__crt_stdio_output@@@2@@__crt_stdio_output@@AAEHH_W@Z 1003d4ce f i libucrt:output.obj
 0001:0003c523       ?unget@?$c_string_character_source@D@__crt_strtox@@QAEXD@Z 1003d523 f i libucrt:output.obj
 0001:0003c54c       ?unget@?$c_string_character_source@_W@__crt_strtox@@QAEX_W@Z 1003d54c f i libucrt:output.obj
 0001:0003c580       ?update_locale_slow@__crt_cached_ptd_host@@AAEXXZ 1003d580 f i libucrt:output.obj
 0001:0003c5db       ?validate@?$c_string_character_source@D@__crt_strtox@@QBE_NXZ 1003d5db f i libucrt:output.obj
 0001:0003c5db       ?validate@?$c_string_character_source@_W@__crt_strtox@@QBE_NXZ 1003d5db f i libucrt:output.obj
 0001:0003c5f6       ?validate@?$stream_output_adapter@D@__crt_stdio_output@@QBE_NAAV__crt_cached_ptd_host@@@Z 1003d5f6 f i libucrt:output.obj
 0001:0003c62e       ?validate@?$stream_output_adapter@_W@__crt_stdio_output@@QBE_NAAV__crt_cached_ptd_host@@@Z 1003d62e f i libucrt:output.obj
 0001:0003c62e       ?validate@?$string_output_adapter@D@__crt_stdio_output@@QBE_NAAV__crt_cached_ptd_host@@@Z 1003d62e f i libucrt:output.obj
 0001:0003c62e       ?validate@?$string_output_adapter@_W@__crt_stdio_output@@QBE_NAAV__crt_cached_ptd_host@@@Z 1003d62e f i libucrt:output.obj
 0001:0003c65f       ?validate_stream_is_ansi_if_required@?$__acrt_stdio_char_traits@D@@SA_NQAU_iobuf@@@Z 1003d65f f i libucrt:output.obj
 0001:0003c6e6       ?write_character@?$output_adapter_common@DV?$stream_output_adapter@D@__crt_stdio_output@@@__crt_stdio_output@@QBEXDQAHAAV__crt_cached_ptd_host@@@Z 1003d6e6 f i libucrt:output.obj
 0001:0003c708       ?write_character@?$output_adapter_common@_WV?$stream_output_adapter@_W@__crt_stdio_output@@@__crt_stdio_output@@QBEX_WQAHAAV__crt_cached_ptd_host@@@Z 1003d708 f i libucrt:output.obj
 0001:0003c72a       ?write_character_without_count_update@?$stream_output_adapter@D@__crt_stdio_output@@QBE_NDAAV__crt_cached_ptd_host@@@Z 1003d72a f i libucrt:output.obj
 0001:0003c764       ?write_character_without_count_update@?$stream_output_adapter@_W@__crt_stdio_output@@QBE_N_WAAV__crt_cached_ptd_host@@@Z 1003d764 f i libucrt:output.obj
 0001:0003c7a1       ?write_string@?$stream_output_adapter@D@__crt_stdio_output@@QBEXQBDHQAHAAV__crt_cached_ptd_host@@@Z 1003d7a1 f i libucrt:output.obj
 0001:0003c7cd       ?write_string@?$stream_output_adapter@_W@__crt_stdio_output@@QBEXQB_WHQAHAAV__crt_cached_ptd_host@@@Z 1003d7cd f i libucrt:output.obj
 0001:0003c7f9       ?write_string@?$string_output_adapter@D@__crt_stdio_output@@QBEXQBDHQAHAAV__crt_cached_ptd_host@@@Z 1003d7f9 f i libucrt:output.obj
 0001:0003c860       ?write_string@?$string_output_adapter@_W@__crt_stdio_output@@QBEXQB_WHQAHAAV__crt_cached_ptd_host@@@Z 1003d860 f i libucrt:output.obj
 0001:0003c8d1       ?write_string_impl@?$output_adapter_common@DV?$stream_output_adapter@D@__crt_stdio_output@@@__crt_stdio_output@@IBEXQBDHQAHAAV__crt_cached_ptd_host@@@Z 1003d8d1 f i libucrt:output.obj
 0001:0003c950       ?write_string_impl@?$output_adapter_common@_WV?$stream_output_adapter@_W@__crt_stdio_output@@@__crt_stdio_output@@IBEXQB_WHQAHAAV__crt_cached_ptd_host@@@Z 1003d950 f i libucrt:output.obj
 0001:0003c9d2       ___acrt_locale_get_ctype_array_value 1003d9d2 f i libucrt:output.obj
 0001:0003c9f4       ___stdio_common_vfprintf   1003d9f4 f   libucrt:output.obj
 0001:0003ca98       ___stdio_common_vfwprintf  1003da98 f   libucrt:output.obj
 0001:0003cb3c       ___stdio_common_vsprintf   1003db3c f   libucrt:output.obj
 0001:0003cb7d       ___stdio_common_vsprintf_s 1003db7d f   libucrt:output.obj
 0001:0003cbbe       ___stdio_common_vswprintf  1003dbbe f   libucrt:output.obj
 0001:0003cbff       ___stdio_common_vswprintf_s 1003dbff f   libucrt:output.obj
 0001:0003cd9c       __beginthreadex            1003dd9c f   libucrt:thread.obj
 0001:0003ce1f       __endthreadex              1003de1f f   libucrt:thread.obj
 0001:0003ce2d       ??$parse_integer@KV?$c_string_character_source@_W@__crt_strtox@@$00@__crt_strtox@@YAKAAV__crt_cached_ptd_host@@V?$c_string_character_source@_W@0@H_N@Z 1003de2d f i libucrt:strtox.obj
 0001:0003d437       __ischartype_l             1003e437 f i libucrt:strtox.obj
 0001:0003d48e       _wcstol                    1003e48e f   libucrt:strtox.obj
 0001:0003d4d4       ??0_LocaleUpdate@@QAE@QAU__crt_locale_pointers@@@Z 1003e4d4 f i libucrt:wcsicmp.obj
 0001:0003d556       ___ascii_wcsicmp           1003e556 f   libucrt:wcsicmp.obj
 0001:0003d593       __towlower_internal        1003e593 f i libucrt:wcsicmp.obj
 0001:0003d5d2       __wcsicmp                  1003e5d2 f   libucrt:wcsicmp.obj
 0001:0003d61b       __wcsicmp_l                1003e61b f   libucrt:wcsicmp.obj
 0001:0003d910       ___acrt_stdio_flush_nolock 1003e910 f   libucrt:fflush.obj
 0001:0003d979       __fflush_nolock            1003e979 f   libucrt:fflush.obj
 0001:0003d9de       __flushall                 1003e9de f   libucrt:fflush.obj
 0001:0003d9e7       _fflush                    1003e9e7 f   libucrt:fflush.obj
 0001:0003db61       _fclose                    1003eb61 f   libucrt:fclose.obj
 0001:0003dc55       __fputwc_nolock_internal   1003ec55 f   libucrt:fputwc.obj
 0001:0003dd8d       _fputwc                    1003ed8d f   libucrt:fputwc.obj
 0001:0003df49       __ungetwc_nolock           1003ef49 f   libucrt:ungetwc.obj
 0001:0003dfff       _ungetwc                   1003efff f   libucrt:ungetwc.obj
 0001:0003e07d       _wcscpy_s                  1003f07d f   libucrt:wcscpy_s.obj
 0001:0003e159       _wcscat_s                  1003f159 f   libucrt:wcscat_s.obj
 0001:0003e164       ??$__crt_time_elapsed_leap_years@H@@YAHH@Z 1003f164 f i libucrt:gmtime.obj
 0001:0003e19e       ??$__crt_time_is_leap_year@H@@YA_NH@Z 1003f19e f i libucrt:gmtime.obj
 0001:0003e3e3       ___getgmtimebuf            1003f3e3 f   libucrt:gmtime.obj
 0001:0003e421       __gmtime64                 1003f421 f   libucrt:gmtime.obj
 0001:0003e450       _strcspn                   1003f450 f   libucrt:strcspn.obj
 0001:0003e496       __fgetc_nolock             1003f496 f   libucrt:fgetc.obj
 0001:0003e4d2       __getc_nolock              1003f4d2 f   libucrt:fgetc.obj
 0001:0003e4dd       _fgetc                     1003f4dd f   libucrt:fgetc.obj
 0001:0003e5e9       _wcsncpy                   1003f5e9 f   libucrt:wcsncpy.obj
 0001:0003e62a       __fgetwc_nolock            1003f62a f   libucrt:fgetwc.obj
 0001:0003e79a       _fgetwc                    1003f79a f   libucrt:fgetwc.obj
 0001:0003e811       ___acrt_initialize_stdio   1003f811 f   libucrt:_file.obj
 0001:0003e8d9       ___acrt_iob_func           1003f8d9 f   libucrt:_file.obj
 0001:0003e8e9       ___acrt_uninitialize_stdio 1003f8e9 f   libucrt:_file.obj
 0001:0003e935       __lock_file                1003f935 f   libucrt:_file.obj
 0001:0003e949       __unlock_file              1003f949 f   libucrt:_file.obj
 0001:0003e95d       _strcpy_s                  1003f95d f   libucrt:strcpy_s.obj
 0001:0003e9b7       _localeconv                1003f9b7 f   libucrt:localeconv.obj
 0001:0003ed64       __wcstombs_s_l             1003fd64 f   libucrt:wcstombs.obj
 0001:0003eda2       _wcstombs                  1003fda2 f   libucrt:wcstombs.obj
 0001:0003ee80       ?has_any_buffer@__crt_stdio_stream@@QBE_NXZ 1003fe80 f i libucrt:fwrite.obj
 0001:0003ee8f       __fwrite_internal          1003fe8f f   libucrt:fwrite.obj
 0001:0003ef06       __fwrite_nolock_internal   1003ff06 f   libucrt:fwrite.obj
 0001:0003f0b0       _fwrite                    100400b0 f   libucrt:fwrite.obj
 0001:0003f1a0       __wfopen                   100401a0 f   libucrt:fopen.obj
 0001:0003f1b7       __wfsopen                  100401b7 f   libucrt:fopen.obj
 0001:000401ef       __W_Getdays                100411ef f   libucrt:wcsftime.obj
 0001:0004034e       __W_Getmonths              1004134e f   libucrt:wcsftime.obj
 0001:000404ad       __W_Gettnames              100414ad f   libucrt:wcsftime.obj
 0001:00040ba9       __Wcsftime                 10041ba9 f   libucrt:wcsftime.obj
 0001:00040bc9       __Wcsftime_l               10041bc9 f   libucrt:wcsftime.obj
 0001:00040d29       _wcsftime                  10041d29 f   libucrt:wcsftime.obj
 0001:00040d48       _fgetpos                   10041d48 f   libucrt:fgetpos.obj
 0001:00040f67       _setvbuf                   10041f67 f   libucrt:setvbuf.obj
 0001:00040fa1       ___ascii_stricmp           10041fa1 f   libucrt:stricmp.obj
 0001:00040fda       __stricmp                  10041fda f   libucrt:stricmp.obj
 0001:00041023       __stricmp_l                10042023 f   libucrt:stricmp.obj
 0001:000410b3       __time64                   100420b3 f   libucrt:time.obj
 0001:0004111b       _free                      1004211b f   libucrt:free.obj
 0001:00041136       __ungetc_nolock            10042136 f   libucrt:ungetc.obj
 0001:0004122f       _ungetc                    1004222f f   libucrt:ungetc.obj
 0001:000412a2       _frexp                     100422a2 f   libucrt:frexp.obj
 0001:0004139c       _strcat_s                  1004239c f   libucrt:strcat_s.obj
 0001:00041407       _fsetpos                   10042407 f   libucrt:fsetpos.obj
 0001:00041442       ?LongLongSub@@YAJ_J0PA_J@Z 10042442 f i libucrt:fseek.obj
 0001:0004171d       __fseeki64                 1004271d f   libucrt:fseek.obj
 0001:00041757       _fseek                     10042757 f   libucrt:fseek.obj
 0001:00041d9a       ??$ftprintf@PAU_iobuf@@PB_WABQB_WABQB_WABI@?$__crt_char_traits@_W@@SAH$$QAPAU_iobuf@@$$QAPB_WABQB_W2ABI@Z 10042d9a f i libucrt:assert.obj
 0001:00041e77       __wassert                  10042e77 f   libucrt:assert.obj
 0001:00041f40       _swprintf                  10042f40 f i libucrt:assert.obj
 0001:00041f5e       ?check_synchronize_global_state_index@__crt_cached_ptd_host@@AAEIXZ 10042f5e f i libucrt:invalid_parameter.obj
 0001:00041f87       ___acrt_call_reportfault   10042f87 f   libucrt:invalid_parameter.obj
 0001:000420c0       ___acrt_initialize_invalid_parameter_handler 100430c0 f   libucrt:invalid_parameter.obj
 0001:000420cf       __invalid_parameter        100430cf f   libucrt:invalid_parameter.obj
 0001:00042106       __invalid_parameter_internal 10043106 f   libucrt:invalid_parameter.obj
 0001:00042183       __invalid_parameter_noinfo 10043183 f   libucrt:invalid_parameter.obj
 0001:00042193       __invalid_parameter_noinfo_noreturn 10043193 f   libucrt:invalid_parameter.obj
 0001:000421b0       __invoke_watson            100431b0 f   libucrt:invalid_parameter.obj
 0001:000421e4       _malloc                    100431e4 f   libucrt:malloc.obj
 0001:000421ef       ___acrt_errno_from_os_error 100431ef f   libucrt:errno.obj
 0001:00042232       ___acrt_errno_map_os_error 10043232 f   libucrt:errno.obj
 0001:00042255       ___acrt_errno_map_os_error_ptd 10043255 f   libucrt:errno.obj
 0001:00042279       ___doserrno                10043279 f   libucrt:errno.obj
 0001:0004228c       __errno                    1004328c f   libucrt:errno.obj
 0001:0004229f       __recalloc_base            1004329f f   libucrt:recalloc.obj
 0001:0004230c       ___acrt_initialize_locks   1004330c f   libucrt:locks.obj
 0001:0004234d       ___acrt_lock               1004334d f   libucrt:locks.obj
 0001:00042364       ___acrt_uninitialize_locks 10043364 f   libucrt:locks.obj
 0001:00042395       ___acrt_unlock             10043395 f   libucrt:locks.obj
 0001:000423ac       __lock_locales             100433ac f   libucrt:locks.obj
 0001:000423ba       __unlock_locales           100433ba f   libucrt:locks.obj
 0001:000423c3       _ldexp                     100433c3 f   libucrt:ldexp.obj
 0001:000425b5       _realloc                   100435b5 f   libucrt:realloc.obj
 0001:000425c0       ??$assemble_floating_point_snan@N@__crt_strtox@@YAX_NAAN@Z 100435c0 f i libucrt:strtod.obj
 0001:000425e1       ??$assemble_floating_point_value_t@M@__crt_strtox@@YA?AW4SLD_STATUS@@_NH_KAAM@Z 100435e1 f i libucrt:strtod.obj
 0001:00042611       ??$assemble_floating_point_value_t@N@__crt_strtox@@YA?AW4SLD_STATUS@@_NH_KAAN@Z 10043611 f i libucrt:strtod.obj
 0001:0004276b       ??$convert_decimal_string_to_floating_type@M@__crt_strtox@@YA?AW4SLD_STATUS@@ABUfloating_point_string@0@AAM@Z 1004376b f i libucrt:strtod.obj
 0001:0004278c       ??$convert_decimal_string_to_floating_type@N@__crt_strtox@@YA?AW4SLD_STATUS@@ABUfloating_point_string@0@AAN@Z 1004378c f i libucrt:strtod.obj
 0001:000427ad       ??$convert_hexadecimal_string_to_floating_type@M@__crt_strtox@@YA?AW4SLD_STATUS@@ABUfloating_point_string@0@AAM@Z 100437ad f i libucrt:strtod.obj
 0001:000427ce       ??$convert_hexadecimal_string_to_floating_type@N@__crt_strtox@@YA?AW4SLD_STATUS@@ABUfloating_point_string@0@AAN@Z 100437ce f i libucrt:strtod.obj
 0001:000427ef       ??$parse_floating_point@V?$c_string_character_source@D@__crt_strtox@@M@__crt_strtox@@YA?AW4SLD_STATUS@@QAU__crt_locale_pointers@@V?$c_string_character_source@D@0@QAM@Z 100437ef f i libucrt:strtod.obj
 0001:0004286f       ??$parse_floating_point@V?$c_string_character_source@D@__crt_strtox@@N@__crt_strtox@@YA?AW4SLD_STATUS@@QAU__crt_locale_pointers@@V?$c_string_character_source@D@0@QAN@Z 1004386f f i libucrt:strtod.obj
 0001:000428ef       ??$parse_floating_point_from_source@V?$c_string_character_source@D@__crt_strtox@@@__crt_strtox@@YA?AW4floating_point_parse_result@0@QAU__crt_locale_pointers@@AAV?$c_string_character_source@D@0@AAUfloating_point_string@0@@Z 100438ef f i libucrt:strtod.obj
 0001:00042ce7       ??$parse_floating_point_possible_infinity@DV?$c_string_character_source@D@__crt_strtox@@PBD@__crt_strtox@@YA?AW4floating_point_parse_result@0@AADAAV?$c_string_character_source@D@0@PBD@Z 10043ce7 f i libucrt:strtod.obj
 0001:00042d9a       ??$parse_floating_point_possible_nan@DV?$c_string_character_source@D@__crt_strtox@@PBD@__crt_strtox@@YA?AW4floating_point_parse_result@0@AADAAV?$c_string_character_source@D@0@PBD@Z 10043d9a f i libucrt:strtod.obj
 0001:00042e9e       ??$parse_floating_point_possible_nan_is_ind@DV?$c_string_character_source@D@__crt_strtox@@@__crt_strtox@@YA_NAADAAV?$c_string_character_source@D@0@@Z 10043e9e f i libucrt:strtod.obj
 0001:00042eda       ??$parse_floating_point_possible_nan_is_snan@DV?$c_string_character_source@D@__crt_strtox@@@__crt_strtox@@YA_NAADAAV?$c_string_character_source@D@0@@Z 10043eda f i libucrt:strtod.obj
 0001:00042f16       ??$parse_floating_point_write_result@M@__crt_strtox@@YA?AW4SLD_STATUS@@W4floating_point_parse_result@0@ABUfloating_point_string@0@QAM@Z 10043f16 f i libucrt:strtod.obj
 0001:00043082       ??$parse_floating_point_write_result@N@__crt_strtox@@YA?AW4SLD_STATUS@@W4floating_point_parse_result@0@ABUfloating_point_string@0@QAN@Z 10044082 f i libucrt:strtod.obj
 0001:000431a6       ??R<lambda_32aa245da1b5b882fa96db788295c8b2>@@QBE_NXZ 100441a6 f i libucrt:strtod.obj
 0001:000431a6       ??R<lambda_690cf26ff5d754c94c32cf642e9f01bc>@@QBE_NXZ 100441a6 f i libucrt:strtod.obj
 0001:000431a6       ??R<lambda_e51f7abad2595a5950d3223319845217>@@QBE_NXZ 100441a6 f i libucrt:strtod.obj
 0001:000431cc       ?as_double@floating_point_value@__crt_strtox@@QBEAANXZ 100441cc f i libucrt:strtod.obj
 0001:000431f1       ?as_float@floating_point_value@__crt_strtox@@QBEAAMXZ 100441f1 f i libucrt:strtod.obj
 0001:00043216       ?assemble_floating_point_infinity@__crt_strtox@@YAX_NABVfloating_point_value@1@@Z 10044216 f i libucrt:strtod.obj
 0001:00043256       ?assemble_floating_point_value@__crt_strtox@@YA?AW4SLD_STATUS@@_KH_N1ABVfloating_point_value@1@@Z 10044256 f i libucrt:strtod.obj
 0001:000435a9       ?assemble_floating_point_value_from_big_integer@__crt_strtox@@YA?AW4SLD_STATUS@@ABUbig_integer@1@I_N1ABVfloating_point_value@1@@Z 100445a9 f i libucrt:strtod.obj
 0001:0004373b       ?assemble_floating_point_zero@__crt_strtox@@YAX_NABVfloating_point_value@1@@Z 1004473b f i libucrt:strtod.obj
 0001:00043770       ?convert_decimal_string_to_floating_type_common@__crt_strtox@@YA?AW4SLD_STATUS@@ABUfloating_point_string@1@ABVfloating_point_value@1@@Z 10044770 f i libucrt:strtod.obj
 0001:0004548f       ?convert_hexadecimal_string_to_floating_type_common@__crt_strtox@@YA?AW4SLD_STATUS@@ABUfloating_point_string@1@ABVfloating_point_value@1@@Z 1004648f f i libucrt:strtod.obj
 0001:00045535       ?denormal_mantissa_mask@floating_point_value@__crt_strtox@@QBE_KXZ 10046535 f i libucrt:strtod.obj
 0001:00045550       ?divide@__crt_strtox@@YA_KAAUbig_integer@1@ABU21@@Z 10046550 f i libucrt:strtod.obj
 0001:000459d8       ?normal_mantissa_mask@floating_point_value@__crt_strtox@@QBE_KXZ 100469d8 f i libucrt:strtod.obj
 0001:000459ef       _strtod                    100469ef f   libucrt:strtod.obj
 0001:00045a06       _strtof                    10046a06 f   libucrt:strtod.obj
 0001:00045c72       _setlocale                 10046c72 f   libucrt:setlocale.obj
 0001:00045cb0       __CIpow                    10046cb0 f   libucrt:pow_impl.obj
 0001:00045ceb       __CIpow_default            10046ceb f   libucrt:pow_impl.obj
 0001:00045d04       __pow_default              10046d04     libucrt:pow_impl.obj
 0001:00045ef9       _abort                     10046ef9 f   libucrt:abort.obj
 0001:00045f3d       __fputc_nolock_internal    10046f3d f   libucrt:fputc.obj
 0001:00045f6a       ___pctype_func             10046f6a f   libucrt:ctype.obj
 0001:00045f90       _islower                   10046f90 f   libucrt:_ctype.obj
 0001:00046020       _isspace                   10047020 f   libucrt:_ctype.obj
 0001:000460b0       _isupper                   100470b0 f   libucrt:_ctype.obj
 0001:00046134       ____lc_codepage_func       10047134 f   libucrt:initctype.obj
 0001:00046159       ____lc_collate_cp_func     10047159 f   libucrt:initctype.obj
 0001:0004617e       ____lc_locale_name_func    1004717e f   libucrt:initctype.obj
 0001:000461a5       ____mb_cur_max_func        100471a5 f   libucrt:initctype.obj
 0001:000461ca       ___acrt_locale_initialize_ctype 100471ca f   libucrt:initctype.obj
 0001:00046627       __wcsdup                   10047627 f   libucrt:wcsdup.obj
 0001:00046686       _terminate                 10047686 f   libucrt:terminate.obj
 0001:000466c2       ??$__acrt_convert_wcs_mbs_cp@D_WV<lambda_62f6974d9771e494a5ea317cc32e971c>@@U__crt_win32_buffer_internal_dynamic_resizing@@@@YAHQBDAAV?$__crt_win32_buffer@_WU__crt_win32_buffer_internal_dynamic_resizing@@@@ABV<lambda_62f6974d9771e494a5ea317cc32e971c>@@I@Z 100476c2 f i libucrt:strftime.obj
 0001:00046774       ??$__acrt_convert_wcs_mbs_cp@_WDV<lambda_0fec1a7b3f42a53036604e18c2d5e07e>@@U__crt_win32_buffer_no_resizing@@@@YAHQB_WAAV?$__crt_win32_buffer@DU__crt_win32_buffer_no_resizing@@@@ABV<lambda_0fec1a7b3f42a53036604e18c2d5e07e>@@I@Z 10047774 f i libucrt:strftime.obj
 0001:00046836       ??$__acrt_mbs_to_wcs_cp@U__crt_win32_buffer_internal_dynamic_resizing@@@@YAHQBDAAV?$__crt_win32_buffer@_WU__crt_win32_buffer_internal_dynamic_resizing@@@@I@Z 10047836 f i libucrt:strftime.obj
 0001:00046853       ??$__acrt_wcs_to_mbs_cp@U__crt_win32_buffer_no_resizing@@@@YAHQB_WAAV?$__crt_win32_buffer@DU__crt_win32_buffer_no_resizing@@@@I@Z 10047853 f i libucrt:strftime.obj
 0001:00046870       ??R<lambda_0fec1a7b3f42a53036604e18c2d5e07e>@@QBEHIQB_WQADI@Z 10047870 f i libucrt:strftime.obj
 0001:00046870       ??R<lambda_28bda7af82a03b66c1cb3803a755f95d>@@QBEHIQB_WQADI@Z 10047870 f i libucrt:argv_wildcards.obj
 0001:00046894       ?_deallocate@?$__crt_win32_buffer@DU__crt_win32_buffer_internal_dynamic_resizing@@@@AAEXXZ 10047894 f i libucrt:argv_wildcards.obj
 0001:00046894       ?_deallocate@?$__crt_win32_buffer@_WU__crt_win32_buffer_internal_dynamic_resizing@@@@AAEXXZ 10047894 f i libucrt:strftime.obj
 0001:000468ae       ?allocate@?$__crt_win32_buffer@DU__crt_win32_buffer_no_resizing@@@@QAEHI@Z 100478ae f i libucrt:strftime.obj
 0001:000468d5       ?allocate@?$__crt_win32_buffer@_WU__crt_win32_buffer_internal_dynamic_resizing@@@@QAEHI@Z 100478d5 f i libucrt:strftime.obj
 0001:00046914       ?allocate@__crt_win32_buffer_internal_dynamic_resizing@@SAHQAPAXIABV__crt_win32_buffer_empty_debug_info@@@Z 10047914 f i libucrt:strftime.obj
 0001:00046933       ?set_to_nullptr@?$__crt_win32_buffer@DU__crt_win32_buffer_no_resizing@@@@QAEXXZ 10047933 f i libucrt:strftime.obj
 0001:00046947       __Getdays                  10047947 f   libucrt:strftime.obj
 0001:00046950       __Getdays_l                10047950 f   libucrt:strftime.obj
 0001:00046a56       __Getmonths                10047a56 f   libucrt:strftime.obj
 0001:00046a5f       __Getmonths_l              10047a5f f   libucrt:strftime.obj
 0001:00046b73       __Gettnames                10047b73 f   libucrt:strftime.obj
 0001:00046b78       __Strftime                 10047b78 f   libucrt:strftime.obj
 0001:00046b98       __Strftime_l               10047b98 f   libucrt:strftime.obj
 0001:00046c93       __tolower_l                10047c93 f   libucrt:tolower_toupper.obj
 0001:00046d91       _tolower                   10047d91 f   libucrt:tolower_toupper.obj
 0001:00046dc1       _strnlen                   10047dc1 f   libucrt:strnlen.obj
 0001:00046ee3       _wcsnlen                   10047ee3 f   libucrt:strnlen.obj
 0001:00047093       ___strncnt                 10048093 f   libucrt:strncnt.obj
 0001:000470af       ___acrt_initialize_new_handler 100480af f   libucrt:new_handler.obj
 0001:000470be       __callnewh                 100480be f   libucrt:new_handler.obj
 0001:000470eb       __query_new_handler        100480eb f   libucrt:new_handler.obj
 0001:00047147       __seh_filter_dll           10048147 f   libucrt:exception_filter.obj
 0001:00047167       __seh_filter_exe           10048167 f   libucrt:exception_filter.obj
 0001:0004755e       ___acrt_allocate_buffer_for_argv 1004855e f   libucrt:argv_parsing.obj
 0001:000475ad       __configure_narrow_argv    100485ad f   libucrt:argv_parsing.obj
 0001:00047979       ___dcrt_get_or_create_wide_environment_nolock 10048979 f   libucrt:environment_initialization.obj
 0001:0004797e       ___dcrt_uninitialize_environments_nolock 1004897e f   libucrt:environment_initialization.obj
 0001:000479cf       __initialize_narrow_environment 100489cf f   libucrt:environment_initialization.obj
 0001:00047a8a       ??$__crt_fast_encode_pointer@P6AHXZ@@YAP6AHXZQ6AHXZ@Z 10048a8a f i libucrt:onexit.obj
 0001:00047a8a       ??$__crt_fast_encode_pointer@P6GHPA_WKJ@Z@@YAP6GHPA_WKJ@ZQ6GH0KJ@Z@Z 10048a8a f i libucrt:winapi_thunks.obj
 0001:00047a8a       ??$__crt_fast_encode_pointer@PAP6AXXZ@@YAPAP6AXXZQAP6AXXZ@Z 10048a8a f i libucrt:onexit.obj
 0001:00047a8a       ??$__crt_fast_encode_pointer@PAX@@YAPAXQAX@Z 10048a8a f i libucrt:initialization.obj
 0001:00047c85       __crt_atexit               10048c85 f   libucrt:onexit.obj
 0001:00047c9b       __execute_onexit_table     10048c9b f   libucrt:onexit.obj
 0001:00047cd9       __initialize_onexit_table  10048cd9 f   libucrt:onexit.obj
 0001:00047d02       __register_onexit_function 10048d02 f   libucrt:onexit.obj
 0001:00047e30       ___acrt_initialize         10048e30 f   libucrt:initialization.obj
 0001:00047e42       ___acrt_thread_attach      10048e42 f   libucrt:initialization.obj
 0001:00047e4d       ___acrt_thread_detach      10048e4d f   libucrt:initialization.obj
 0001:00047e55       ___acrt_uninitialize       10048e55 f   libucrt:initialization.obj
 0001:00047e85       ___acrt_uninitialize_critical 10048e85 f   libucrt:initialization.obj
 0001:00047e97       __initterm                 10048e97 f   libucrt:initterm.obj
 0001:00047ec2       __initterm_e               10048ec2 f   libucrt:initterm.obj
 0001:00047ef0       __wtol                     10048ef0 f   libucrt:atox.obj
 0001:00047f30       _strncmp                   10048f30 f   libucrt:strncmp.obj
 0001:00047fa8       _wcsncmp                   10048fa8 f   libucrt:wcsncmp.obj
 0001:00047fe2       ___acrt_get_begin_thread_init_policy 10048fe2 f   libucrt:win_policies.obj
 0001:00048026       ___acrt_get_developer_information_policy 10049026 f   libucrt:win_policies.obj
 0001:0004806a       ___acrt_get_process_end_policy 1004906a f   libucrt:win_policies.obj
 0001:0004809b       ___acrt_get_windowing_model_policy 1004909b f   libucrt:win_policies.obj
 0001:000480f7       __calloc_base              100490f7 f   libucrt:calloc_base.obj
 0001:00048154       __free_base                10049154 f   libucrt:free_base.obj
 0001:0004818e       __malloc_base              1004918e f   libucrt:malloc_base.obj
 0001:000481dc       ___acrt_update_locale_info 100491dc f   libucrt:locale_update.obj
 0001:00048209       ___acrt_update_locale_info_explicit 10049209 f   libucrt:locale_update.obj
 0001:0004823a       ___acrt_update_multibyte_info 1004923a f   libucrt:locale_update.obj
 0001:00048267       ___acrt_update_multibyte_info_explicit 10049267 f   libucrt:locale_update.obj
 0001:00048298       ?__acrt_fp_classify@@YA?AW4__acrt_fp_class@@ABN@Z 10049298 f i libucrt:cvt.obj
 0001:00048c61       ___acrt_fp_format          10049c61 f   libucrt:cvt.obj
 0001:00048de2       __wctomb_internal          10049de2 f   libucrt:wctomb.obj
 0001:00048f4c       _wctomb_s                  10049f4c f   libucrt:wctomb.obj
 0001:00048f86       __mbtowc_internal          10049f86 f   libucrt:mbtowc.obj
 0001:000490b9       _mbtowc                    1004a0b9 f   libucrt:mbtowc.obj
 0001:000490f0       __fileno                   1004a0f0 f   libucrt:fileno.obj
 0001:00049117       __get_printf_count_output  1004a117 f   libucrt:printf_count_output.obj
 0001:0004912c       ___acrt_should_use_temporary_buffer 1004a12c f   libucrt:_sftbuf.obj
 0001:00049167       ___acrt_stdio_begin_temporary_buffering_nolock 1004a167 f   libucrt:_sftbuf.obj
 0001:00049213       ___acrt_stdio_end_temporary_buffering_nolock 1004a213 f   libucrt:_sftbuf.obj
 0001:0004958f       ___acrt_freeptd            1004a58f f   libucrt:per_thread_data.obj
 0001:000495bb       ___acrt_getptd             1004a5bb f   libucrt:per_thread_data.obj
 0001:00049676       ___acrt_getptd_head        1004a676 f   libucrt:per_thread_data.obj
 0001:0004970c       ___acrt_getptd_noexit      1004a70c f   libucrt:per_thread_data.obj
 0001:000497bd       ___acrt_getptd_noexit_explicit 1004a7bd f   libucrt:per_thread_data.obj
 0001:00049860       ___acrt_initialize_ptd     1004a860 f   libucrt:per_thread_data.obj
 0001:0004988c       ___acrt_uninitialize_ptd   1004a88c f   libucrt:per_thread_data.obj
 0001:000499a6       ??0_expandlocale_locale_name_cache@@QAE@QA_WIQAU__crt_qualified_locale_data@@@Z 1004a9a6 f i libucrt:wsetlocale.obj
 0001:000499f0       ??1_expandlocale_locale_name_cache@@QAE@XZ 1004a9f0 f i libucrt:wsetlocale.obj
 0001:00049b88       ?commit_locale_name@_expandlocale_locale_name_cache@@QAEXQB_WI@Z 1004ab88 f i libucrt:wsetlocale.obj
 0001:00049bcc       ?commit_locale_name_cache_already_updated@_expandlocale_locale_name_cache@@QAEXQB_WI@Z 1004abcc f i libucrt:wsetlocale.obj
 0001:00049c01       ___acrt_copy_locale_name   1004ac01 f   libucrt:wsetlocale.obj
 0001:00049c61       ___acrt_set_locale_changed 1004ac61 f   libucrt:wsetlocale.obj
 0001:00049c6c       ___acrt_uninitialize_locale 1004ac6c f   libucrt:wsetlocale.obj
 0001:00049c93       ___lc_lctowcs              1004ac93 f   libucrt:wsetlocale.obj
 0001:00049d03       ___lc_wcstolc              1004ad03 f   libucrt:wsetlocale.obj
 0001:0004a248       __wcscats                  1004b248 f   libucrt:wsetlocale.obj
 0001:0004a289       __wsetlocale               1004b289 f   libucrt:wsetlocale.obj
 0001:0004b0d3       ___acrt_initialize_lowio   1004c0d3 f   libucrt:ioinit.obj
 0001:0004b133       ___acrt_uninitialize_lowio 1004c133 f   libucrt:ioinit.obj
 0001:0004b4b7       ___acrt_AppPolicyGetProcessTerminationMethodInternal@4 1004c4b7 f   libucrt:winapi_thunks.obj
 0001:0004b4f7       ___acrt_AppPolicyGetShowDeveloperDiagnosticInternal@4 1004c4f7 f   libucrt:winapi_thunks.obj
 0001:0004b537       ___acrt_AppPolicyGetThreadInitializationTypeInternal@4 1004c537 f   libucrt:winapi_thunks.obj
 0001:0004b577       ___acrt_AppPolicyGetWindowingModelInternal@4 1004c577 f   libucrt:winapi_thunks.obj
 0001:0004b5b7       ___acrt_AreFileApisANSI@0  1004c5b7 f   libucrt:winapi_thunks.obj
 0001:0004b5d6       ___acrt_CompareStringEx@36 1004c5d6 f   libucrt:winapi_thunks.obj
 0001:0004b633       ___acrt_EnumSystemLocalesEx@16 1004c633 f   libucrt:winapi_thunks.obj
 0001:0004b687       ___acrt_FlsAlloc@4         1004c687 f   libucrt:winapi_thunks.obj
 0001:0004b6c6       ___acrt_FlsFree@4          1004c6c6 f   libucrt:winapi_thunks.obj
 0001:0004b705       ___acrt_FlsGetValue@4      1004c705 f   libucrt:winapi_thunks.obj
 0001:0004b744       ___acrt_FlsSetValue@8      1004c744 f   libucrt:winapi_thunks.obj
 0001:0004b786       ___acrt_GetDateFormatEx@28 1004c786 f   libucrt:winapi_thunks.obj
 0001:0004b7dd       ___acrt_GetLocaleInfoEx@16 1004c7dd f   libucrt:winapi_thunks.obj
 0001:0004b81c       ___acrt_GetTimeFormatEx@24 1004c81c f   libucrt:winapi_thunks.obj
 0001:0004b861       ___acrt_GetUserDefaultLocaleName@8 1004c861 f   libucrt:winapi_thunks.obj
 0001:0004b89d       ___acrt_InitializeCriticalSectionEx@12 1004c89d f   libucrt:winapi_thunks.obj
 0001:0004b8e8       ___acrt_IsValidLocaleName@4 1004c8e8 f   libucrt:winapi_thunks.obj
 0001:0004b920       ___acrt_LCIDToLocaleName@16 1004c920 f   libucrt:winapi_thunks.obj
 0001:0004b95f       ___acrt_LCMapStringEx@36   1004c95f f   libucrt:winapi_thunks.obj
 0001:0004b9bc       ___acrt_LocaleNameToLCID@8 1004c9bc f   libucrt:winapi_thunks.obj
 0001:0004b9ed       ___acrt_MessageBoxW@16     1004c9ed f   libucrt:winapi_thunks.obj
 0001:0004ba1f       ___acrt_RoInitialize@4     1004ca1f f   libucrt:winapi_thunks.obj
 0001:0004ba5a       ___acrt_RoUninitialize@0   1004ca5a f   libucrt:winapi_thunks.obj
 0001:0004ba88       ___acrt_can_show_message_box 1004ca88 f   libucrt:winapi_thunks.obj
 0001:0004baaf       ___acrt_can_use_vista_locale_apis 1004caaf f   libucrt:winapi_thunks.obj
 0001:0004baba       ___acrt_eagerly_load_locale_apis 1004caba f   libucrt:winapi_thunks.obj
 0001:0004baf1       ___acrt_get_parent_window  1004caf1 f   libucrt:winapi_thunks.obj
 0001:0004bb59       ___acrt_initialize_winapi_thunks 1004cb59 f   libucrt:winapi_thunks.obj
 0001:0004bb6d       ___acrt_is_interactive     1004cb6d f   libucrt:winapi_thunks.obj
 0001:0004bc0c       ___acrt_uninitialize_winapi_thunks 1004cc0c f   libucrt:winapi_thunks.obj
 0001:0004bc42       _iswctype                  1004cc42 f   libucrt:iswctype.obj
 0001:0004bcab       __isctype_l                1004ccab f   libucrt:isctype.obj
 0001:0004bd76       __towlower_l               1004cd76 f   libucrt:towlower.obj
 0001:0004bef1       __commit                   1004cef1 f   libucrt:commit.obj
 0001:0004c71c       __write                    1004d71c f   libucrt:write.obj
 0001:0004c753       __write_internal           1004d753 f   libucrt:write.obj
 0001:0004c85b       __write_nolock             1004d85b f   libucrt:write.obj
 0001:0004caec       __close_internal           1004daec f   libucrt:close.obj
 0001:0004cb8f       __close_nolock             1004db8f f   libucrt:close.obj
 0001:0004cbbf       __close_nolock_internal    1004dbbf f   libucrt:close.obj
 0001:0004cc5f       ?__acrt_stdio_allocate_stream@@YA?AV__crt_stdio_stream@@XZ 1004dc5f f   libucrt:stream.obj
 0001:0004ccc8       ?__acrt_stdio_free_stream@@YAXV__crt_stdio_stream@@@Z 1004dcc8 f   libucrt:stream.obj
 0001:0004cdc5       ___acrt_stdio_free_buffer_nolock 1004ddc5 f   libucrt:_freebuf.obj
 0001:0004d220       ___acrt_stdio_flush_and_write_narrow_nolock 1004e220 f   libucrt:_flsbuf.obj
 0001:0004d22b       ___acrt_stdio_flush_and_write_wide_nolock 1004e22b f   libucrt:_flsbuf.obj
 0001:0004d236       ___acrt_stdio_allocate_buffer_nolock 1004e236 f   libucrt:_getbuf.obj
 0001:0004d5f0       ___acrt_stdio_refill_and_read_narrow_nolock 1004e5f0 f   libucrt:_filbuf.obj
 0001:0004d5fb       ___acrt_stdio_refill_and_read_wide_nolock 1004e5fb f   libucrt:_filbuf.obj
 0001:0004d606       __fcloseall                1004e606 f   libucrt:closeall.obj
 0001:0004d6b1       ___acrt_WideCharToMultiByte 1004e6b1 f   libucrt:widechartomultibyte.obj
 0001:0004d768       ?__wcsrtombs_utf8@__crt_mbstring@@YAIPADPAPB_WIPAU_Mbstatet@@AAV__crt_cached_ptd_host@@@Z 1004e768 f   libucrt:wcrtomb.obj
 0001:0004d874       ??$__acrt_stdio_parse_mode@_W@@YA?AU__acrt_stdio_stream_mode@@QB_W@Z 1004e874 f i libucrt:openfile.obj
 0001:0004db62       ?__acrt_stdio_parse_mode_D@@YA_NAAU__acrt_stdio_stream_mode@@@Z 1004eb62 f i libucrt:openfile.obj
 0001:0004db7d       ?__acrt_stdio_parse_mode_T@@YA_NAAU__acrt_stdio_stream_mode@@@Z 1004eb7d f i libucrt:openfile.obj
 0001:0004db9c       ?__acrt_stdio_parse_mode_b@@YA_NAAU__acrt_stdio_stream_mode@@@Z 1004eb9c f i libucrt:openfile.obj
 0001:0004dbbc       ?__acrt_stdio_parse_mode_c@@YA_NAAU__acrt_stdio_stream_mode@@AA_N@Z 1004ebbc f i libucrt:openfile.obj
 0001:0004dbde       ?__acrt_stdio_parse_mode_n@@YA_NAAU__acrt_stdio_stream_mode@@AA_N@Z 1004ebde f i libucrt:openfile.obj
 0001:0004dc00       ?__acrt_stdio_parse_mode_plus@@YA_NAAU__acrt_stdio_stream_mode@@AA_N@Z 1004ec00 f i libucrt:openfile.obj
 0001:0004dc36       ?__acrt_stdio_parse_mode_t@@YA_NAAU__acrt_stdio_stream_mode@@@Z 1004ec36 f i libucrt:openfile.obj
 0001:0004dc56       ?__acrt_stdio_parse_mode_x@@YA_NAAU__acrt_stdio_stream_mode@@@Z 1004ec56 f i libucrt:openfile.obj
 0001:0004dc76       __wopenfile                1004ec76 f   libucrt:openfile.obj
 0001:0004dc81       ___acrt_initialize_timeset 1004ec81 f   libucrt:timeset.obj
 0001:0004dcb6       ___daylight                1004ecb6 f   libucrt:timeset.obj
 0001:0004dcbc       ___dstbias                 1004ecbc f   libucrt:timeset.obj
 0001:0004dcc2       ___timezone                1004ecc2 f   libucrt:timeset.obj
 0001:0004dcc8       ___tzname                  1004ecc8 f   libucrt:timeset.obj
 0001:0004dcce       ___wide_tzname             1004ecce f   libucrt:timeset.obj
 0001:0004dcd4       __get_daylight             1004ecd4 f   libucrt:timeset.obj
 0001:0004dd00       __get_dstbias              1004ed00 f   libucrt:timeset.obj
 0001:0004dd2c       __get_timezone             1004ed2c f   libucrt:timeset.obj
 0001:0004dd58       ?__acrt_get_utf8_acp_compatibility_codepage@@YAIXZ 1004ed58 f i libucrt:tzset.obj
 0001:0004e2f9       ___tzset                   1004f2f9 f   libucrt:tzset.obj
 0001:0004e941       __ftelli64                 1004f941 f   libucrt:ftell.obj
 0001:0004e977       __ftelli64_nolock_internal 1004f977 f   libucrt:ftell.obj
 0001:0004e982       __dsign                    1004f982 f   libucrt:nan.obj
 0001:0004e992       __errcode                  1004f992 f   libucrt:fpexcept.obj
 0001:0004e9c6       __except1                  1004f9c6 f   libucrt:fpexcept.obj
 0001:0004ea94       __except2                  1004fa94 f   libucrt:fpexcept.obj
 0001:0004eb76       __handle_exc               1004fb76 f   libucrt:fpexcept.obj
 0001:0004edef       __handle_qnan2             1004fdef f   libucrt:fpexcept.obj
 0001:0004edfc       __raise_exc                1004fdfc f   libucrt:fpexcept.obj
 0001:0004ee1f       __raise_exc_ex             1004fe1f f   libucrt:fpexcept.obj
 0001:0004f115       __set_errno_from_matherr   10050115 f   libucrt:fpexcept.obj
 0001:0004f144       __umatherr                 10050144 f   libucrt:fpexcept.obj
 0001:0004f1e4       __decomp                   100501e4 f   libucrt:util.obj
 0001:0004f2b6       __set_exp                  100502b6 f   libucrt:util.obj
 0001:0004f2e3       __sptype                   100502e3 f   libucrt:util.obj
 0001:0004f341       ___set_fpsr_sse2           10050341 f   libucrt:fpctrl.obj
 0001:0004f3c1       __clrfp                    100503c1 f   libucrt:fpctrl.obj
 0001:0004f3d2       __ctrlfp                   100503d2 f   libucrt:fpctrl.obj
 0001:0004f3fc       __set_statfp               100503fc f   libucrt:fpctrl.obj
 0001:0004f455       __statfp                   10050455 f   libucrt:fpctrl.obj
 0001:0004f60e       __lseeki64                 1005060e f   libucrt:lseek.obj
 0001:0004f64e       __lseeki64_internal        1005064e f   libucrt:lseek.obj
 0001:0004f66c       __lseeki64_nolock          1005066c f   libucrt:lseek.obj
 0001:0004f6ac       __lseeki64_nolock_internal 100506ac f   libucrt:lseek.obj
 0001:0004f6ca       __query_app_type           100506ca f   libucrt:report_runtime_error.obj
 0001:0004f7f5       __itow_s                   100507f5 f   libucrt:xtoa.obj
 0001:0004f828       __set_error_mode           10050828 f   libucrt:set_error_mode.obj
 0001:0004f954       _wcsncat_s                 10050954 f   libucrt:wcsncat_s.obj
 0001:0004f95f       ___acrt_GetModuleFileNameA 1005095f f   libucrt:getmodulefilenamea.obj
 0001:0004fa7e       ___acrt_show_wide_message_box 10050a7e f   libucrt:crtmbox.obj
 0001:0004fb57       ___acrt_get_sigabrt_handler 10050b57 f   libucrt:signal.obj
 0001:0004fb7e       ___acrt_initialize_signal_handlers 10050b7e f   libucrt:signal.obj
 0001:0004fb9c       _raise                     10050b9c f   libucrt:signal.obj
 0001:0004fd8f       __msize_base               10050d8f f   libucrt:msize.obj
 0001:0004fdc2       __realloc_base             10050dc2 f   libucrt:realloc_base.obj
 0001:0004fe2b       __copysign                 10050e2b f   libucrt:ieeemisc.obj
 0001:0004fe4e       __fpclass                  10050e4e f   libucrt:ieeemisc.obj
 0001:0004fef2       _fegetround                10050ef2 f   libucrt:fegetround.obj
 0001:000501aa       _mbstowcs_s                100511aa f   libucrt:mbstowcs.obj
 0001:000501e7       ___acrt_initialize_sse2    100511e7 f   libucrt:mathfcns.obj
 0001:00050200       __CIpow_pentium4           10051200 f   libucrt:pow_pentium4.obj
 0001:00050219       __pow_pentium4             10051219     libucrt:pow_pentium4.obj
 0001:00050d40       __fFEXP                    10051d40 f   libucrt:87tran.obj
 0001:00050d97       __rtinfpopse               10051d97     libucrt:87tran.obj
 0001:00050d99       __rtinfnpopse              10051d99     libucrt:87tran.obj
 0001:00050da9       __fFLN                     10051da9     libucrt:87tran.obj
 0001:00050e5e       __rtinfpop                 10051e5e     libucrt:87tran.obj
 0001:00050e60       __rtinfnpop                10051e60     libucrt:87tran.obj
 0001:00050e70       __rtforexpinf              10051e70 f   libucrt:87tran.obj
 0001:00050e7d       __ffexpm1                  10051e7d     libucrt:87tran.obj
 0001:00050f30       __trandisp1                10051f30 f   libucrt:87disp.obj
 0001:00050fa5       __trandisp2                10051fa5 f   libucrt:87disp.obj
 0001:0005103f       __rttospopde               1005203f     libucrt:87disp.obj
 0001:00051044       __rttospop                 10052044     libucrt:87disp.obj
 0001:00051050       __rtnospop                 10052050 f   libucrt:87disp.obj
 0001:00051060       __rttosnpop                10052060 f   libucrt:87disp.obj
 0001:00051061       __rtnospopde               10052061     libucrt:87disp.obj
 0001:00051068       __rtzeropop                10052068     libucrt:87disp.obj
 0001:0005106a       __rtzeronpop               1005206a     libucrt:87disp.obj
 0001:00051070       __rtzerospop               10052070 f   libucrt:87disp.obj
 0001:0005107d       __rtonepop                 1005207d     libucrt:87disp.obj
 0001:00051080       __rtonenpop                10052080 f   libucrt:87disp.obj
 0001:00051090       __tosnan1                  10052090 f   libucrt:87disp.obj
 0001:000510c0       __nosnan2                  100520c0 f   libucrt:87disp.obj
 0001:000510d0       __tosnan2                  100520d0 f   libucrt:87disp.obj
 0001:00051100       __nan2                     10052100 f   libucrt:87disp.obj
 0001:00051140       __rtindfpop                10052140 f   libucrt:87disp.obj
 0001:00051142       __rtindfnpop               10052142     libucrt:87disp.obj
 0001:00051153       __rttosnpopde              10052153     libucrt:87disp.obj
 0001:00051160       __rtatan2inf               10052160 f   libucrt:87disp.obj
 0001:0005117d       __rtchsifneg               1005217d     libucrt:87disp.obj
 0001:00051190       __startTwoArgErrorHandling 10052190 f   libucrt:genexcep.obj
 0001:000511a7       __startOneArgErrorHandling 100521a7 f   libucrt:genexcep.obj
 0001:000511f0       __twoToTOS                 100521f0 f   libucrt:common.obj
 0001:00051205       __load_CW                  10052205 f   libucrt:common.obj
 0001:0005121c       __convertTOStoQNaN         1005221c f   libucrt:common.obj
 0001:00051235       __fload_withFB             10052235 f   libucrt:common.obj
 0001:00051278       __checkTOS_withFB          10052278 f   libucrt:common.obj
 0001:0005128e       __fast_exit                1005228e f   libucrt:common.obj
 0001:0005129b       __math_exit                1005229b f   libucrt:common.obj
 0001:000512c5       __check_overflow_exit      100522c5 f   libucrt:common.obj
 0001:000512d9       __check_range_exit         100522d9 f   libucrt:common.obj
 0001:0005137c       __d_inttype                1005237c f   libucrt:powhlp.obj
 0001:000513e4       __powhlp                   100523e4 f   libucrt:powhlp.obj
 0001:000515f6       ___acrt_GetLocaleInfoA     100525f6 f   libucrt:getlocaleinfoa.obj
 0001:000517a6       ___acrt_GetStringTypeA     100527a6 f   libucrt:getstringtypea.obj
 0001:00051a9d       ___acrt_LCMapStringA       10052a9d f   libucrt:lcmapstringa.obj
 0001:00051ae6       ___acrt_MultiByteToWideChar 10052ae6 f   libucrt:multibytetowidechar.obj
 0001:00051b7a       ??$__acrt_convert_wcs_mbs_cp@_WDV<lambda_28bda7af82a03b66c1cb3803a755f95d>@@U__crt_win32_buffer_internal_dynamic_resizing@@@@YAHQB_WAAV?$__crt_win32_buffer@DU__crt_win32_buffer_internal_dynamic_resizing@@@@ABV<lambda_28bda7af82a03b66c1cb3803a755f95d>@@I@Z 10052b7a f i libucrt:argv_wildcards.obj
 0001:0005211c       ?allocate@?$__crt_win32_buffer@DU__crt_win32_buffer_internal_dynamic_resizing@@@@QAEHI@Z 1005311c f i libucrt:argv_wildcards.obj
 0001:000521df       ___acrt_expand_narrow_argv_wildcards 100531df f   libucrt:argv_wildcards.obj
 0001:0005276d       ___acrt_initialize_multibyte 1005376d f   libucrt:mbctype.obj
 0001:000527b5       ___acrt_update_thread_multibyte_data 100537b5 f   libucrt:mbctype.obj
 0001:000527c8       __setmbcp_nolock           100537c8 f   libucrt:mbctype.obj
 0001:00052a20       __ismbblead                10053a20 f   libucrt:ismbbyte.obj
 0001:00052a38       ___acrt_initialize_command_line 10053a38 f   libucrt:argv_data.obj
 0001:00052a88       ___dcrt_get_narrow_environment_from_os 10053a88 f   libucrt:get_environment_from_os.obj
 0001:00052b28       ___dcrt_get_wide_environment_from_os 10053b28 f   libucrt:get_environment_from_os.obj
 0001:00052f25       ___dcrt_set_variable_in_wide_environment_nolock 10053f25 f   libucrt:setenv.obj
 0001:00052f30       ___acrt_initialize_heap    10053f30 f   libucrt:heap_handle.obj
 0001:00052f41       ___acrt_uninitialize_heap  10053f41 f   libucrt:heap_handle.obj
 0001:00052f4b       ___acrt_execute_initializers 10053f4b f   libucrt:shared_initialization.obj
 0001:00052fb3       ___acrt_execute_uninitializers 10053fb3 f   libucrt:shared_initialization.obj
 0001:00052fe4       ___acrt_has_user_matherr   10053fe4 f   libucrt:matherr.obj
 0001:00052ffc       ___acrt_initialize_user_matherr 10053ffc f   libucrt:matherr.obj
 0001:0005300b       ___acrt_invoke_user_matherr 1005400b f   libucrt:matherr.obj
 0001:0005303d       __query_new_mode           1005403d f   libucrt:new_mode.obj
 0001:00053044       ___acrt_add_locale_ref     10054044 f   libucrt:locale_refcounting.obj
 0001:000530c1       ___acrt_free_locale        100540c1 f   libucrt:locale_refcounting.obj
 0001:00053209       ___acrt_locale_add_lc_time_reference 10054209 f   libucrt:locale_refcounting.obj
 0001:00053232       ___acrt_locale_free_lc_time_if_unreferenced 10054232 f   libucrt:locale_refcounting.obj
 0001:00053263       ___acrt_locale_release_lc_time_reference 10054263 f   libucrt:locale_refcounting.obj
 0001:0005328c       ___acrt_release_locale_ref 1005428c f   libucrt:locale_refcounting.obj
 0001:0005330d       ___acrt_update_thread_locale_data 1005430d f   libucrt:locale_refcounting.obj
 0001:0005338e       __updatetlocinfoEx_nolock  1005438e f   libucrt:locale_refcounting.obj
 0001:0005345c       ___acrt_fp_strflt_to_string 1005445c f   libucrt:_fptostr.obj
 0001:00053556       ___acrt_fltout             10054556 f   libucrt:cfout.obj
 0001:00054a8f       ?__c32rtomb_utf8@__crt_mbstring@@YAIPAD_UPAU_Mbstatet@@AAV__crt_cached_ptd_host@@@Z 10055a8f f   libucrt:c32rtomb.obj
 0001:00054b6b       ?__mbrtowc_utf8@__crt_mbstring@@YAIPA_WPBDIPAU_Mbstatet@@AAV__crt_cached_ptd_host@@@Z 10055b6b f   libucrt:mbrtowc.obj
 0001:00054bae       ?__mbsrtowcs_utf8@__crt_mbstring@@YAIPA_WPAPBDIPAU_Mbstatet@@AAV__crt_cached_ptd_host@@@Z 10055bae f   libucrt:mbrtowc.obj
 0001:00054cb6       __isatty                   10055cb6 f   libucrt:isatty.obj
 0001:00054d0c       ___acrt_locale_free_monetary 10055d0c f   libucrt:initmon.obj
 0001:00054e0a       ___acrt_locale_initialize_monetary 10055e0a f   libucrt:initmon.obj
 0001:000551c0       ___acrt_locale_free_numeric 100561c0 f   libucrt:initnum.obj
 0001:00055229       ___acrt_locale_initialize_numeric 10056229 f   libucrt:initnum.obj
 0001:000556db       ___acrt_locale_free_time   100566db f   libucrt:inittime.obj
 0001:000557bf       ___acrt_locale_initialize_time 100567bf f   libucrt:inittime.obj
 0001:00055908       _wcsncpy_s                 10056908 f   libucrt:wcsncpy_s.obj
 0001:00055913       _wcscspn                   10056913 f   libucrt:wcscspn.obj
 0001:0005596c       _wcspbrk                   1005696c f   libucrt:wcspbrk.obj
 0001:000560b6       ___acrt_get_qualified_locale 100570b6 f   libucrt:get_qualified_locale.obj
 0001:00056a1a       ___acrt_get_qualified_locale_downlevel 10057a1a f   libucrt:getqloc_downlevel.obj
 0001:00056c0f       ___acrt_lowio_create_handle_array 10057c0f f   libucrt:osfinfo.obj
 0001:00056c8a       ___acrt_lowio_destroy_handle_array 10057c8a f   libucrt:osfinfo.obj
 0001:00056cbf       ___acrt_lowio_ensure_fh_exists 10057cbf f   libucrt:osfinfo.obj
 0001:00056d5d       ___acrt_lowio_lock_fh      10057d5d f   libucrt:osfinfo.obj
 0001:00056d80       ___acrt_lowio_set_os_handle 10057d80 f   libucrt:osfinfo.obj
 0001:00056e12       ___acrt_lowio_unlock_fh    10057e12 f   libucrt:osfinfo.obj
 0001:00056e35       __alloc_osfhnd             10057e35 f   libucrt:osfinfo.obj
 0001:00056f48       __free_osfhnd              10057f48 f   libucrt:osfinfo.obj
 0001:00056fd9       __get_osfhandle            10057fd9 f   libucrt:osfinfo.obj
 0001:00057093       ___acrt_DownlevelLCIDToLocaleName 10058093 f   libucrt:lcidtoname_downlevel.obj
 0001:00057136       ___acrt_DownlevelLocaleNameToLCID 10058136 f   libucrt:lcidtoname_downlevel.obj
 0001:00057162       ___acrt_GetStringTypeW     10058162 f   libucrt:getstringtypew.obj
 0001:0005717b       ___acrt_LCMapStringW       1005817b f   libucrt:lcmapstringw.obj
 0001:000571b9       __putwch_nolock            100581b9 f   libucrt:putwch.obj
 0001:000576b1       __read                     100586b1 f   libucrt:read.obj
 0001:000577c5       __read_nolock              100587c5 f   libucrt:read.obj
 0001:00057b64       ?__c16rtomb_utf8@__crt_mbstring@@YAIPAD_SPAU_Mbstatet@@AAV__crt_cached_ptd_host@@@Z 10058b64 f   libucrt:c16rtomb.obj
 0001:00057c0d       ___ascii_wcsnicmp          10058c0d f   libucrt:wcsnicmp.obj
 0001:00057c5c       __wcsnicmp                 10058c5c f   libucrt:wcsnicmp.obj
 0001:00057ca8       __wcsnicmp_l               10058ca8 f   libucrt:wcsnicmp.obj
 0001:00058343       __wsopen_nolock            10059343 f   libucrt:open.obj
 0001:0005866d       __wsopen_s                 1005966d f   libucrt:open.obj
 0001:00058829       __wgetenv_s                10059829 f   libucrt:getenv.obj
 0001:00058afd       ___acrt_fenv_get_common_round_control 10059afd f   libucrt:_fenvutils.obj
 0001:00058b1f       ___acrt_fenv_get_control   10059b1f f   libucrt:_fenvutils.obj
 0001:00058b9f       ___acrt_fenv_get_status    10059b9f f   libucrt:_fenvutils.obj
 0001:00058c49       ___acrt_fenv_set_control   10059c49 f   libucrt:_fenvutils.obj
 0001:00058cc4       ___acrt_fenv_set_status    10059cc4 f   libucrt:_fenvutils.obj
 0001:00058dbe       ___libm_error_support      10059dbe f   libucrt:libm_error.obj
 0001:00058fb2       __87except                 10059fb2 f   libucrt:87except.obj
 0001:000590bc       __frnd                     1005a0bc f   libucrt:frnd.obj
 0001:00059187       _strncpy_s                 1005a187 f   libucrt:strncpy_s.obj
 0001:000591a0       _qsort                     1005a1a0 f   libucrt:qsort.obj
 0001:00059690       _strpbrk                   1005a690 f   libucrt:strpbrk.obj
 0001:000596d0       __mbsdec                   1005a6d0 f   libucrt:mbsdec.obj
 0001:000596e7       __mbsdec_l                 1005a6e7 f   libucrt:mbsdec.obj
 0001:00059783       __wcsnicoll                1005a783 f   libucrt:wcsnicol.obj
 0001:000597f0       __wcsnicoll_l              1005a7f0 f   libucrt:wcsnicol.obj
 0001:000598b0       __controlfp_s              1005a8b0 f   libucrt:contrlfp.obj
 0001:0005990f       _fegetenv                  1005a90f f   libucrt:fegetenv.obj
 0001:0005992c       _fesetenv                  1005a92c f   libucrt:fesetenv.obj
 0001:00059977       _feholdexcept              1005a977 f   libucrt:feholdexcept.obj
 0001:000599d0       __CIlog10                  1005a9d0 f   libucrt:log10_impl.obj
 0001:00059a0b       __CIlog10_default          1005aa0b f   libucrt:log10_impl.obj
 0001:00059a1f       __log10_default            1005aa1f     libucrt:log10_impl.obj
 0001:00059ae0       _ceil                      1005aae0 f   libucrt:ceil_pentium4.obj
 0001:00059b20       __ceil_pentium4            1005ab20 f   libucrt:ceil_pentium4.obj
 0001:00059bfd       ?reset_and_return@__crt_mbstring@@YAIIPAU_Mbstatet@@@Z 1005abfd f   libucrt:common_utf8.obj
 0001:00059c11       ?return_illegal_sequence@__crt_mbstring@@YAIPAU_Mbstatet@@AAV__crt_cached_ptd_host@@@Z 1005ac11 f   libucrt:common_utf8.obj
 0001:00059c33       ?__mbrtoc32_utf8@__crt_mbstring@@YAIPA_UPBDIPAU_Mbstatet@@AAV__crt_cached_ptd_host@@@Z 1005ac33 f   libucrt:mbrtoc32.obj
 0001:00059e10       ___dcrt_lowio_ensure_console_output_initialized 1005ae10 f   libucrt:initcon.obj
 0001:00059e2f       ___dcrt_terminate_console_output 1005ae2f f   libucrt:initcon.obj
 0001:00059e46       ___dcrt_write_console      1005ae46 f   libucrt:initcon.obj
 0001:00059ea0       ___ascii_strnicmp          1005aea0 f   libucrt:_strnicm.obj
 0001:00059f01       __get_fmode                1005af01 f   libucrt:setmode.obj
 0001:00059f2e       __setmode_nolock           1005af2e f   libucrt:setmode.obj
 0001:00059ffd       ??0__crt_seek_guard@@QAE@H_J@Z 1005affd f i libucrt:chsize.obj
 0001:0005a04a       __chsize_nolock            1005b04a f   libucrt:chsize.obj
 0001:0005a081       __chsize_nolock_internal   1005b081 f   libucrt:chsize.obj
 0001:0005a224       ___acrt_CompareStringW     1005b224 f   libucrt:comparestringw.obj
 0001:0005a330       __clearfp                  1005b330 f   libucrt:ieee87.obj
 0001:0005a40e       __control87                1005b40e f   libucrt:ieee87.obj
 0001:0005a7b0       __CIlog10_pentium4         1005b7b0 f   libucrt:log10_pentium4.obj
 0001:0005a7c8       __log10_pentium4           1005b7c8     libucrt:log10_pentium4.obj
 0001:0005aa40       __ceil_default             1005ba40 f   libucrt:ceil.obj
 0001:0005aaf5       ___acrt_initialize_fmode   1005baf5 f   libucrt:txtmode.obj
 0001:0005ab10       __FindPESection            1005bb10 f   LIBCMT:pesect.obj
 0001:0005ab60       __IsNonwritableInCurrentImage 1005bb60 f   LIBCMT:pesect.obj
 0001:0005ac20       __ValidateImageBase        1005bc20 f   LIBCMT:pesect.obj
 0001:0005ac60       __aulldvrm                 1005bc60 f   LIBCMT:ulldvrm.obj
 0001:0005ad00       __alldiv                   1005bd00 f   LIBCMT:lldiv.obj
 0001:0005adb0       __alldvrm                  1005bdb0 f   LIBCMT:lldvrm.obj
 0001:0005ae90       __allshl                   1005be90 f   LIBCMT:llshl.obj
 0001:0005aeb0       __aullshr                  1005beb0 f   LIBCMT:ullshr.obj
 0001:0005aed0       __ftol2_sse                1005bed0 f   LIBCMT:ftol2.obj
 0001:0005aee0       __ftoi2                    1005bee0 f   LIBCMT:ftol2.obj
 0001:0005af60       _strrchr                   1005bf60 f   libvcruntime:strrchr.obj
 0001:0005b0a0       _wcschr                    1005c0a0 f   libvcruntime:wcschr.obj
 0001:0005b150       __filter_x86_sse2_floating_point_exception 1005c150 f   LIBCMT:x86_exception_filter.obj
 0001:0005b150       __filter_x86_sse2_floating_point_exception_default 1005c150 f   LIBCMT:x86_exception_filter.obj
 0001:0005b1d0       __dtol3                    1005c1d0 f   LIBCMT:ftol3.obj
 0001:0005b280       __ultod3                   1005c280 f   LIBCMT:ftol3.obj
 0001:0005b2f0       __except_handler3          1005c2f0 f   libvcruntime:exsup3.obj
 0001:0005b40b       _CallDestructExceptionObject 1005c40b f   libvcruntime:calldtor.obj
 0001:0005b510       __ValidateEH3RN            1005c510 f   libvcruntime:eh3valid.obj
 0002:00000000       __imp__RegCloseKey@4       10060000     advapi32:ADVAPI32.dll
 0002:00000004       __imp__RegQueryValueExA@24 10060004     advapi32:ADVAPI32.dll
 0002:00000008       __imp__RegFlushKey@4       10060008     advapi32:ADVAPI32.dll
 0002:0000000c       __imp__RegCreateKeyExW@36  1006000c     advapi32:ADVAPI32.dll
 0002:00000010       __imp__RegEnumKeyExW@32    10060010     advapi32:ADVAPI32.dll
 0002:00000014       __imp__RegSetValueExW@24   10060014     advapi32:ADVAPI32.dll
 0002:00000018       __imp__RegOpenKeyExW@20    10060018     advapi32:ADVAPI32.dll
 0002:0000001c       __imp__RegDeleteValueW@8   1006001c     advapi32:ADVAPI32.dll
 0002:00000020       __imp__RegQueryValueExW@24 10060020     advapi32:ADVAPI32.dll
 0002:00000024       \177ADVAPI32_NULL_THUNK_DATA 10060024     advapi32:ADVAPI32.dll
 0002:00000028       __imp__GetOEMCP@0          10060028     kernel32:KERNEL32.dll
 0002:0000002c       __imp__GetACP@0            1006002c     kernel32:KERNEL32.dll
 0002:00000030       __imp__IsValidCodePage@4   10060030     kernel32:KERNEL32.dll
 0002:00000034       __imp__CreateDirectoryW@8  10060034     kernel32:KERNEL32.dll
 0002:00000038       __imp__FindFirstFileW@8    10060038     kernel32:KERNEL32.dll
 0002:0000003c       __imp__SetLastError@4      1006003c     kernel32:KERNEL32.dll
 0002:00000040       __imp__VirtualFree@12      10060040     kernel32:KERNEL32.dll
 0002:00000044       __imp__GetCurrentProcess@0 10060044     kernel32:KERNEL32.dll
 0002:00000048       __imp__WriteFile@20        10060048     kernel32:KERNEL32.dll
 0002:0000004c       __imp__OutputDebugStringA@4 1006004c     kernel32:KERNEL32.dll
 0002:00000050       __imp__VirtualAlloc@16     10060050     kernel32:KERNEL32.dll
 0002:00000054       __imp__GetModuleFileNameW@12 10060054     kernel32:KERNEL32.dll
 0002:00000058       __imp__CreateNamedPipeW@32 10060058     kernel32:KERNEL32.dll
 0002:0000005c       __imp__VirtualUnlock@8     1006005c     kernel32:KERNEL32.dll
 0002:00000060       __imp__SetThreadPriority@8 10060060     kernel32:KERNEL32.dll
 0002:00000064       __imp__InitializeCriticalSectionEx@12 10060064     kernel32:KERNEL32.dll
 0002:00000068       __imp__WaitForSingleObject@8 10060068     kernel32:KERNEL32.dll
 0002:0000006c       __imp__CreateFileW@28      1006006c     kernel32:KERNEL32.dll
 0002:00000070       __imp__GetFileAttributesW@4 10060070     kernel32:KERNEL32.dll
 0002:00000074       __imp__GetCurrentThreadId@0 10060074     kernel32:KERNEL32.dll
 0002:00000078       __imp__GetSystemDirectoryW@8 10060078     kernel32:KERNEL32.dll
 0002:0000007c       __imp__DisconnectNamedPipe@4 1006007c     kernel32:KERNEL32.dll
 0002:00000080       __imp__CreateEventW@16     10060080     kernel32:KERNEL32.dll
 0002:00000084       __imp__Sleep@4             10060084     kernel32:KERNEL32.dll
 0002:00000088       __imp__FormatMessageW@28   10060088     kernel32:KERNEL32.dll
 0002:0000008c       __imp__GetLastError@0      1006008c     kernel32:KERNEL32.dll
 0002:00000090       __imp__GetFileAttributesExW@12 10060090     kernel32:KERNEL32.dll
 0002:00000094       __imp__OutputDebugStringW@4 10060094     kernel32:KERNEL32.dll
 0002:00000098       __imp__K32GetProcessMemoryInfo@12 10060098     kernel32:KERNEL32.dll
 0002:0000009c       __imp__SetEvent@4          1006009c     kernel32:KERNEL32.dll
 0002:000000a0       __imp__FileTimeToSystemTime@8 100600a0     kernel32:KERNEL32.dll
 0002:000000a4       __imp__GetCommandLineA@0   100600a4     kernel32:KERNEL32.dll
 0002:000000a8       __imp__CloseHandle@4       100600a8     kernel32:KERNEL32.dll
 0002:000000ac       __imp__RaiseException@16   100600ac     kernel32:KERNEL32.dll
 0002:000000b0       __imp__LoadLibraryW@4      100600b0     kernel32:KERNEL32.dll
 0002:000000b4       __imp__ResetEvent@4        100600b4     kernel32:KERNEL32.dll
 0002:000000b8       __imp__FileTimeToLocalFileTime@8 100600b8     kernel32:KERNEL32.dll
 0002:000000bc       __imp__DecodePointer@4     100600bc     kernel32:KERNEL32.dll
 0002:000000c0       __imp__VirtualLock@8       100600c0     kernel32:KERNEL32.dll
 0002:000000c4       __imp__GetProcAddress@8    100600c4     kernel32:KERNEL32.dll
 0002:000000c8       __imp__LocalFree@4         100600c8     kernel32:KERNEL32.dll
 0002:000000cc       __imp__DeleteCriticalSection@4 100600cc     kernel32:KERNEL32.dll
 0002:000000d0       __imp__GetCurrentProcessId@0 100600d0     kernel32:KERNEL32.dll
 0002:000000d4       __imp__GlobalMemoryStatusEx@4 100600d4     kernel32:KERNEL32.dll
 0002:000000d8       __imp__GetModuleHandleW@4  100600d8     kernel32:KERNEL32.dll
 0002:000000dc       __imp__FreeLibrary@4       100600dc     kernel32:KERNEL32.dll
 0002:000000e0       __imp__GetSystemTimeAsFileTime@4 100600e0     kernel32:KERNEL32.dll
 0002:000000e4       __imp__QueryPerformanceCounter@4 100600e4     kernel32:KERNEL32.dll
 0002:000000e8       __imp__GetProcessHandleCount@8 100600e8     kernel32:KERNEL32.dll
 0002:000000ec       __imp__ConnectNamedPipe@8  100600ec     kernel32:KERNEL32.dll
 0002:000000f0       __imp__FlushFileBuffers@4  100600f0     kernel32:KERNEL32.dll
 0002:000000f4       __imp__FindNextFileW@8     100600f4     kernel32:KERNEL32.dll
 0002:000000f8       __imp__FindFirstFileExW@24 100600f8     kernel32:KERNEL32.dll
 0002:000000fc       __imp__FindClose@4         100600fc     kernel32:KERNEL32.dll
 0002:00000100       __imp__HeapReAlloc@16      10060100     kernel32:KERNEL32.dll
 0002:00000104       __imp__HeapSize@12         10060104     kernel32:KERNEL32.dll
 0002:00000108       __imp__ReadFile@20         10060108     kernel32:KERNEL32.dll
 0002:0000010c       __imp__GetTimeZoneInformation@4 1006010c     kernel32:KERNEL32.dll
 0002:00000110       __imp__SetFilePointerEx@20 10060110     kernel32:KERNEL32.dll
 0002:00000114       __imp__GetFileSizeEx@8     10060114     kernel32:KERNEL32.dll
 0002:00000118       __imp__GetConsoleMode@8    10060118     kernel32:KERNEL32.dll
 0002:0000011c       __imp__GetConsoleOutputCP@0 1006011c     kernel32:KERNEL32.dll
 0002:00000120       __imp__GetCommandLineW@0   10060120     kernel32:KERNEL32.dll
 0002:00000124       __imp__GetEnvironmentStringsW@0 10060124     kernel32:KERNEL32.dll
 0002:00000128       __imp__FreeEnvironmentStringsW@4 10060128     kernel32:KERNEL32.dll
 0002:0000012c       __imp__SetEnvironmentVariableW@8 1006012c     kernel32:KERNEL32.dll
 0002:00000130       __imp__GetProcessHeap@0    10060130     kernel32:KERNEL32.dll
 0002:00000134       __imp__SetStdHandle@8      10060134     kernel32:KERNEL32.dll
 0002:00000138       __imp__ReadConsoleW@20     10060138     kernel32:KERNEL32.dll
 0002:0000013c       __imp__SetEndOfFile@4      1006013c     kernel32:KERNEL32.dll
 0002:00000140       __imp__LoadLibraryA@4      10060140     kernel32:KERNEL32.dll
 0002:00000144       __imp__IsDebuggerPresent@0 10060144     kernel32:KERNEL32.dll
 0002:00000148       __imp__EnumSystemLocalesW@8 10060148     kernel32:KERNEL32.dll
 0002:0000014c       __imp__GetUserDefaultLCID@0 1006014c     kernel32:KERNEL32.dll
 0002:00000150       __imp__IsValidLocale@8     10060150     kernel32:KERNEL32.dll
 0002:00000154       __imp__GetLocaleInfoW@16   10060154     kernel32:KERNEL32.dll
 0002:00000158       __imp__LCMapStringW@24     10060158     kernel32:KERNEL32.dll
 0002:0000015c       __imp__CompareStringW@24   1006015c     kernel32:KERNEL32.dll
 0002:00000160       __imp__GetTimeFormatW@24   10060160     kernel32:KERNEL32.dll
 0002:00000164       __imp__GetDateFormatW@24   10060164     kernel32:KERNEL32.dll
 0002:00000168       __imp__HeapFree@12         10060168     kernel32:KERNEL32.dll
 0002:0000016c       __imp__HeapAlloc@12        1006016c     kernel32:KERNEL32.dll
 0002:00000170       __imp__WriteConsoleW@20    10060170     kernel32:KERNEL32.dll
 0002:00000174       __imp__GetFileType@4       10060174     kernel32:KERNEL32.dll
 0002:00000178       __imp__GetStdHandle@4      10060178     kernel32:KERNEL32.dll
 0002:0000017c       __imp__FreeLibraryAndExitThread@8 1006017c     kernel32:KERNEL32.dll
 0002:00000180       __imp__ExitThread@4        10060180     kernel32:KERNEL32.dll
 0002:00000184       __imp__CreateThread@24     10060184     kernel32:KERNEL32.dll
 0002:00000188       __imp__GetModuleHandleExW@12 10060188     kernel32:KERNEL32.dll
 0002:0000018c       __imp__ExitProcess@4       1006018c     kernel32:KERNEL32.dll
 0002:00000190       __imp__LoadLibraryExW@12   10060190     kernel32:KERNEL32.dll
 0002:00000194       __imp__TlsFree@4           10060194     kernel32:KERNEL32.dll
 0002:00000198       __imp__TlsSetValue@8       10060198     kernel32:KERNEL32.dll
 0002:0000019c       __imp__VirtualQuery@12     1006019c     kernel32:KERNEL32.dll
 0002:000001a0       __imp__EnterCriticalSection@4 100601a0     kernel32:KERNEL32.dll
 0002:000001a4       __imp__LeaveCriticalSection@4 100601a4     kernel32:KERNEL32.dll
 0002:000001a8       __imp__GetNativeSystemInfo@4 100601a8     kernel32:KERNEL32.dll
 0002:000001ac       __imp__MultiByteToWideChar@24 100601ac     kernel32:KERNEL32.dll
 0002:000001b0       __imp__GetStringTypeW@16   100601b0     kernel32:KERNEL32.dll
 0002:000001b4       __imp__InitializeSRWLock@4 100601b4     kernel32:KERNEL32.dll
 0002:000001b8       __imp__ReleaseSRWLockExclusive@4 100601b8     kernel32:KERNEL32.dll
 0002:000001bc       __imp__AcquireSRWLockExclusive@4 100601bc     kernel32:KERNEL32.dll
 0002:000001c0       __imp__TryEnterCriticalSection@4 100601c0     kernel32:KERNEL32.dll
 0002:000001c4       __imp__WideCharToMultiByte@32 100601c4     kernel32:KERNEL32.dll
 0002:000001c8       __imp__EncodePointer@4     100601c8     kernel32:KERNEL32.dll
 0002:000001cc       __imp__LCMapStringEx@36    100601cc     kernel32:KERNEL32.dll
 0002:000001d0       __imp__GetLocaleInfoEx@16  100601d0     kernel32:KERNEL32.dll
 0002:000001d4       __imp__CompareStringEx@36  100601d4     kernel32:KERNEL32.dll
 0002:000001d8       __imp__GetCPInfo@8         100601d8     kernel32:KERNEL32.dll
 0002:000001dc       __imp__IsProcessorFeaturePresent@4 100601dc     kernel32:KERNEL32.dll
 0002:000001e0       __imp__UnhandledExceptionFilter@4 100601e0     kernel32:KERNEL32.dll
 0002:000001e4       __imp__SetUnhandledExceptionFilter@4 100601e4     kernel32:KERNEL32.dll
 0002:000001e8       __imp__GetStartupInfoW@4   100601e8     kernel32:KERNEL32.dll
 0002:000001ec       __imp__InitializeSListHead@4 100601ec     kernel32:KERNEL32.dll
 0002:000001f0       __imp__TerminateProcess@8  100601f0     kernel32:KERNEL32.dll
 0002:000001f4       __imp__RtlUnwind@16        100601f4     kernel32:KERNEL32.dll
 0002:000001f8       __imp__InterlockedFlushSList@4 100601f8     kernel32:KERNEL32.dll
 0002:000001fc       __imp__InitializeCriticalSectionAndSpinCount@8 100601fc     kernel32:KERNEL32.dll
 0002:00000200       __imp__TlsAlloc@0          10060200     kernel32:KERNEL32.dll
 0002:00000204       __imp__TlsGetValue@4       10060204     kernel32:KERNEL32.dll
 0002:00000208       \177KERNEL32_NULL_THUNK_DATA 10060208     kernel32:KERNEL32.dll
 0002:0000020c       __imp__NtQuerySystemTime@4 1006020c     NTDLLDummy:NTDLL.dll
 0002:00000210       __imp__NtDelayExecution@8  10060210     NTDLLDummy:NTDLL.dll
 0002:00000214       \177NTDLL_NULL_THUNK_DATA  10060214     NTDLLDummy:NTDLL.dll
 0002:00000218       __imp__SetupDiOpenDevRegKey@24 10060218     setupapi:SETUPAPI.dll
 0002:0000021c       __imp__SetupDiCreateDevRegKeyW@28 1006021c     setupapi:SETUPAPI.dll
 0002:00000220       __imp__SetupDiCreateDeviceInfoW@28 10060220     setupapi:SETUPAPI.dll
 0002:00000224       __imp__SetupDiDestroyDeviceInfoList@4 10060224     setupapi:SETUPAPI.dll
 0002:00000228       __imp__SetupDiGetClassDevsW@16 10060228     setupapi:SETUPAPI.dll
 0002:0000022c       __imp__SetupDiRemoveDevice@8 1006022c     setupapi:SETUPAPI.dll
 0002:00000230       __imp__SetupDiEnumDeviceInfo@12 10060230     setupapi:SETUPAPI.dll
 0002:00000234       __imp__SetupDiRegisterDeviceInfo@24 10060234     setupapi:SETUPAPI.dll
 0002:00000238       __imp__SetupDiSetDeviceRegistryPropertyW@20 10060238     setupapi:SETUPAPI.dll
 0002:0000023c       \177SETUPAPI_NULL_THUNK_DATA 1006023c     setupapi:SETUPAPI.dll
 0002:00000240       __imp__IsUserAnAdmin@0     10060240     shell32:SHELL32.dll
 0002:00000244       __imp__SHGetKnownFolderPath@16 10060244     shell32:SHELL32.dll
 0002:00000248       __imp__ShellExecuteW@24    10060248     shell32:SHELL32.dll
 0002:0000024c       \177SHELL32_NULL_THUNK_DATA 1006024c     shell32:SHELL32.dll
 0002:00000250       __imp__PathFileExistsW@4   10060250     Shlwapi:SHLWAPI.dll
 0002:00000254       __imp__PathRemoveFileSpecW@4 10060254     Shlwapi:SHLWAPI.dll
 0002:00000258       __imp__PathFindFileNameW@4 10060258     Shlwapi:SHLWAPI.dll
 0002:0000025c       __imp__PathAppendW@8       1006025c     Shlwapi:SHLWAPI.dll
 0002:00000260       __imp__PathFindExtensionW@4 10060260     Shlwapi:SHLWAPI.dll
 0002:00000264       __imp__PathFindFileNameA@4 10060264     Shlwapi:SHLWAPI.dll
 0002:00000268       \177SHLWAPI_NULL_THUNK_DATA 10060268     Shlwapi:SHLWAPI.dll
 0002:0000026c       __imp__MessageBeep@4       1006026c     user32:USER32.dll
 0002:00000270       __imp__wsprintfA           10060270     user32:USER32.dll
 0002:00000274       __imp__IsWindow@4          10060274     user32:USER32.dll
 0002:00000278       __imp__GetAsyncKeyState@4  10060278     user32:USER32.dll
 0002:0000027c       __imp__MessageBoxA@16      1006027c     user32:USER32.dll
 0002:00000280       __imp__wsprintfW           10060280     user32:USER32.dll
 0002:00000284       __imp__PostThreadMessageW@16 10060284     user32:USER32.dll
 0002:00000288       __imp__PostMessageW@16     10060288     user32:USER32.dll
 0002:0000028c       __imp__MessageBoxW@16      1006028c     user32:USER32.dll
 0002:00000290       \177USER32_NULL_THUNK_DATA 10060290     user32:USER32.dll
 0002:00000294       __imp__GetFileVersionInfoW@16 10060294     Version:VERSION.dll
 0002:00000298       __imp__VerQueryValueW@16   10060298     Version:VERSION.dll
 0002:0000029c       __imp__GetFileVersionInfoSizeW@8 1006029c     Version:VERSION.dll
 0002:000002a0       \177VERSION_NULL_THUNK_DATA 100602a0     Version:VERSION.dll
 0002:000002a4       __imp__CoTaskMemFree@4     100602a4     ole32:ole32.dll
 0002:000002a8       \177ole32_NULL_THUNK_DATA  100602a8     ole32:ole32.dll
 0002:000002ac       ___guard_check_icall_fptr  100602ac     LIBCMT:guard_support.obj
 0002:000002b0       ___castguard_check_failure_os_handled_fptr 100602b0     LIBCMT:guard_support.obj
 0002:000002b4       ___xc_a                    100602b4     LIBCMT:initializers.obj
 0002:000002e8       ___xc_z                    100602e8     LIBCMT:initializers.obj
 0002:000002ec       ___xi_a                    100602ec     LIBCMT:initializers.obj
 0002:000002f4       ___acrt_stdio_initializer  100602f4     libucrt:stdio_initializer.obj
 0002:000002f8       ___acrt_timeset_initializer 100602f8     libucrt:timeset_initializer.obj
 0002:000002fc       ___acrt_tran_sse2_initializer 100602fc     libucrt:sse2_initializer.obj
 0002:00000300       ___acrt_multibyte_initializer 10060300     libucrt:multibyte_initializer.obj
 0002:00000304       ___acrt_fmode_initializer  10060304     libucrt:fmode_initializer.obj
 0002:00000308       ___xi_z                    10060308     LIBCMT:initializers.obj
 0002:0000030c       ___xp_a                    1006030c     LIBCMT:initializers.obj
 0002:00000310       ___acrt_locale_terminator  10060310     libucrt:locale_initializer.obj
 0002:00000314       ___dcrt_console_output_terminator 10060314     libucrt:console_output_initializer.obj
 0002:00000318       ___acrt_stdio_terminator   10060318     libucrt:stdio_initializer.obj
 0002:0000031c       ___xp_z                    1006031c     LIBCMT:initializers.obj
 0002:00000320       ___xt_a                    10060320     LIBCMT:initializers.obj
 0002:00000324       ___xt_z                    10060324     LIBCMT:initializers.obj
 0002:00000330       _FOLDERID_Desktop          10060330     shell32:shguid.obj
 0002:00000340       _FOLDERID_SystemX86        10060340     shell32:shguid.obj
 0002:00000350       _FOLDERID_Profile          10060350     shell32:shguid.obj
 0002:00000360       _FOLDERID_RoamingAppData   10060360     shell32:shguid.obj
 0002:00000370       _FOLDERID_System           10060370     shell32:shguid.obj
 0002:00000380       _GUID_DEVCLASS_MEDIA       10060380     uuid:cguid_i.obj
 0002:00000390       _GUID_ATLVer110            10060390     atls:atlbase.obj
 0002:000003a0       ??_C@_1IC@ONKHOIDK@?$AAE?$AAR?$AAR?$AAO?$AAR?$AA?5?$AA?3?$AA?5?$AAU?$AAn?$AAa?$AAb?$AAl?$AAe?$AA?5@ 100603a0     atls:atlbase.obj
 0002:00000428       ??_7exception@std@@6B@     10060428     libcpmt:xthrow.obj
 0002:00000434       ??_7bad_alloc@std@@6B@     10060434     libcpmt:xthrow.obj
 0002:0000043c       ??_C@_0P@GHFPNOJB@bad?5allocation@ 1006043c     libcpmt:xthrow.obj
 0002:00000450       ??_7logic_error@std@@6B@   10060450     libcpmt:xthrow.obj
 0002:0000045c       ??_7length_error@std@@6B@  1006045c     libcpmt:xthrow.obj
 0002:00000468       ??_7out_of_range@std@@6B@  10060468     libcpmt:xthrow.obj
 0002:00000474       ??_7runtime_error@std@@6B@ 10060474     libcpmt:xthrow.obj
 0002:00000480       ??_7bad_array_new_length@std@@6B@ 10060480     libcpmt:locale.obj
 0002:0000048c       ??_7bad_cast@std@@6B@      1006048c     libcpmt:locale.obj
 0002:00000498       ??_7_Facet_base@std@@6B@   10060498     libcpmt:locale.obj
 0002:000004a8       ??_7facet@locale@std@@6B@  100604a8     libcpmt:locale.obj
 0002:000004b8       ??_7codecvt_base@std@@6B@  100604b8     libcpmt:locale.obj
 0002:000004d4       ??_7ctype_base@std@@6B@    100604d4     libcpmt:locale.obj
 0002:000004e4       ??_7?$ctype@D@std@@6B@     100604e4     libcpmt:locale.obj
 0002:00000514       ??_7?$num_get@DV?$istreambuf_iterator@DU?$char_traits@D@std@@@std@@@std@@6B@ 10060514     libcpmt:locale.obj
 0002:00000550       ??_7?$num_put@DV?$ostreambuf_iterator@DU?$char_traits@D@std@@@std@@@std@@6B@ 10060550     libcpmt:locale.obj
 0002:00000580       ??_7?$numpunct@D@std@@6B@  10060580     libcpmt:locale.obj
 0002:000005a4       ??_7?$codecvt@DDU_Mbstatet@@@std@@6B@ 100605a4     libcpmt:locale.obj
 0002:000005cc       ?_Src@?1??_Getffld@?$num_get@DV?$istreambuf_iterator@DU?$char_traits@D@std@@@std@@@std@@ABAHPADAAV?$istreambuf_iterator@DU?$char_traits@D@std@@@3@1AAVios_base@3@PAH@Z@4QBDB 100605cc     libcpmt:locale.obj
 0002:000005dc       ?_Src@?1??_Getifld@?$num_get@DV?$istreambuf_iterator@DU?$char_traits@D@std@@@std@@@std@@ABAHPADAAV?$istreambuf_iterator@DU?$char_traits@D@std@@@3@1HABVlocale@3@@Z@4QBDB 100605dc     libcpmt:locale.obj
 0002:000005f8       ?_Src@?1??_Getffldx@?$num_get@DV?$istreambuf_iterator@DU?$char_traits@D@std@@@std@@@std@@ABAHPADAAV?$istreambuf_iterator@DU?$char_traits@D@std@@@3@1AAVios_base@3@PAH@Z@4QBDB 100605f8     libcpmt:locale.obj
 0002:00000618       __real@4024000000000000    10060618     libcpmt:locale.obj
 0002:00000624       ??_7_Locimp@locale@std@@6B@ 10060624     libcpmt:locale0.obj
 0002:00000630       ?nothrow@std@@3Unothrow_t@1@B 10060630     libcpmt:nothrow.obj
 0002:00000638       ?_BADOFF@std@@3_JB         10060638     libcpmt:ios.obj
 0002:00000678       ??_C@_0BI@NGCEHDD@device?5or?5resource?5busy@ 10060678     libcpmt:thread0.obj
 0002:00000690       ??_C@_0BB@FCMFBGOM@invalid?5argument@ 10060690     libcpmt:thread0.obj
 0002:000006a4       ??_C@_0BA@ENLPPKBN@no?5such?5process@ 100606a4     libcpmt:thread0.obj
 0002:000006b4       ??_C@_0BC@ENOOLCNF@not?5enough?5memory@ 100606b4     libcpmt:thread0.obj
 0002:000006c8       ??_C@_0BI@OHIEJAAB@operation?5not?5permitted@ 100606c8     libcpmt:thread0.obj
 0002:000006e0       ??_C@_0BO@BJBOMOEJ@resource?5deadlock?5would?5occur@ 100606e0     libcpmt:thread0.obj
 0002:00000700       ??_C@_0BP@LKNGHENJ@resource?5unavailable?5try?5again@ 10060700     libcpmt:thread0.obj
 0002:00000724       ??_7_System_error@std@@6B@ 10060724     libcpmt:thread0.obj
 0002:00000730       ??_7system_error@std@@6B@  10060730     libcpmt:thread0.obj
 0002:0000073c       ??_7_Generic_error_category@std@@6B@ 1006073c     libcpmt:thread0.obj
 0002:00000754       ??_C@_07DCLBNMLN@generic@  10060754     libcpmt:thread0.obj
 0002:0000075c       ??_C@_07IPNMCAN@success@   1006075c     libcpmt:thread0.obj
 0002:000007a0       ??_C@_13BPINEIPE@?$AAr@    100607a0     libcpmt:fiopen.obj
 0002:000007a4       ??_C@_13CIFDLIMG@?$AAw@    100607a4     libcpmt:fiopen.obj
 0002:000007a8       ??_C@_13FNCBLAIF@?$AAa@    100607a8     libcpmt:fiopen.obj
 0002:000007ac       ??_C@_15JJPIMNBO@?$AAr?$AAb@ 100607ac     libcpmt:fiopen.obj
 0002:000007b4       ??_C@_15MJDFFMKN@?$AAw?$AAb@ 100607b4     libcpmt:fiopen.obj
 0002:000007bc       ??_C@_15BMLKLNCL@?$AAa?$AAb@ 100607bc     libcpmt:fiopen.obj
 0002:000007c4       ??_C@_15HPOENKKJ@?$AAr?$AA?$CL@ 100607c4     libcpmt:fiopen.obj
 0002:000007cc       ??_C@_15CPCJELBK@?$AAw?$AA?$CL@ 100607cc     libcpmt:fiopen.obj
 0002:000007d4       ??_C@_17IIOMHMAG@?$AAr?$AA?$CL?$AAb@ 100607d4     libcpmt:fiopen.obj
 0002:000007dc       ??_C@_17MAAMHCGC@?$AAw?$AA?$CL?$AAb@ 100607dc     libcpmt:fiopen.obj
 0002:000007e4       ??_C@_17HKNIEKMO@?$AAa?$AA?$CL?$AAb@ 100607e4     libcpmt:fiopen.obj
 0002:00000cd8       ??_C@_0BN@LKKBCCDB@address?5family?5not?5supported@ 10060cd8     libcpmt:syserror.obj
 0002:00000cf8       ??_C@_0P@LDMLAFHI@address?5in?5use@ 10060cf8     libcpmt:syserror.obj
 0002:00000d08       ??_C@_0BG@DHPCNBJB@address?5not?5available@ 10060d08     libcpmt:syserror.obj
 0002:00000d20       ??_C@_0BC@DFIBIBIL@already?5connected@ 10060d20     libcpmt:syserror.obj
 0002:00000d34       ??_C@_0BH@CAKOHOMI@argument?5list?5too?5long@ 10060d34     libcpmt:syserror.obj
 0002:00000d4c       ??_C@_0BH@CGIMPKIM@argument?5out?5of?5domain@ 10060d4c     libcpmt:syserror.obj
 0002:00000d64       ??_C@_0M@KGHGGJGL@bad?5address@ 10060d64     libcpmt:syserror.obj
 0002:00000d70       ??_C@_0BE@MPJPGCEO@bad?5file?5descriptor@ 10060d70     libcpmt:syserror.obj
 0002:00000d84       ??_C@_0M@PMMIEFCP@bad?5message@ 10060d84     libcpmt:syserror.obj
 0002:00000d90       ??_C@_0M@KPHOFDBE@broken?5pipe@ 10060d90     libcpmt:syserror.obj
 0002:00000d9c       ??_C@_0BD@MGNDDEGM@connection?5aborted@ 10060d9c     libcpmt:syserror.obj
 0002:00000db0       ??_C@_0BP@KAIHPOGN@connection?5already?5in?5progress@ 10060db0     libcpmt:syserror.obj
 0002:00000dd0       ??_C@_0BD@PJLIIJEL@connection?5refused@ 10060dd0     libcpmt:syserror.obj
 0002:00000de4       ??_C@_0BB@IECNJNOI@connection?5reset@ 10060de4     libcpmt:syserror.obj
 0002:00000df8       ??_C@_0BC@PPHBOELF@cross?5device?5link@ 10060df8     libcpmt:syserror.obj
 0002:00000e0c       ??_C@_0BN@KDMIFEIP@destination?5address?5required@ 10060e0c     libcpmt:syserror.obj
 0002:00000e2c       ??_C@_0BE@JIDOCPHM@directory?5not?5empty@ 10060e2c     libcpmt:syserror.obj
 0002:00000e40       ??_C@_0BI@BNCLIGPB@executable?5format?5error@ 10060e40     libcpmt:syserror.obj
 0002:00000e58       ??_C@_0M@MIDIAGJP@file?5exists@ 10060e58     libcpmt:syserror.obj
 0002:00000e64       ??_C@_0P@DNAJLBJK@file?5too?5large@ 10060e64     libcpmt:syserror.obj
 0002:00000e74       ??_C@_0BC@EJHOMAAK@filename?5too?5long@ 10060e74     libcpmt:syserror.obj
 0002:00000e88       ??_C@_0BH@KEFGLDAF@function?5not?5supported@ 10060e88     libcpmt:syserror.obj
 0002:00000ea0       ??_C@_0BB@DHFDFGDM@host?5unreachable@ 10060ea0     libcpmt:syserror.obj
 0002:00000eb4       ??_C@_0BD@JPHBMONG@identifier?5removed@ 10060eb4     libcpmt:syserror.obj
 0002:00000ec8       ??_C@_0BG@CDNPAGJK@illegal?5byte?5sequence@ 10060ec8     libcpmt:syserror.obj
 0002:00000ee0       ??_C@_0CD@BNPLBMNA@inappropriate?5io?5control?5operat@ 10060ee0     libcpmt:syserror.obj
 0002:00000f04       ??_C@_0M@EGEKIIMP@interrupted@ 10060f04     libcpmt:syserror.obj
 0002:00000f10       ??_C@_0N@OHAFKDEK@invalid?5seek@ 10060f10     libcpmt:syserror.obj
 0002:00000f20       ??_C@_08GLNPIFBN@io?5error@ 10060f20     libcpmt:syserror.obj
 0002:00000f2c       ??_C@_0P@FLLDBIDK@is?5a?5directory@ 10060f2c     libcpmt:syserror.obj
 0002:00000f3c       ??_C@_0N@IFLPBIOP@message?5size@ 10060f3c     libcpmt:syserror.obj
 0002:00000f4c       ??_C@_0N@KIIEAAIO@network?5down@ 10060f4c     libcpmt:syserror.obj
 0002:00000f5c       ??_C@_0O@FNPDBHEE@network?5reset@ 10060f5c     libcpmt:syserror.obj
 0002:00000f6c       ??_C@_0BE@IFNCKGE@network?5unreachable@ 10060f6c     libcpmt:syserror.obj
 0002:00000f80       ??_C@_0BA@PFFCAOFK@no?5buffer?5space@ 10060f80     libcpmt:syserror.obj
 0002:00000f90       ??_C@_0BB@IEPBLJHK@no?5child?5process@ 10060f90     libcpmt:syserror.obj
 0002:00000fa4       ??_C@_07PLECNNKG@no?5link@ 10060fa4     libcpmt:syserror.obj
 0002:00000fac       ??_C@_0BC@NJECKMKE@no?5lock?5available@ 10060fac     libcpmt:syserror.obj
 0002:00000fc0       ??_C@_0BF@PBGGPKKE@no?5message?5available@ 10060fc0     libcpmt:syserror.obj
 0002:00000fd8       ??_C@_0L@EDOLMPAK@no?5message@ 10060fd8     libcpmt:syserror.obj
 0002:00000fe4       ??_C@_0BD@EAMBFIDF@no?5protocol?5option@ 10060fe4     libcpmt:syserror.obj
 0002:00000ff8       ??_C@_0BD@IJDJKDEA@no?5space?5on?5device@ 10060ff8     libcpmt:syserror.obj
 0002:0000100c       ??_C@_0BE@MKFDAFMP@no?5stream?5resources@ 1006100c     libcpmt:syserror.obj
 0002:00001020       ??_C@_0BK@IMCPHCBI@no?5such?5device?5or?5address@ 10061020     libcpmt:syserror.obj
 0002:0000103c       ??_C@_0P@FDINDDOK@no?5such?5device@ 1006103c     libcpmt:syserror.obj
 0002:0000104c       ??_C@_0BK@NDOCBPGE@no?5such?5file?5or?5directory@ 1006104c     libcpmt:syserror.obj
 0002:00001068       ??_C@_0BA@DOCPFFJG@not?5a?5directory@ 10061068     libcpmt:syserror.obj
 0002:00001078       ??_C@_0N@POEIPGGF@not?5a?5socket@ 10061078     libcpmt:syserror.obj
 0002:00001088       ??_C@_0N@LGAPMMPI@not?5a?5stream@ 10061088     libcpmt:syserror.obj
 0002:00001098       ??_C@_0O@GLMIBBEG@not?5connected@ 10061098     libcpmt:syserror.obj
 0002:000010a8       ??_C@_0O@NHEDABJP@not?5supported@ 100610a8     libcpmt:syserror.obj
 0002:000010b8       ??_C@_0BD@MOLBPMEA@operation?5canceled@ 100610b8     libcpmt:syserror.obj
 0002:000010cc       ??_C@_0BG@KDKHOPCO@operation?5in?5progress@ 100610cc     libcpmt:syserror.obj
 0002:000010e4       ??_C@_0BI@LNEGIFLN@operation?5not?5supported@ 100610e4     libcpmt:syserror.obj
 0002:000010fc       ??_C@_0BG@OEMDKMEE@operation?5would?5block@ 100610fc     libcpmt:syserror.obj
 0002:00001114       ??_C@_0L@BLPOFLNJ@owner?5dead@ 10061114     libcpmt:syserror.obj
 0002:00001120       ??_C@_0BC@CIJDGCDI@permission?5denied@ 10061120     libcpmt:syserror.obj
 0002:00001134       ??_C@_0P@FNPOCJBE@protocol?5error@ 10061134     libcpmt:syserror.obj
 0002:00001144       ??_C@_0BH@JPPPLHJB@protocol?5not?5supported@ 10061144     libcpmt:syserror.obj
 0002:0000115c       ??_C@_0BG@EICBIHDP@read?5only?5file?5system@ 1006115c     libcpmt:syserror.obj
 0002:00001174       ??_C@_0BE@GOIPJJHG@result?5out?5of?5range@ 10061174     libcpmt:syserror.obj
 0002:00001188       ??_C@_0BG@MPLKFPAE@state?5not?5recoverable@ 10061188     libcpmt:syserror.obj
 0002:000011a0       ??_C@_0P@DIIFGFCG@stream?5timeout@ 100611a0     libcpmt:syserror.obj
 0002:000011b0       ??_C@_0P@IPFDMIFL@text?5file?5busy@ 100611b0     libcpmt:syserror.obj
 0002:000011c0       ??_C@_09KJPPMAOI@timed?5out@ 100611c0     libcpmt:syserror.obj
 0002:000011cc       ??_C@_0BO@HACHBEKI@too?5many?5files?5open?5in?5system@ 100611cc     libcpmt:syserror.obj
 0002:000011ec       ??_C@_0BE@GHAFMPAH@too?5many?5files?5open@ 100611ec     libcpmt:syserror.obj
 0002:00001200       ??_C@_0P@HCOMKFCC@too?5many?5links@ 10061200     libcpmt:syserror.obj
 0002:00001210       ??_C@_0BO@EFGOJEF@too?5many?5symbolic?5link?5levels@ 10061210     libcpmt:syserror.obj
 0002:00001230       ??_C@_0BA@KGKGOOJA@value?5too?5large@ 10061230     libcpmt:syserror.obj
 0002:00001240       ??_C@_0BE@MIEJDDNH@wrong?5protocol?5type@ 10061240     libcpmt:syserror.obj
 0002:00001254       ??_C@_0O@BFJCFAAK@unknown?5error@ 10061254     libcpmt:syserror.obj
 0002:00001268       ??_7stl_critical_section_vista@details@Concurrency@@6B@ 10061268     libcpmt:mutex.obj
 0002:00001280       ??_7stl_critical_section_win7@details@Concurrency@@6B@ 10061280     libcpmt:mutex.obj
 0002:00001298       ??_7_Iostream_error_category2@std@@6B@ 10061298     libcpmt:wlocale.obj
 0002:000012b0       ??_C@_0FG@EOHGAEB@?3Sun?3Sunday?3Mon?3Monday?3Tue?3Tues@ 100612b0     libcpmt:wlocale.obj
 0002:00001308       ??_C@_0IH@HPGJLCCK@?3Jan?3January?3Feb?3February?3Mar?3M@ 10061308     libcpmt:wlocale.obj
 0002:00001390       ??_C@_1KM@LPDIELBN@?$AA?3?$AAS?$AAu?$AAn?$AA?3?$AAS?$AAu?$AAn?$AAd?$AAa?$AAy?$AA?3?$AAM?$AAo?$AAn@ 10061390     libcpmt:wlocale.obj
 0002:00001440       ??_C@_1BAO@JIKOGLKA@?$AA?3?$AAJ?$AAa?$AAn?$AA?3?$AAJ?$AAa?$AAn?$AAu?$AAa?$AAr?$AAy?$AA?3?$AAF?$AAe@ 10061440     libcpmt:wlocale.obj
 0002:00001554       ??_7?$codecvt@_WDU_Mbstatet@@@std@@6B@ 10061554     libcpmt:wlocale.obj
 0002:00001580       ??_7?$codecvt@GDU_Mbstatet@@@std@@6B@ 10061580     libcpmt:wlocale.obj
 0002:000015ac       ??_7?$ctype@_W@std@@6B@    100615ac     libcpmt:wlocale.obj
 0002:000015ec       ??_7?$ctype@G@std@@6B@     100615ec     libcpmt:wlocale.obj
 0002:0000162c       ??_7failure@ios_base@std@@6B@ 1006162c     libcpmt:wlocale.obj
 0002:00001638       ??_7?$time_put@_WV?$ostreambuf_iterator@_WU?$char_traits@_W@std@@@std@@@std@@6B@ 10061638     libcpmt:wlocale.obj
 0002:0000164c       ??_7?$num_get@_WV?$istreambuf_iterator@_WU?$char_traits@_W@std@@@std@@@std@@6B@ 1006164c     libcpmt:wlocale.obj
 0002:00001688       ??_7?$num_put@_WV?$ostreambuf_iterator@_WU?$char_traits@_W@std@@@std@@@std@@6B@ 10061688     libcpmt:wlocale.obj
 0002:000016b8       ??_7?$numpunct@_W@std@@6B@ 100616b8     libcpmt:wlocale.obj
 0002:000016dc       ??_7?$collate@_W@std@@6B@  100616dc     libcpmt:wlocale.obj
 0002:000016f8       ??_7?$messages@_W@std@@6B@ 100616f8     libcpmt:wlocale.obj
 0002:00001714       ??_7?$money_get@_WV?$istreambuf_iterator@_WU?$char_traits@_W@std@@@std@@@std@@6B@ 10061714     libcpmt:wlocale.obj
 0002:0000172c       ??_7?$money_put@_WV?$ostreambuf_iterator@_WU?$char_traits@_W@std@@@std@@@std@@6B@ 1006172c     libcpmt:wlocale.obj
 0002:00001744       ??_7?$_Mpunct@_W@std@@6B@  10061744     libcpmt:wlocale.obj
 0002:00001778       ??_7?$moneypunct@_W$0A@@std@@6B@ 10061778     libcpmt:wlocale.obj
 0002:000017ac       ??_7?$moneypunct@_W$00@std@@6B@ 100617ac     libcpmt:wlocale.obj
 0002:000017e0       ??_7?$time_get@_WV?$istreambuf_iterator@_WU?$char_traits@_W@std@@@std@@@std@@6B@ 100617e0     libcpmt:wlocale.obj
 0002:0000180c       ??_7?$num_get@GV?$istreambuf_iterator@GU?$char_traits@G@std@@@std@@@std@@6B@ 1006180c     libcpmt:wlocale.obj
 0002:00001848       ??_7?$num_put@GV?$ostreambuf_iterator@GU?$char_traits@G@std@@@std@@@std@@6B@ 10061848     libcpmt:wlocale.obj
 0002:00001878       ??_7?$numpunct@G@std@@6B@  10061878     libcpmt:wlocale.obj
 0002:0000189c       ??_7?$collate@G@std@@6B@   1006189c     libcpmt:wlocale.obj
 0002:000018b8       ??_7?$messages@G@std@@6B@  100618b8     libcpmt:wlocale.obj
 0002:000018d4       ??_7?$money_get@GV?$istreambuf_iterator@GU?$char_traits@G@std@@@std@@@std@@6B@ 100618d4     libcpmt:wlocale.obj
 0002:000018ec       ??_7?$money_put@GV?$ostreambuf_iterator@GU?$char_traits@G@std@@@std@@@std@@6B@ 100618ec     libcpmt:wlocale.obj
 0002:00001904       ??_7?$_Mpunct@G@std@@6B@   10061904     libcpmt:wlocale.obj
 0002:00001938       ??_7?$moneypunct@G$0A@@std@@6B@ 10061938     libcpmt:wlocale.obj
 0002:0000196c       ??_7?$moneypunct@G$00@std@@6B@ 1006196c     libcpmt:wlocale.obj
 0002:000019a0       ??_7?$time_get@GV?$istreambuf_iterator@GU?$char_traits@G@std@@@std@@@std@@6B@ 100619a0     libcpmt:wlocale.obj
 0002:000019cc       ??_7?$time_put@GV?$ostreambuf_iterator@GU?$char_traits@G@std@@@std@@@std@@6B@ 100619cc     libcpmt:wlocale.obj
 0002:000019dc       ??_C@_19OKANBMPJ@?$AA?$CB?$AA?$CF?$AAx?$AA?$AA@ 100619dc     libcpmt:wlocale.obj
 0002:000019e8       ??_C@_0BG@ELKJEKEA@?$CFb?5?$CFd?5?$CFH?5?3?5?$CFM?5?3?5?$CFS?5?$CFY@ 100619e8     libcpmt:wlocale.obj
 0002:00001a00       ??_C@_0N@LIAHCJPJ@?$CFm?5?1?5?$CFd?5?1?5?$CFy@ 10061a00     libcpmt:wlocale.obj
 0002:00001a10       ??_C@_01CLKCMJKC@?5@       10061a10     libcpmt:wlocale.obj
 0002:00001a14       ??_C@_0N@LPFKKEBD@?3AM?3am?3PM?3pm@ 10061a14     libcpmt:wlocale.obj
 0002:00001a24       ??_C@_0BA@HGEPHOKI@?$CFI?5?3?5?$CFM?5?3?5?$CFS?5?$CFp@ 10061a24     libcpmt:wlocale.obj
 0002:00001a34       ??_C@_07GLPBMING@?$CFH?5?3?5?$CFM@ 10061a34     libcpmt:wlocale.obj
 0002:00001a3c       ??_C@_0N@GEFMGHCI@?$CFH?5?3?5?$CFM?5?3?5?$CFS@ 10061a3c     libcpmt:wlocale.obj
 0002:00001a4c       ??_C@_0N@LADGFGLL@?$CFd?5?1?5?$CFm?5?1?5?$CFy@ 10061a4c     libcpmt:wlocale.obj
 0002:00001a5c       ?_Src@?1??do_put@?$money_put@GV?$ostreambuf_iterator@GU?$char_traits@G@std@@@std@@@std@@MBE?AV?$ostreambuf_iterator@GU?$char_traits@G@std@@@3@V43@_NAAVios_base@3@GABV?$basic_string@GU?$char_traits@G@std@@V?$allocator@G@2@@3@@Z@4QBDB 10061a5c     libcpmt:wlocale.obj
 0002:00001a68       ??_C@_05NNKBBLJI@?$CF?40Lf@ 10061a68     libcpmt:wlocale.obj
 0002:00001a70       ?_Src@?1??do_put@?$money_put@_WV?$ostreambuf_iterator@_WU?$char_traits@_W@std@@@std@@@std@@MBE?AV?$ostreambuf_iterator@_WU?$char_traits@_W@std@@@3@V43@_NAAVios_base@3@_WABV?$basic_string@_WU?$char_traits@_W@std@@V?$allocator@_W@2@@3@@Z@4QBDB 10061a70     libcpmt:wlocale.obj
 0002:00001a7c       ?_Src@?1??_Getmfld@?$money_get@GV?$istreambuf_iterator@GU?$char_traits@G@std@@@std@@@std@@ABE?AV?$basic_string@DU?$char_traits@D@std@@V?$allocator@D@2@@3@AAV?$istreambuf_iterator@GU?$char_traits@G@std@@@3@0_NAAVios_base@3@AAY0M@G@Z@4QBDB 10061a7c     libcpmt:wlocale.obj
 0002:00001a88       ?_Src@?1??_Getffld@?$num_get@GV?$istreambuf_iterator@GU?$char_traits@G@std@@@std@@@std@@ABAHPADAAV?$istreambuf_iterator@GU?$char_traits@G@std@@@3@1AAVios_base@3@PAH@Z@4QBDB 10061a88     libcpmt:wlocale.obj
 0002:00001a98       ?_Src@?1??_Getifld@?$num_get@GV?$istreambuf_iterator@GU?$char_traits@G@std@@@std@@@std@@ABAHPADAAV?$istreambuf_iterator@GU?$char_traits@G@std@@@3@1HABVlocale@3@@Z@4QBDB 10061a98     libcpmt:wlocale.obj
 0002:00001ab4       ?_Src@?1??_Getmfld@?$money_get@_WV?$istreambuf_iterator@_WU?$char_traits@_W@std@@@std@@@std@@ABE?AV?$basic_string@DU?$char_traits@D@std@@V?$allocator@D@2@@3@AAV?$istreambuf_iterator@_WU?$char_traits@_W@std@@@3@0_NAAVios_base@3@AAY0M@_W@Z@4QBDB 10061ab4     libcpmt:wlocale.obj
 0002:00001ac0       ?_Src@?1??_Getffld@?$num_get@_WV?$istreambuf_iterator@_WU?$char_traits@_W@std@@@std@@@std@@ABAHPADAAV?$istreambuf_iterator@_WU?$char_traits@_W@std@@@3@1AAVios_base@3@PAH@Z@4QBDB 10061ac0     libcpmt:wlocale.obj
 0002:00001ad0       ?_Src@?1??_Getifld@?$num_get@_WV?$istreambuf_iterator@_WU?$char_traits@_W@std@@@std@@@std@@ABAHPADAAV?$istreambuf_iterator@_WU?$char_traits@_W@std@@@3@1HABVlocale@3@@Z@4QBDB 10061ad0     libcpmt:wlocale.obj
 0002:00001aec       ??_C@_04FJCIEOIB@$?$CLxv@  10061aec     libcpmt:wlocale.obj
 0002:00001af4       ?_Src@?1??_Getffldx@?$num_get@GV?$istreambuf_iterator@GU?$char_traits@G@std@@@std@@@std@@ABAHPADAAV?$istreambuf_iterator@GU?$char_traits@G@std@@@3@1AAVios_base@3@PAH@Z@4QBDB 10061af4     libcpmt:wlocale.obj
 0002:00001b14       ?_Src@?1??_Getffldx@?$num_get@_WV?$istreambuf_iterator@_WU?$char_traits@_W@std@@@std@@@std@@ABAHPADAAV?$istreambuf_iterator@_WU?$char_traits@_W@std@@@3@1AAVios_base@3@PAH@Z@4QBDB 10061b14     libcpmt:wlocale.obj
 0002:00001b38       ??_C@_0HJ@PJOMAIHM@?$CLv$x?$CLv$xv$?$CLxv?$CL$xv$?$CLx?$CL$vx?$CL$vx$v?$CL@ 10061b38     libcpmt:wlocale.obj
 0002:00001bb4       ??_C@_13IMODFHAA@?$AA?9@   10061bb4     libcpmt:wlocale.obj
 0002:00001bb8       ??_C@_1BK@MHIKGOKE@?$AA?3?$AAA?$AAM?$AA?3?$AAa?$AAm?$AA?3?$AAP?$AAM?$AA?3?$AAp?$AAm@ 10061bb8     libcpmt:wlocale.obj
 0002:00001bd4       ??_C@_01JOAMLHOP@?9@       10061bd4     libcpmt:wlocale.obj
 0002:00001bd8       __real@4733426172c74d82    10061bd8     libcpmt:wlocale.obj
 0002:00001be4       ??_7?$collate@D@std@@6B@   10061be4     libcpmt:xlocale.obj
 0002:00001c00       ??_7?$messages@D@std@@6B@  10061c00     libcpmt:xlocale.obj
 0002:00001c1c       ??_7?$money_get@DV?$istreambuf_iterator@DU?$char_traits@D@std@@@std@@@std@@6B@ 10061c1c     libcpmt:xlocale.obj
 0002:00001c34       ??_7?$money_put@DV?$ostreambuf_iterator@DU?$char_traits@D@std@@@std@@@std@@6B@ 10061c34     libcpmt:xlocale.obj
 0002:00001c4c       ??_7?$_Mpunct@D@std@@6B@   10061c4c     libcpmt:xlocale.obj
 0002:00001c80       ??_7?$moneypunct@D$0A@@std@@6B@ 10061c80     libcpmt:xlocale.obj
 0002:00001cb4       ??_7?$moneypunct@D$00@std@@6B@ 10061cb4     libcpmt:xlocale.obj
 0002:00001ce8       ??_7?$time_get@DV?$istreambuf_iterator@DU?$char_traits@D@std@@@std@@@std@@6B@ 10061ce8     libcpmt:xlocale.obj
 0002:00001d14       ??_7?$time_put@DV?$ostreambuf_iterator@DU?$char_traits@D@std@@@std@@@std@@6B@ 10061d14     libcpmt:xlocale.obj
 0002:00001d24       ??_C@_04IHCGILC@?$CB?$CFx?$AA@ 10061d24     libcpmt:xlocale.obj
 0002:00001d2c       ?_Src@?1??do_put@?$money_put@DV?$ostreambuf_iterator@DU?$char_traits@D@std@@@std@@@std@@MBE?AV?$ostreambuf_iterator@DU?$char_traits@D@std@@@3@V43@_NAAVios_base@3@DABV?$basic_string@DU?$char_traits@D@std@@V?$allocator@D@2@@3@@Z@4QBDB 10061d2c     libcpmt:xlocale.obj
 0002:00001d38       ?_Src@?1??_Getmfld@?$money_get@DV?$istreambuf_iterator@DU?$char_traits@D@std@@@std@@@std@@ABE?AV?$basic_string@DU?$char_traits@D@std@@V?$allocator@D@2@@3@AAV?$istreambuf_iterator@DU?$char_traits@D@std@@@3@0_NAAVios_base@3@AAY0M@D@Z@4QBDB 10061d38     libcpmt:xlocale.obj
 0002:00001ee8       ??_C@_1BK@MGMFAEKH@?$AAk?$AAe?$AAr?$AAn?$AAe?$AAl?$AA3?$AA2?$AA?4?$AAd?$AAl?$AAl@ 10061ee8     libcpmt:winapisupp.obj
 0002:00001f04       ??_C@_08KNHFBNJ@FlsAlloc@  10061f04     libcpmt:winapisupp.obj
 0002:00001f10       ??_C@_07PEJMOBNF@FlsFree@  10061f10     libcpmt:winapisupp.obj
 0002:00001f18       ??_C@_0M@GDNOONDI@FlsGetValue@ 10061f18     libcpmt:winapisupp.obj
 0002:00001f24       ??_C@_0M@JCPCPOEF@FlsSetValue@ 10061f24     libcpmt:winapisupp.obj
 0002:00001f30       ??_C@_0BM@HCFOFFN@InitializeCriticalSectionEx@ 10061f30     libcpmt:winapisupp.obj
 0002:00001f4c       ??_C@_0BE@GPLMMCMH@InitOnceExecuteOnce@ 10061f4c     libcpmt:winapisupp.obj
 0002:00001f60       ??_C@_0P@DLHPPCNH@CreateEventExW@ 10061f60     libcpmt:winapisupp.obj
 0002:00001f70       ??_C@_0BB@MEFPJLHN@CreateSemaphoreW@ 10061f70     libcpmt:winapisupp.obj
 0002:00001f84       ??_C@_0BD@KIEEOEEH@CreateSemaphoreExW@ 10061f84     libcpmt:winapisupp.obj
 0002:00001f98       ??_C@_0BG@OGFAJCKC@CreateThreadpoolTimer@ 10061f98     libcpmt:winapisupp.obj
 0002:00001fb0       ??_C@_0BD@LPLEMMDI@SetThreadpoolTimer@ 10061fb0     libcpmt:winapisupp.obj
 0002:00001fc4       ??_C@_0CA@FMNJENH@WaitForThreadpoolTimerCallbacks@ 10061fc4     libcpmt:winapisupp.obj
 0002:00001fe4       ??_C@_0BF@DCFCCNOC@CloseThreadpoolTimer@ 10061fe4     libcpmt:winapisupp.obj
 0002:00001ffc       ??_C@_0BF@FLABGKKM@CreateThreadpoolWait@ 10061ffc     libcpmt:winapisupp.obj
 0002:00002014       ??_C@_0BC@MGCOHNA@SetThreadpoolWait@ 10062014     libcpmt:winapisupp.obj
 0002:00002028       ??_C@_0BE@OCIOMIMP@CloseThreadpoolWait@ 10062028     libcpmt:winapisupp.obj
 0002:0000203c       ??_C@_0BJ@LKGHFHBO@FlushProcessWriteBuffers@ 1006203c     libcpmt:winapisupp.obj
 0002:00002058       ??_C@_0BP@KALKKPMO@FreeLibraryWhenCallbackReturns@ 10062058     libcpmt:winapisupp.obj
 0002:00002078       ??_C@_0BK@DFNBACLA@GetCurrentProcessorNumber@ 10062078     libcpmt:winapisupp.obj
 0002:00002094       ??_C@_0BE@FKKLLFLM@CreateSymbolicLinkW@ 10062094     libcpmt:winapisupp.obj
 0002:000020a8       ??_C@_0BE@JOGNEJCI@GetCurrentPackageId@ 100620a8     libcpmt:winapisupp.obj
 0002:000020bc       ??_C@_0P@CDHHOHKP@GetTickCount64@ 100620bc     libcpmt:winapisupp.obj
 0002:000020cc       ??_C@_0BN@NEEHBBPO@GetFileInformationByHandleEx@ 100620cc     libcpmt:winapisupp.obj
 0002:000020ec       ??_C@_0BL@KBBHGKCM@SetFileInformationByHandle@ 100620ec     libcpmt:winapisupp.obj
 0002:00002108       ??_C@_0BP@FPNJPEJC@GetSystemTimePreciseAsFileTime@ 10062108     libcpmt:winapisupp.obj
 0002:00002128       ??_C@_0BM@HLJJNPAH@InitializeConditionVariable@ 10062128     libcpmt:winapisupp.obj
 0002:00002144       ??_C@_0BG@BFNILBLN@WakeConditionVariable@ 10062144     libcpmt:winapisupp.obj
 0002:0000215c       ??_C@_0BJ@PGPPEPCC@WakeAllConditionVariable@ 1006215c     libcpmt:winapisupp.obj
 0002:00002178       ??_C@_0BJ@JEBJOJFJ@SleepConditionVariableCS@ 10062178     libcpmt:winapisupp.obj
 0002:00002194       ??_C@_0BC@MMLHEBPB@InitializeSRWLock@ 10062194     libcpmt:winapisupp.obj
 0002:000021a8       ??_C@_0BI@OMNLIJDB@AcquireSRWLockExclusive@ 100621a8     libcpmt:winapisupp.obj
 0002:000021c0       ??_C@_0BL@OGHFEMNA@TryAcquireSRWLockExclusive@ 100621c0     libcpmt:winapisupp.obj
 0002:000021dc       ??_C@_0BI@HMIEPCNJ@ReleaseSRWLockExclusive@ 100621dc     libcpmt:winapisupp.obj
 0002:000021f4       ??_C@_0BK@LGACAGIC@SleepConditionVariableSRW@ 100621f4     libcpmt:winapisupp.obj
 0002:00002210       ??_C@_0BF@GGPHFPJA@CreateThreadpoolWork@ 10062210     libcpmt:winapisupp.obj
 0002:00002228       ??_C@_0BF@NHDAIMMO@SubmitThreadpoolWork@ 10062228     libcpmt:winapisupp.obj
 0002:00002240       ??_C@_0BE@NPHIPNPD@CloseThreadpoolWork@ 10062240     libcpmt:winapisupp.obj
 0002:00002254       ??_C@_0BA@IHGNDAEB@CompareStringEx@ 10062254     libcpmt:winapisupp.obj
 0002:00002264       ??_C@_0BA@ONOKGCMP@GetLocaleInfoEx@ 10062264     libcpmt:winapisupp.obj
 0002:00002274       ??_C@_0O@KKBNKAPF@LCMapStringEx@ 10062274     libcpmt:winapisupp.obj
 0002:00002288       ??_7type_info@@6B@         10062288     LIBCMT:std_type_info_static.obj
 0002:0000228c       __pDefaultRawDllMain       1006228c     LIBCMT:dll_dllmain.obj
 0002:0000228c       __pRawDllMain              1006228c     LIBCMT:dll_dllmain.obj
 0002:00002298       __pDestructExceptionObject 10062298     libvcruntime:ehhelpers.obj
 0002:000022a0       ??_7bad_exception@std@@6B@ 100622a0     libvcruntime:frame.obj
 0002:000022a8       ??_C@_0O@DPKOEFFH@bad?5exception@ 100622a8     libvcruntime:frame.obj
 0002:00002640       ??_C@_08EHJDFFNH@__based?$CI@ 10062640     libvcruntime:undname.obj
 0002:0000264c       ??_C@_07KOLFKCDI@__cdecl@  1006264c     libvcruntime:undname.obj
 0002:00002654       ??_C@_08GHMPAG@__pascal@   10062654     libvcruntime:undname.obj
 0002:00002660       ??_C@_09IFJBGAPI@__stdcall@ 10062660     libvcruntime:undname.obj
 0002:0000266c       ??_C@_0L@NPHFGOKO@__thiscall@ 1006266c     libvcruntime:undname.obj
 0002:00002678       ??_C@_0L@JMKHOMEK@__fastcall@ 10062678     libvcruntime:undname.obj
 0002:00002684       ??_C@_0N@BCKKPABJ@__vectorcall@ 10062684     libvcruntime:undname.obj
 0002:00002694       ??_C@_09HIJEGCPM@__clrcall@ 10062694     libvcruntime:undname.obj
 0002:000026a0       ??_C@_06GHPCKEAG@__eabi@   100626a0     libvcruntime:undname.obj
 0002:000026a8       ??_C@_09IOPIDJLG@__swift_1@ 100626a8     libvcruntime:undname.obj
 0002:000026b4       ??_C@_09KFNFGKHF@__swift_2@ 100626b4     libvcruntime:undname.obj
 0002:000026c0       ??_C@_09LMMOFLDE@__swift_3@ 100626c0     libvcruntime:undname.obj
 0002:000026cc       ??_C@_07JOMMBBKO@__ptr64@  100626cc     libvcruntime:undname.obj
 0002:000026d4       ??_C@_0L@PILCLIHE@__restrict@ 100626d4     libvcruntime:undname.obj
 0002:000026e0       ??_C@_0M@GFIIJFMG@__unaligned@ 100626e0     libvcruntime:undname.obj
 0002:000026ec       ??_C@_09DHDLOLLB@restrict?$CI@ 100626ec     libvcruntime:undname.obj
 0002:000026f8       ??_C@_04NIHEBCM@?5new@     100626f8     libvcruntime:undname.obj
 0002:00002700       ??_C@_07FPCDHGMM@?5delete@ 10062700     libvcruntime:undname.obj
 0002:00002708       ??_C@_01NEMOKFLO@?$DN@     10062708     libvcruntime:undname.obj
 0002:0000270c       ??_C@_02GPIOPFAK@?$DO?$DO@ 1006270c     libvcruntime:undname.obj
 0002:00002710       ??_C@_02FODMEDOG@?$DM?$DM@ 10062710     libvcruntime:undname.obj
 0002:00002714       ??_C@_01DCLJPIOD@?$CB@     10062714     libvcruntime:undname.obj
 0002:00002718       ??_C@_02EGOFBIJA@?$DN?$DN@ 10062718     libvcruntime:undname.obj
 0002:0000271c       ??_C@_02FDNJECIE@?$CB?$DN@ 1006271c     libvcruntime:undname.obj
 0002:00002720       ??_C@_02GPECMEKF@?$FL?$FN@ 10062720     libvcruntime:undname.obj
 0002:00002724       ??_C@_08LHJFAFGD@operator@ 10062724     libvcruntime:undname.obj
 0002:00002730       ??_C@_02HBOOOICD@?9?$DO@   10062730     libvcruntime:undname.obj
 0002:00002734       ??_C@_02ECNGHCIF@?$CL?$CL@ 10062734     libvcruntime:undname.obj
 0002:00002738       ??_C@_02BAABKJLB@?9?9@     10062738     libvcruntime:undname.obj
 0002:0000273c       ??_C@_01MIFGBAGJ@?$CL@     1006273c     libvcruntime:undname.obj
 0002:00002740       ??_C@_01HNPIGOCE@?$CG@     10062740     libvcruntime:undname.obj
 0002:00002744       ??_C@_03MNHNFDLC@?9?$DO?$CK@ 10062744     libvcruntime:undname.obj
 0002:00002748       ??_C@_01KMDKNFGN@?1@       10062748     libvcruntime:undname.obj
 0002:0000274c       ??_C@_01FGNFDNOH@?$CF@     1006274c     libvcruntime:undname.obj
 0002:00002750       ??_C@_01MNNFJEPP@?$DM@     10062750     libvcruntime:undname.obj
 0002:00002754       ??_C@_02EHCHHCKH@?$DM?$DN@ 10062754     libvcruntime:undname.obj
 0002:00002758       ??_C@_01PPODPGHN@?$DO@     10062758     libvcruntime:undname.obj
 0002:0000275c       ??_C@_02EEKDKGMJ@?$DO?$DN@ 1006275c     libvcruntime:undname.obj
 0002:00002760       ??_C@_01IHBHIGKO@?0@       10062760     libvcruntime:undname.obj
 0002:00002764       ??_C@_02HCKGKOFO@?$CI?$CJ@ 10062764     libvcruntime:undname.obj
 0002:00002768       ??_C@_01PJKLJHI@?$HO@      10062768     libvcruntime:undname.obj
 0002:0000276c       ??_C@_01JKBOJNNK@?$FO@     1006276c     libvcruntime:undname.obj
 0002:00002770       ??_C@_01DNKMNLPK@?$HM@     10062770     libvcruntime:undname.obj
 0002:00002774       ??_C@_02PPKAJPJL@?$CG?$CG@ 10062774     libvcruntime:undname.obj
 0002:00002778       ??_C@_02NONPIBCD@?$HM?$HM@ 10062778     libvcruntime:undname.obj
 0002:0000277c       ??_C@_02FPIMKNGF@?$CK?$DN@ 1006277c     libvcruntime:undname.obj
 0002:00002780       ??_C@_02FOEOMHFC@?$CL?$DN@ 10062780     libvcruntime:undname.obj
 0002:00002784       ??_C@_02FKMDLLOA@?9?$DN@   10062784     libvcruntime:undname.obj
 0002:00002788       ??_C@_02FJEHGPIO@?1?$DN@   10062788     libvcruntime:undname.obj
 0002:0000278c       ??_C@_02FENAOKFI@?$CF?$DN@ 1006278c     libvcruntime:undname.obj
 0002:00002790       ??_C@_03IKFCCPFF@?$DO?$DO?$DN@ 10062790     libvcruntime:undname.obj
 0002:00002794       ??_C@_03CDNPDDLA@?$DM?$DM?$DN@ 10062794     libvcruntime:undname.obj
 0002:00002798       ??_C@_02FGJGFEAB@?$CG?$DN@ 10062798     libvcruntime:undname.obj
 0002:0000279c       ??_C@_02DHLNPPGH@?$HM?$DN@ 1006279c     libvcruntime:undname.obj
 0002:000027a0       ??_C@_02MHEGNOJ@?$FO?$DN@  100627a0     libvcruntime:undname.obj
 0002:000027a4       ??_C@_09IFPLHPGF@?$GAvftable?8@ 100627a4     libvcruntime:undname.obj
 0002:000027b0       ??_C@_09BLBHBJP@?$GAvbtable?8@ 100627b0     libvcruntime:undname.obj
 0002:000027bc       ??_C@_07FEEIOKP@?$GAvcall?8@ 100627bc     libvcruntime:undname.obj
 0002:000027c4       ??_C@_08LLFFHHDJ@?$GAtypeof?8@ 100627c4     libvcruntime:undname.obj
 0002:000027d0       ??_C@_0BF@KDPPACIK@?$GAlocal?5static?5guard?8@ 100627d0     libvcruntime:undname.obj
 0002:000027e8       ??_C@_08OBABFOLI@?$GAstring?8@ 100627e8     libvcruntime:undname.obj
 0002:000027f4       ??_C@_0BD@JDLKDPAB@?$GAvbase?5destructor?8@ 100627f4     libvcruntime:undname.obj
 0002:00002808       ??_C@_0BN@DEGPLNFK@?$GAvector?5deleting?5destructor?8@ 10062808     libvcruntime:undname.obj
 0002:00002828       ??_C@_0BO@OBMKPJIG@?$GAdefault?5constructor?5closure?8@ 10062828     libvcruntime:undname.obj
 0002:00002848       ??_C@_0BN@IMDCHIKM@?$GAscalar?5deleting?5destructor?8@ 10062848     libvcruntime:undname.obj
 0002:00002868       ??_C@_0BO@PFGOCPJJ@?$GAvector?5constructor?5iterator?8@ 10062868     libvcruntime:undname.obj
 0002:00002888       ??_C@_0BN@LFPFMEDL@?$GAvector?5destructor?5iterator?8@ 10062888     libvcruntime:undname.obj
 0002:000028a8       ??_C@_0CE@IKBNEHA@?$GAvector?5vbase?5constructor?5itera@ 100628a8     libvcruntime:undname.obj
 0002:000028cc       ??_C@_0BL@NILFHHPC@?$GAvirtual?5displacement?5map?8@ 100628cc     libvcruntime:undname.obj
 0002:000028e8       ??_C@_0CB@JONCMFFK@?$GAeh?5vector?5constructor?5iterator@ 100628e8     libvcruntime:undname.obj
 0002:0000290c       ??_C@_0CA@GCEOPDGL@?$GAeh?5vector?5destructor?5iterator?8@ 1006290c     libvcruntime:undname.obj
 0002:0000292c       ??_C@_0CH@OOJPLCPH@?$GAeh?5vector?5vbase?5constructor?5it@ 1006292c     libvcruntime:undname.obj
 0002:00002954       ??_C@_0BL@LLKPOHJI@?$GAcopy?5constructor?5closure?8@ 10062954     libvcruntime:undname.obj
 0002:00002970       ??_C@_0BA@KBCDOMBN@?$GAudt?5returning?8@ 10062970     libvcruntime:undname.obj
 0002:00002980       ??_C@_03KLGMFNMG@?$GAEH@   10062980     libvcruntime:undname.obj
 0002:00002984       ??_C@_05KHLCHHI@?$GARTTI@  10062984     libvcruntime:undname.obj
 0002:0000298c       ??_C@_0BA@KKLDJDLB@?$GAlocal?5vftable?8@ 1006298c     libvcruntime:undname.obj
 0002:0000299c       ??_C@_0CE@IIHCMGGL@?$GAlocal?5vftable?5constructor?5clos@ 1006299c     libvcruntime:undname.obj
 0002:000029c0       ??_C@_06FHBGPFGH@?5new?$FL?$FN@ 100629c0     libvcruntime:undname.obj
 0002:000029c8       ??_C@_09LBNFPBCA@?5delete?$FL?$FN@ 100629c8     libvcruntime:undname.obj
 0002:000029d4       ??_C@_0P@HJKNJFNN@?$GAomni?5callsig?8@ 100629d4     libvcruntime:undname.obj
 0002:000029e4       ??_C@_0BL@CNOONJFP@?$GAplacement?5delete?5closure?8@ 100629e4     libvcruntime:undname.obj
 0002:00002a00       ??_C@_0BN@CKNJLHMB@?$GAplacement?5delete?$FL?$FN?5closure?8@ 10062a00     libvcruntime:undname.obj
 0002:00002a20       ??_C@_0CG@CFDHKGGD@?$GAmanaged?5vector?5constructor?5ite@ 10062a20     libvcruntime:undname.obj
 0002:00002a48       ??_C@_0CF@IMGKMJNO@?$GAmanaged?5vector?5destructor?5iter@ 10062a48     libvcruntime:undname.obj
 0002:00002a70       ??_C@_0CG@HLDDJMAG@?$GAeh?5vector?5copy?5constructor?5ite@ 10062a70     libvcruntime:undname.obj
 0002:00002a98       ??_C@_0CM@FCBBDIGB@?$GAeh?5vector?5vbase?5copy?5construct@ 10062a98     libvcruntime:undname.obj
 0002:00002ac4       ??_C@_0BL@CLIPGLGB@?$GAdynamic?5initializer?5for?5?8@ 10062ac4     libvcruntime:undname.obj
 0002:00002ae0       ??_C@_0CB@PDBIFEP@?$GAdynamic?5atexit?5destructor?5for?5@ 10062ae0     libvcruntime:undname.obj
 0002:00002b04       ??_C@_0CD@CGAJBKEJ@?$GAvector?5copy?5constructor?5iterat@ 10062b04     libvcruntime:undname.obj
 0002:00002b28       ??_C@_0CJ@GJELGAMM@?$GAvector?5vbase?5copy?5constructor?5@ 10062b28     libvcruntime:undname.obj
 0002:00002b54       ??_C@_0CL@FGIJHLCE@?$GAmanaged?5vector?5copy?5constructo@ 10062b54     libvcruntime:undname.obj
 0002:00002b80       ??_C@_0BM@PMGGMLDN@?$GAlocal?5static?5thread?5guard?8@ 10062b80     libvcruntime:undname.obj
 0002:00002b9c       ??_C@_0N@BDNMDMOL@operator?5?$CC?$CC?5@ 10062b9c     libvcruntime:undname.obj
 0002:00002bac       ??_C@_0BC@GGEBGALA@operator?5co_await@ 10062bac     libvcruntime:undname.obj
 0002:00002bc0       ??_C@_0M@GAAIMMOH@operator?$DM?$DN?$DO@ 10062bc0     libvcruntime:undname.obj
 0002:00002bcc       ??_C@_0BC@DAFEJGAK@?5Type?5Descriptor?8@ 10062bcc     libvcruntime:undname.obj
 0002:00002be0       ??_C@_0BM@LDKODKLH@?5Base?5Class?5Descriptor?5at?5?$CI@ 10062be0     libvcruntime:undname.obj
 0002:00002bfc       ??_C@_0BD@LGICGFMM@?5Base?5Class?5Array?8@ 10062bfc     libvcruntime:undname.obj
 0002:00002c10       ??_C@_0BN@MECKDCOJ@?5Class?5Hierarchy?5Descriptor?8@ 10062c10     libvcruntime:undname.obj
 0002:00002c30       ??_C@_0BK@CFCOFLF@?5Complete?5Object?5Locator?8@ 10062c30     libvcruntime:undname.obj
 0002:00002c4c       ??_C@_0BG@JNJLAMPM@?$GAanonymous?5namespace?8@ 10062c4c     libvcruntime:undname.obj
 0002:00002c70       ??_C@_1DM@KHCHBNEB@?$AAa?$AAp?$AAi?$AA?9?$AAm?$AAs?$AA?9?$AAw?$AAi?$AAn?$AA?9?$AAc?$AAo?$AAr?$AAe@ 10062c70     libvcruntime:winapi_downlevel.obj
 0002:00002cac       ??_C@_1DK@LPPGFMPP@?$AAa?$AAp?$AAi?$AA?9?$AAm?$AAs?$AA?9?$AAw?$AAi?$AAn?$AA?9?$AAc?$AAo?$AAr?$AAe@ 10062cac     libvcruntime:winapi_downlevel.obj
 0002:00002ce8       ??_C@_1BA@PFFKHIOG@?$AAa?$AAp?$AAi?$AA?9?$AAm?$AAs?$AA?9@ 10062ce8     libvcruntime:winapi_downlevel.obj
 0002:00002d20       ??_C@_13CGOKJPIL@?$AA?1@   10062d20     libucrt:exit.obj
 0002:00002d24       ??_C@_1BI@BGOHAHKC@?$AAm?$AAs?$AAc?$AAo?$AAr?$AAe?$AAe?$AA?4?$AAd?$AAl?$AAl@ 10062d24     libucrt:exit.obj
 0002:00002d3c       ??_C@_0P@MIGLKIOC@CorExitProcess@ 10062d3c     libucrt:exit.obj
 0002:00002d50       ?standard_lookup_table_spectre@__crt_stdio_output@@3V?$spectre_mitigated_lookup_table@Ustate_transition_pair@__crt_stdio_output@@$0IA@@1@B 10062d50     libucrt:output.obj
 0002:00002e50       ?format_validation_lookup_table_spectre@__crt_stdio_output@@3V?$spectre_mitigated_lookup_table@Ustate_transition_pair@__crt_stdio_output@@$0IA@@1@B 10062e50     libucrt:output.obj
 0002:00002f50       ??_C@_1O@CEDCILHN@?$AA?$CI?$AAn?$AAu?$AAl?$AAl?$AA?$CJ@ 10062f50     libucrt:output.obj
 0002:00002f60       ??_C@_06OJHGLDPL@?$CInull?$CJ@ 10062f60     libucrt:output.obj
 0002:00002f68       ??_C@_1M@PBPMMENC@?$AAa?$AAm?$AA?1?$AAp?$AAm@ 10062f68     libucrt:wcsftime.obj
 0002:00002f74       ??_C@_17BLFJJHMM@?$AAa?$AA?1?$AAp@ 10062f74     libucrt:wcsftime.obj
 0002:00002f7c       ??_C@_13HOIJIPNN@?$AA?5@   10062f7c     libucrt:wcsftime.obj
 0002:00002f80       ??_C@_13LBAGMAIH@?$AA?6@   10062f80     libucrt:wcsftime.obj
 0002:00002f84       ??_C@_13EBCNDICG@?$AA?3@   10062f84     libucrt:wcsftime.obj
 0002:00002f88       ??_C@_13KDLDGPGJ@?$AA?7@   10062f88     libucrt:wcsftime.obj
 0002:00002f8c       ??_C@_13KJIIAINM@?$AA?$CL@ 10062f8c     libucrt:wcsftime.obj
 0002:00002f90       ??_C@_13EJFHHPOP@?$AA?$CF@ 10062f90     libucrt:wcsftime.obj
 0002:00002f98       __real@3ff0000000000000    10062f98     libucrt:frexp.obj
 0002:00002fa0       __real@8000000000000000    10062fa0     libucrt:frexp.obj
 0002:00002fa8       ??_C@_1FE@LHBLIKM@?$AAA?$AAs?$AAs?$AAe?$AAr?$AAt?$AAi?$AAo?$AAn?$AA?5?$AAf?$AAa?$AAi?$AAl?$AAe@ 10062fa8     libucrt:assert.obj
 0002:00003000       ??_C@_1EK@MBDPDCGA@?$AAM?$AAi?$AAc?$AAr?$AAo?$AAs?$AAo?$AAf?$AAt?$AA?5?$AAV?$AAi?$AAs?$AAu?$AAa@ 10063000     libucrt:assert.obj
 0002:0000304c       ??_C@_1CE@OJBNHDMO@?$AAA?$AAs?$AAs?$AAe?$AAr?$AAt?$AAi?$AAo?$AAn?$AA?5?$AAf?$AAa?$AAi?$AAl?$AAe@ 1006304c     libucrt:assert.obj
 0002:00003070       ??_C@_1BE@PHKBBGE@?$AAP?$AAr?$AAo?$AAg?$AAr?$AAa?$AAm?$AA?3?$AA?5@ 10063070     libucrt:assert.obj
 0002:00003084       ??_C@_1O@HEMHKNDC@?$AAF?$AAi?$AAl?$AAe?$AA?3?$AA?5@ 10063084     libucrt:assert.obj
 0002:00003094       ??_C@_1O@KCAFKHJE@?$AAL?$AAi?$AAn?$AAe?$AA?3?$AA?5@ 10063094     libucrt:assert.obj
 0002:000030a4       ??_C@_1BK@PEDCIPMA@?$AAE?$AAx?$AAp?$AAr?$AAe?$AAs?$AAs?$AAi?$AAo?$AAn?$AA?3?$AA?5@ 100630a4     libucrt:assert.obj
 0002:000030c0       ??_C@_1OA@EGMLFBHJ@?$AAF?$AAo?$AAr?$AA?5?$AAi?$AAn?$AAf?$AAo?$AAr?$AAm?$AAa?$AAt?$AAi?$AAo?$AAn@ 100630c0     libucrt:assert.obj
 0002:000031a0       ??_C@_1HK@POCJMFGK@?$AA?$CI?$AAP?$AAr?$AAe?$AAs?$AAs?$AA?5?$AAR?$AAe?$AAt?$AAr?$AAy?$AA?5?$AAt?$AAo@ 100631a0     libucrt:assert.obj
 0002:0000321c       ??_C@_17LGKOMLJ@?$AA?4?$AA?4?$AA?4@ 1006321c     libucrt:assert.obj
 0002:00003224       ??_C@_15IABLJNFO@?$AA?6?$AA?6@ 10063224     libucrt:assert.obj
 0002:0000322c       ??_C@_1CO@EAEJAADC@?$AA?$DM?$AAp?$AAr?$AAo?$AAg?$AAr?$AAa?$AAm?$AA?5?$AAn?$AAa?$AAm?$AAe?$AA?5?$AAu@ 1006322c     libucrt:assert.obj
 0002:000033c8       ?large_power_data@?1??multiply_by_power_of_ten@__crt_strtox@@YA_NAAUbig_integer@2@I@Z@4QBIB 100633c8     libucrt:strtod.obj
 0002:00003cd0       ?large_power_indices@?1??multiply_by_power_of_ten@__crt_strtox@@YA_NAAUbig_integer@2@I@Z@4QBUunpack_index@?1??12@YA_N0I@Z@B 10063cd0     libucrt:strtod.obj
 0002:00003d68       ?small_powers_of_ten@?1??multiply_by_power_of_ten@__crt_strtox@@YA_NAAUbig_integer@2@I@Z@4QBIB 10063d68     libucrt:strtod.obj
 0002:00003d90       ??_C@_1GE@DPGDJKLM@?$AAm?$AAi?$AAn?$AAk?$AAe?$AAr?$AAn?$AAe?$AAl?$AA?2?$AAc?$AAr?$AAt?$AAs?$AA?2@ 10063d90     libucrt:strtod.obj
 0002:00003df8       ??_C@_1FM@FELNCOBF@?$AA_?$AA_?$AAc?$AAr?$AAt?$AA_?$AAs?$AAt?$AAr?$AAt?$AAo?$AAx?$AA?3?$AA?3?$AAf@ 10063df8     libucrt:strtod.obj
 0002:00003e54       ??_C@_1BG@GEMHBGAF@?$AA_?$AAi?$AAs?$AA_?$AAd?$AAo?$AAu?$AAb?$AAl?$AAe@ 10063e54     libucrt:strtod.obj
 0002:00003e70       ??_C@_1FK@JOJELFFO@?$AA_?$AA_?$AAc?$AAr?$AAt?$AA_?$AAs?$AAt?$AAr?$AAt?$AAo?$AAx?$AA?3?$AA?3?$AAf@ 10063e70     libucrt:strtod.obj
 0002:00003ecc       ??_C@_1BI@BANMPGJI@?$AA?$CB?$AA_?$AAi?$AAs?$AA_?$AAd?$AAo?$AAu?$AAb?$AAl?$AAe@ 10063ecc     libucrt:strtod.obj
 0002:00003ee4       ?inf_uppercase@?1???$parse_floating_point_possible_infinity@DV?$c_string_character_source@D@__crt_strtox@@PBD@__crt_strtox@@YA?AW4floating_point_parse_result@1@AADAAV?$c_string_character_source@D@1@PBD@Z@4QBDB 10063ee4     libucrt:strtod.obj
 0002:00003ee8       ?inf_lowercase@?1???$parse_floating_point_possible_infinity@DV?$c_string_character_source@D@__crt_strtox@@PBD@__crt_strtox@@YA?AW4floating_point_parse_result@1@AADAAV?$c_string_character_source@D@1@PBD@Z@4QBDB 10063ee8     libucrt:strtod.obj
 0002:00003eec       ?inity_uppercase@?1???$parse_floating_point_possible_infinity@DV?$c_string_character_source@D@__crt_strtox@@PBD@__crt_strtox@@YA?AW4floating_point_parse_result@1@AADAAV?$c_string_character_source@D@1@PBD@Z@4QBDB 10063eec     libucrt:strtod.obj
 0002:00003ef4       ?inity_lowercase@?1???$parse_floating_point_possible_infinity@DV?$c_string_character_source@D@__crt_strtox@@PBD@__crt_strtox@@YA?AW4floating_point_parse_result@1@AADAAV?$c_string_character_source@D@1@PBD@Z@4QBDB 10063ef4     libucrt:strtod.obj
 0002:00003efc       ?uppercase@?1???$parse_floating_point_possible_nan@DV?$c_string_character_source@D@__crt_strtox@@PBD@__crt_strtox@@YA?AW4floating_point_parse_result@1@AADAAV?$c_string_character_source@D@1@PBD@Z@4QBDB 10063efc     libucrt:strtod.obj
 0002:00003f00       ?lowercase@?1???$parse_floating_point_possible_nan@DV?$c_string_character_source@D@__crt_strtox@@PBD@__crt_strtox@@YA?AW4floating_point_parse_result@1@AADAAV?$c_string_character_source@D@1@PBD@Z@4QBDB 10063f00     libucrt:strtod.obj
 0002:00003f04       ?uppercase@?1???$parse_floating_point_possible_nan_is_snan@DV?$c_string_character_source@D@__crt_strtox@@@__crt_strtox@@YA_NAADAAV?$c_string_character_source@D@1@@Z@4QBDB 10063f04     libucrt:strtod.obj
 0002:00003f0c       ?lowercase@?1???$parse_floating_point_possible_nan_is_snan@DV?$c_string_character_source@D@__crt_strtox@@@__crt_strtox@@YA_NAADAAV?$c_string_character_source@D@1@@Z@4QBDB 10063f0c     libucrt:strtod.obj
 0002:00003f14       ?uppercase@?1???$parse_floating_point_possible_nan_is_ind@DV?$c_string_character_source@D@__crt_strtox@@@__crt_strtox@@YA_NAADAAV?$c_string_character_source@D@1@@Z@4QBDB 10063f14     libucrt:strtod.obj
 0002:00003f18       ?lowercase@?1???$parse_floating_point_possible_nan_is_ind@DV?$c_string_character_source@D@__crt_strtox@@@__crt_strtox@@YA_NAADAAV?$c_string_character_source@D@1@@Z@4QBDB 10063f18     libucrt:strtod.obj
 0002:00003f24       __half                     10063f24     libucrt:pow_impl.obj
 0002:00003f30       ___newctype                10063f30     libucrt:ctype.obj
 0002:00004230       ___newclmap                10064230     libucrt:ctype.obj
 0002:000043b0       ___newcumap                100643b0     libucrt:ctype.obj
 0002:00004530       __wctype                   10064530     libucrt:ctype.obj
 0002:00004738       ___acrt_exception_action_table 10064738     libucrt:exception_filter.obj
 0002:000047c8       ___acrt_signal_action_table_count 100647c8     libucrt:exception_filter.obj
 0002:000047cc       ___acrt_signal_action_first_fpe_index 100647cc     libucrt:exception_filter.obj
 0002:000047d0       ___acrt_signal_action_fpe_count 100647d0     libucrt:exception_filter.obj
 0002:00004898       ??_C@_03OEIAHPBN@INF@      10064898     libucrt:cvt.obj
 0002:0000489c       ??_C@_03OJHLLCGB@inf@      1006489c     libucrt:cvt.obj
 0002:000048a0       ??_C@_03LKNCIKJB@NAN@      100648a0     libucrt:cvt.obj
 0002:000048a4       ??_C@_03LHCJEHON@nan@      100648a4     libucrt:cvt.obj
 0002:000048a8       ??_C@_09OFJJIMPC@NAN?$CISNAN?$CJ@ 100648a8     libucrt:cvt.obj
 0002:000048b4       ??_C@_09IPFBKMDL@nan?$CIsnan?$CJ@ 100648b4     libucrt:cvt.obj
 0002:000048c0       ??_C@_08IKHNHAJ@NAN?$CIIND?$CJ@ 100648c0     libucrt:cvt.obj
 0002:000048cc       ??_C@_08OFCDMILK@nan?$CIind?$CJ@ 100648cc     libucrt:cvt.obj
 0002:000048d8       ??_C@_05KLBDPFGC@e?$CL000@ 100648d8     libucrt:cvt.obj
 0002:00004960       ___lc_category             10064960     libucrt:wsetlocale.obj
 0002:000049a8       ??_C@_1O@GIFLHMA@?$AAL?$AAC?$AA_?$AAA?$AAL?$AAL@ 100649a8     libucrt:wsetlocale.obj
 0002:000049b8       ??_C@_1BG@PPOMIBNJ@?$AAL?$AAC?$AA_?$AAC?$AAO?$AAL?$AAL?$AAA?$AAT?$AAE@ 100649b8     libucrt:wsetlocale.obj
 0002:000049d0       ??_C@_1BC@FFJGAPJM@?$AAL?$AAC?$AA_?$AAC?$AAT?$AAY?$AAP?$AAE@ 100649d0     libucrt:wsetlocale.obj
 0002:000049e4       ??_C@_1BI@PCKFNJFB@?$AAL?$AAC?$AA_?$AAM?$AAO?$AAN?$AAE?$AAT?$AAA?$AAR?$AAY@ 100649e4     libucrt:wsetlocale.obj
 0002:000049fc       ??_C@_1BG@ENIEDKID@?$AAL?$AAC?$AA_?$AAN?$AAU?$AAM?$AAE?$AAR?$AAI?$AAC@ 100649fc     libucrt:wsetlocale.obj
 0002:00004a14       ??_C@_1BA@HAAOMIIG@?$AAL?$AAC?$AA_?$AAT?$AAI?$AAM?$AAE@ 10064a14     libucrt:wsetlocale.obj
 0002:00004a24       ??_C@_15NBPDDFIP@?$AA?$DN?$AA?$DL@ 10064a24     libucrt:wsetlocale.obj
 0002:00004a2c       ??_C@_13PJJBFPED@?$AA?$DL@ 10064a2c     libucrt:wsetlocale.obj
 0002:00004a30       ??_C@_13NMPKAAJP@?$AA?$DN@ 10064a30     libucrt:wsetlocale.obj
 0002:00004a34       ??_C@_17EFJLDFDO@?$AA?9?$AA_?$AA?4@ 10064a34     libucrt:wsetlocale.obj
 0002:00004a3c       ??_C@_17MBJJLFDM@?$AA_?$AA?4?$AA?0@ 10064a3c     libucrt:wsetlocale.obj
 0002:00004a44       ??_C@_13ENNFDPBH@?$AA_@    10064a44     libucrt:wsetlocale.obj
 0002:00004a48       ??_C@_13JOFGPIOO@?$AA?4@   10064a48     libucrt:wsetlocale.obj
 0002:00004a50       ___lc_time_c               10064a50     libucrt:nlsdata.obj
 0002:00004bb4       ??_C@_03KOEHGMDN@Sun@      10064bb4     libucrt:nlsdata.obj
 0002:00004bb8       ??_C@_03PDAGKDH@Mon@       10064bb8     libucrt:nlsdata.obj
 0002:00004bbc       ??_C@_03NAGEINEP@Tue@      10064bbc     libucrt:nlsdata.obj
 0002:00004bc0       ??_C@_03MHOMLAJA@Wed@      10064bc0     libucrt:nlsdata.obj
 0002:00004bc4       ??_C@_03IOFIKPDN@Thu@      10064bc4     libucrt:nlsdata.obj
 0002:00004bc8       ??_C@_03IDIOELNC@Fri@      10064bc8     libucrt:nlsdata.obj
 0002:00004bcc       ??_C@_03FEFJNEK@Sat@       10064bcc     libucrt:nlsdata.obj
 0002:00004bd0       ??_C@_06OOPIFAJ@Sunday@    10064bd0     libucrt:nlsdata.obj
 0002:00004bd8       ??_C@_06JLEDEDGH@Monday@   10064bd8     libucrt:nlsdata.obj
 0002:00004be0       ??_C@_07BAAGCFCM@Tuesday@  10064be0     libucrt:nlsdata.obj
 0002:00004be8       ??_C@_09DLIGFAKA@Wednesday@ 10064be8     libucrt:nlsdata.obj
 0002:00004bf4       ??_C@_08HACCIKIA@Thursday@ 10064bf4     libucrt:nlsdata.obj
 0002:00004c00       ??_C@_06JECMNKMI@Friday@   10064c00     libucrt:nlsdata.obj
 0002:00004c08       ??_C@_08INBOOONO@Saturday@ 10064c08     libucrt:nlsdata.obj
 0002:00004c14       ??_C@_03JIHJHPIE@Jan@      10064c14     libucrt:nlsdata.obj
 0002:00004c18       ??_C@_03HJBDCHOM@Feb@      10064c18     libucrt:nlsdata.obj
 0002:00004c1c       ??_C@_03ODNJBKGA@Mar@      10064c1c     libucrt:nlsdata.obj
 0002:00004c20       ??_C@_03LEOLGMJP@Apr@      10064c20     libucrt:nlsdata.obj
 0002:00004c24       ??_C@_03CNMDKL@May@        10064c24     libucrt:nlsdata.obj
 0002:00004c28       ??_C@_03IDFGHECI@Jun@      10064c28     libucrt:nlsdata.obj
 0002:00004c2c       ??_C@_03LBGABGKK@Jul@      10064c2c     libucrt:nlsdata.obj
 0002:00004c30       ??_C@_03IFJFEIGA@Aug@      10064c30     libucrt:nlsdata.obj
 0002:00004c34       ??_C@_03GGCAPAJC@Sep@      10064c34     libucrt:nlsdata.obj
 0002:00004c38       ??_C@_03BMAOKBAD@Oct@      10064c38     libucrt:nlsdata.obj
 0002:00004c3c       ??_C@_03JPJOFNIA@Nov@      10064c3c     libucrt:nlsdata.obj
 0002:00004c40       ??_C@_03MKABNOCG@Dec@      10064c40     libucrt:nlsdata.obj
 0002:00004c44       ??_C@_07CGJPFGJA@January@  10064c44     libucrt:nlsdata.obj
 0002:00004c4c       ??_C@_08GNJGEPFN@February@ 10064c4c     libucrt:nlsdata.obj
 0002:00004c58       ??_C@_05HPCKOFNC@March@    10064c58     libucrt:nlsdata.obj
 0002:00004c60       ??_C@_05DMJDNLEJ@April@    10064c60     libucrt:nlsdata.obj
 0002:00004c68       ??_C@_04CNLMGBGM@June@     10064c68     libucrt:nlsdata.obj
 0002:00004c70       ??_C@_04MIEPOIFP@July@     10064c70     libucrt:nlsdata.obj
 0002:00004c78       ??_C@_06LBBHFDDG@August@   10064c78     libucrt:nlsdata.obj
 0002:00004c80       ??_C@_09BHHEALKD@September@ 10064c80     libucrt:nlsdata.obj
 0002:00004c8c       ??_C@_07JJNFCEND@October@  10064c8c     libucrt:nlsdata.obj
 0002:00004c94       ??_C@_08HCHEGEOA@November@ 10064c94     libucrt:nlsdata.obj
 0002:00004ca0       ??_C@_08EDHMEBNP@December@ 10064ca0     libucrt:nlsdata.obj
 0002:00004cac       ??_C@_02DEDBPAFC@AM@       10064cac     libucrt:nlsdata.obj
 0002:00004cb0       ??_C@_02CJNFDJBF@PM@       10064cb0     libucrt:nlsdata.obj
 0002:00004cb4       ??_C@_08BPBNCDIB@MM?1dd?1yy@ 10064cb4     libucrt:nlsdata.obj
 0002:00004cc0       ??_C@_0BE@CKGJFCPC@dddd?0?5MMMM?5dd?0?5yyyy@ 10064cc0     libucrt:nlsdata.obj
 0002:00004cd4       ??_C@_08JCCMCCIL@HH?3mm?3ss@ 10064cd4     libucrt:nlsdata.obj
 0002:00004ce0       ??_C@_17MBGCMIPB@?$AAS?$AAu?$AAn@ 10064ce0     libucrt:nlsdata.obj
 0002:00004ce8       ??_C@_17KBOMKBF@?$AAM?$AAo?$AAn@ 10064ce8     libucrt:nlsdata.obj
 0002:00004cf0       ??_C@_17BMKGEGOJ@?$AAT?$AAu?$AAe@ 10064cf0     libucrt:nlsdata.obj
 0002:00004cf8       ??_C@_17CJEDCEPE@?$AAW?$AAe?$AAd@ 10064cf8     libucrt:nlsdata.obj
 0002:00004d00       ??_C@_17PDPHAADD@?$AAT?$AAh?$AAu@ 10064d00     libucrt:nlsdata.obj
 0002:00004d08       ??_C@_17HFOLPPLP@?$AAF?$AAr?$AAi@ 10064d08     libucrt:nlsdata.obj
 0002:00004d10       ??_C@_17GGIBDPIH@?$AAS?$AAa?$AAt@ 10064d10     libucrt:nlsdata.obj
 0002:00004d18       ??_C@_1O@IHNHDHPB@?$AAS?$AAu?$AAn?$AAd?$AAa?$AAy@ 10064d18     libucrt:nlsdata.obj
 0002:00004d28       ??_C@_1O@MMNBFLIA@?$AAM?$AAo?$AAn?$AAd?$AAa?$AAy@ 10064d28     libucrt:nlsdata.obj
 0002:00004d38       ??_C@_1BA@ENFBFFEK@?$AAT?$AAu?$AAe?$AAs?$AAd?$AAa?$AAy@ 10064d38     libucrt:nlsdata.obj
 0002:00004d48       ??_C@_1BE@EBOGMDOH@?$AAW?$AAe?$AAd?$AAn?$AAe?$AAs?$AAd?$AAa?$AAy@ 10064d48     libucrt:nlsdata.obj
 0002:00004d5c       ??_C@_1BC@HHMNLIHE@?$AAT?$AAh?$AAu?$AAr?$AAs?$AAd?$AAa?$AAy@ 10064d5c     libucrt:nlsdata.obj
 0002:00004d70       ??_C@_1O@PDICJHAG@?$AAF?$AAr?$AAi?$AAd?$AAa?$AAy@ 10064d70     libucrt:nlsdata.obj
 0002:00004d80       ??_C@_1BC@ENMNNPAJ@?$AAS?$AAa?$AAt?$AAu?$AAr?$AAd?$AAa?$AAy@ 10064d80     libucrt:nlsdata.obj
 0002:00004d94       ??_C@_17DKNBKCHM@?$AAJ?$AAa?$AAn@ 10064d94     libucrt:nlsdata.obj
 0002:00004d9c       ??_C@_17LMDJEKJN@?$AAF?$AAe?$AAb@ 10064d9c     libucrt:nlsdata.obj
 0002:00004da4       ??_C@_17CKNLEDEC@?$AAM?$AAa?$AAr@ 10064da4     libucrt:nlsdata.obj
 0002:00004dac       ??_C@_17LFPOIHDD@?$AAA?$AAp?$AAr@ 10064dac     libucrt:nlsdata.obj
 0002:00004db4       ??_C@_17PNNKMEED@?$AAM?$AAa?$AAy@ 10064db4     libucrt:nlsdata.obj
 0002:00004dbc       ??_C@_17KCJGOCPB@?$AAJ?$AAu?$AAn@ 10064dbc     libucrt:nlsdata.obj
 0002:00004dc4       ??_C@_17IJPCKHK@?$AAJ?$AAu?$AAl@ 10064dc4     libucrt:nlsdata.obj
 0002:00004dcc       ??_C@_17ICPELBCN@?$AAA?$AAu?$AAg@ 10064dcc     libucrt:nlsdata.obj
 0002:00004dd4       ??_C@_17HCHCOKMG@?$AAS?$AAe?$AAp@ 10064dd4     libucrt:nlsdata.obj
 0002:00004ddc       ??_C@_17FNLKOI@?$AAO?$AAc?$AAt@ 10064ddc     libucrt:nlsdata.obj
 0002:00004de4       ??_C@_17BBDMLCIG@?$AAN?$AAo?$AAv@ 10064de4     libucrt:nlsdata.obj
 0002:00004dec       ??_C@_17EGKACKIF@?$AAD?$AAe?$AAc@ 10064dec     libucrt:nlsdata.obj
 0002:00004df4       ??_C@_1BA@EFMEIEBA@?$AAJ?$AAa?$AAn?$AAu?$AAa?$AAr?$AAy@ 10064df4     libucrt:nlsdata.obj
 0002:00004e04       ??_C@_1BC@JGDDFFAM@?$AAF?$AAe?$AAb?$AAr?$AAu?$AAa?$AAr?$AAy@ 10064e04     libucrt:nlsdata.obj
 0002:00004e18       ??_C@_1M@IKEENEDF@?$AAM?$AAa?$AAr?$AAc?$AAh@ 10064e18     libucrt:nlsdata.obj
 0002:00004e24       ??_C@_1M@GJNLMHFD@?$AAA?$AAp?$AAr?$AAi?$AAl@ 10064e24     libucrt:nlsdata.obj
 0002:00004e30       ??_C@_19EPFLPGAP@?$AAJ?$AAu?$AAn?$AAe@ 10064e30     libucrt:nlsdata.obj
 0002:00004e3c       ??_C@_19BIFMLPCD@?$AAJ?$AAu?$AAl?$AAy@ 10064e3c     libucrt:nlsdata.obj
 0002:00004e48       ??_C@_1O@PAHLKOAC@?$AAA?$AAu?$AAg?$AAu?$AAs?$AAt@ 10064e48     libucrt:nlsdata.obj
 0002:00004e58       ??_C@_1BE@DKAAMBJL@?$AAS?$AAe?$AAp?$AAt?$AAe?$AAm?$AAb?$AAe?$AAr@ 10064e58     libucrt:nlsdata.obj
 0002:00004e6c       ??_C@_1BA@EPANDLNG@?$AAO?$AAc?$AAt?$AAo?$AAb?$AAe?$AAr@ 10064e6c     libucrt:nlsdata.obj
 0002:00004e7c       ??_C@_1BC@BGLIFPF@?$AAN?$AAo?$AAv?$AAe?$AAm?$AAb?$AAe?$AAr@ 10064e7c     libucrt:nlsdata.obj
 0002:00004e90       ??_C@_1BC@FEMKIFH@?$AAD?$AAe?$AAc?$AAe?$AAm?$AAb?$AAe?$AAr@ 10064e90     libucrt:nlsdata.obj
 0002:00004ea4       ??_C@_15ODEHAHHF@?$AAA?$AAM@ 10064ea4     libucrt:nlsdata.obj
 0002:00004eac       ??_C@_15CLMNNGEL@?$AAP?$AAM@ 10064eac     libucrt:nlsdata.obj
 0002:00004eb4       ??_C@_1BC@IEBCMHCM@?$AAM?$AAM?$AA?1?$AAd?$AAd?$AA?1?$AAy?$AAy@ 10064eb4     libucrt:nlsdata.obj
 0002:00004ec8       ??_C@_1CI@KNAKOEBC@?$AAd?$AAd?$AAd?$AAd?$AA?0?$AA?5?$AAM?$AAM?$AAM?$AAM?$AA?5?$AAd?$AAd?$AA?0?$AA?5@ 10064ec8     libucrt:nlsdata.obj
 0002:00004ef0       ??_C@_1BC@GDGBMEMK@?$AAH?$AAH?$AA?3?$AAm?$AAm?$AA?3?$AAs?$AAs@ 10064ef0     libucrt:nlsdata.obj
 0002:00004f04       ??_C@_1M@BMHNFIME@?$AAe?$AAn?$AA?9?$AAU?$AAS@ 10064f04     libucrt:nlsdata.obj
 0002:00004f60       ??_C@_1EA@JGEFHKEI@?$AAa?$AAp?$AAi?$AA?9?$AAm?$AAs?$AA?9?$AAw?$AAi?$AAn?$AA?9?$AAc?$AAo?$AAr?$AAe@ 10064f60     libucrt:winapi_thunks.obj
 0002:00004fa0       ??_C@_1DI@IJCEHOCB@?$AAa?$AAp?$AAi?$AA?9?$AAm?$AAs?$AA?9?$AAw?$AAi?$AAn?$AA?9?$AAc?$AAo?$AAr?$AAe@ 10064fa0     libucrt:winapi_thunks.obj
 0002:00004fd8       ??_C@_1EI@MPIAOHOC@?$AAa?$AAp?$AAi?$AA?9?$AAm?$AAs?$AA?9?$AAw?$AAi?$AAn?$AA?9?$AAc?$AAo?$AAr?$AAe@ 10064fd8     libucrt:winapi_thunks.obj
 0002:00005020       ??_C@_1FK@FPHCKFIE@?$AAa?$AAp?$AAi?$AA?9?$AAm?$AAs?$AA?9?$AAw?$AAi?$AAn?$AA?9?$AAc?$AAo?$AAr?$AAe@ 10065020     libucrt:winapi_thunks.obj
 0002:00005080       ??_C@_1EM@DILCGIIO@?$AAa?$AAp?$AAi?$AA?9?$AAm?$AAs?$AA?9?$AAw?$AAi?$AAn?$AA?9?$AAc?$AAo?$AAr?$AAe@ 10065080     libucrt:winapi_thunks.obj
 0002:000050cc       ??_C@_1DM@LNCGDDPN@?$AAa?$AAp?$AAi?$AA?9?$AAm?$AAs?$AA?9?$AAw?$AAi?$AAn?$AA?9?$AAc?$AAo?$AAr?$AAe@ 100650cc     libucrt:winapi_thunks.obj
 0002:00005108       ??_C@_1DO@FPAPJEMD@?$AAa?$AAp?$AAi?$AA?9?$AAm?$AAs?$AA?9?$AAw?$AAi?$AAn?$AA?9?$AAc?$AAo?$AAr?$AAe@ 10065108     libucrt:winapi_thunks.obj
 0002:00005148       ??_C@_1DK@NDHNAHIO@?$AAa?$AAp?$AAi?$AA?9?$AAm?$AAs?$AA?9?$AAw?$AAi?$AAn?$AA?9?$AAc?$AAo?$AAr?$AAe@ 10065148     libucrt:winapi_thunks.obj
 0002:00005184       ??_C@_1DM@KGHDGBCM@?$AAa?$AAp?$AAi?$AA?9?$AAm?$AAs?$AA?9?$AAw?$AAi?$AAn?$AA?9?$AAc?$AAo?$AAr?$AAe@ 10065184     libucrt:winapi_thunks.obj
 0002:000051c0       ??_C@_1EO@IJIOEFOH@?$AAa?$AAp?$AAi?$AA?9?$AAm?$AAs?$AA?9?$AAw?$AAi?$AAn?$AA?9?$AAr?$AAt?$AAc?$AAo@ 100651c0     libucrt:winapi_thunks.obj
 0002:00005210       ??_C@_1FG@HHGEKANL@?$AAa?$AAp?$AAi?$AA?9?$AAm?$AAs?$AA?9?$AAw?$AAi?$AAn?$AA?9?$AAs?$AAe?$AAc?$AAu@ 10065210     libucrt:winapi_thunks.obj
 0002:00005268       ??_C@_1EG@DBIOJECG@?$AAe?$AAx?$AAt?$AA?9?$AAm?$AAs?$AA?9?$AAw?$AAi?$AAn?$AA?9?$AAn?$AAt?$AAu?$AAs@ 10065268     libucrt:winapi_thunks.obj
 0002:000052b0       ??_C@_1EO@FIHMJCLF@?$AAe?$AAx?$AAt?$AA?9?$AAm?$AAs?$AA?9?$AAw?$AAi?$AAn?$AA?9?$AAn?$AAt?$AAu?$AAs@ 100652b0     libucrt:winapi_thunks.obj
 0002:00005300       ??_C@_1BC@DNHGCMLG@?$AAa?$AAd?$AAv?$AAa?$AAp?$AAi?$AA3?$AA2@ 10065300     libucrt:winapi_thunks.obj
 0002:00005314       ??_C@_1M@OAIMIKLP@?$AAn?$AAt?$AAd?$AAl?$AAl@ 10065314     libucrt:winapi_thunks.obj
 0002:00005320       ??_C@_1EG@DPGNFKGC@?$AAa?$AAp?$AAi?$AA?9?$AAm?$AAs?$AA?9?$AAw?$AAi?$AAn?$AA?9?$AAa?$AAp?$AAp?$AAm@ 10065320     libucrt:winapi_thunks.obj
 0002:00005368       ??_C@_1O@BCCLBEOE@?$AAu?$AAs?$AAe?$AAr?$AA3?$AA2@ 10065368     libucrt:winapi_thunks.obj
 0002:00005378       ??_C@_1DM@BPJLHKCE@?$AAa?$AAp?$AAi?$AA?9?$AAm?$AAs?$AA?9?$AAw?$AAi?$AAn?$AA?9?$AAc?$AAo?$AAr?$AAe@ 10065378     libucrt:winapi_thunks.obj
 0002:000053b4       ??_C@_1BA@IAIFMGEF@?$AAe?$AAx?$AAt?$AA?9?$AAm?$AAs?$AA?9@ 100653b4     libucrt:winapi_thunks.obj
 0002:000053c8       ??_C@_0BA@FHFNEAED@AreFileApisANSI@ 100653c8     libucrt:winapi_thunks.obj
 0002:000053e8       ??_C@_0BE@LJANKFHF@EnumSystemLocalesEx@ 100653e8     libucrt:winapi_thunks.obj
 0002:00005404       ??_C@_0BA@HNOPNCHB@GetActiveWindow@ 10065404     libucrt:winapi_thunks.obj
 0002:0000541c       ??_C@_0BA@EPCJIIPD@GetDateFormatEx@ 1006541c     libucrt:winapi_thunks.obj
 0002:00005434       ??_C@_0BD@HHGDFDBJ@GetLastActivePopup@ 10065434     libucrt:winapi_thunks.obj
 0002:00005458       ??_C@_0BI@DFKBFLJE@GetProcessWindowStation@ 10065458     libucrt:winapi_thunks.obj
 0002:00005478       ??_C@_0BA@CIJJKCJJ@GetTimeFormatEx@ 10065478     libucrt:winapi_thunks.obj
 0002:00005490       ??_C@_0BJ@PBCCBIPI@GetUserDefaultLocaleName@ 10065490     libucrt:winapi_thunks.obj
 0002:000054b4       ??_C@_0BK@DEKFELLI@GetUserObjectInformationW@ 100654b4     libucrt:winapi_thunks.obj
 0002:000054e0       ??_C@_0BC@CELBKLLA@IsValidLocaleName@ 100654e0     libucrt:winapi_thunks.obj
 0002:00005504       ??_C@_0BB@CDHDDLLP@LCIDToLocaleName@ 10065504     libucrt:winapi_thunks.obj
 0002:00005520       ??_C@_0BB@HBDEELFH@LocaleNameToLCID@ 10065520     libucrt:winapi_thunks.obj
 0002:0000553c       ??_C@_0M@CHKKJDAI@MessageBoxA@ 1006553c     libucrt:winapi_thunks.obj
 0002:00005550       ??_C@_0M@DLDCCGNP@MessageBoxW@ 10065550     libucrt:winapi_thunks.obj
 0002:00005560       ??_C@_0N@PPOMPGGK@RoInitialize@ 10065560     libucrt:winapi_thunks.obj
 0002:00005574       ??_C@_0P@LLFHBIJD@RoUninitialize@ 10065574     libucrt:winapi_thunks.obj
 0002:00005588       ??_C@_0CF@OJOFEIGO@AppPolicyGetProcessTerminationM@ 10065588     libucrt:winapi_thunks.obj
 0002:000055b4       ??_C@_0CF@NNDFDCOC@AppPolicyGetThreadInitializatio@ 100655b4     libucrt:winapi_thunks.obj
 0002:000055e0       ??_C@_0CE@OICFMIKE@AppPolicyGetShowDeveloperDiagno@ 100655e0     libucrt:winapi_thunks.obj
 0002:00005608       ??_C@_0BL@ODDJNEDA@AppPolicyGetWindowingModel@ 10065608     libucrt:winapi_thunks.obj
 0002:00005644       __days                     10065644     libucrt:days.obj
 0002:00005678       __lpdays                   10065678     libucrt:days.obj
 0002:000056ac       ?ccs@?1???$__acrt_stdio_parse_mode@_W@@YA?AU__acrt_stdio_stream_mode@@QB_W@Z@4QB_WB 100656ac     libucrt:openfile.obj
 0002:000056b4       ?utf8_encoding@?1???$__acrt_stdio_parse_mode@_W@@YA?AU__acrt_stdio_stream_mode@@QB_W@Z@4QB_WB 100656b4     libucrt:openfile.obj
 0002:000056c0       ?utf16_encoding@?1???$__acrt_stdio_parse_mode@_W@@YA?AU__acrt_stdio_stream_mode@@QB_W@Z@4QB_WB 100656c0     libucrt:openfile.obj
 0002:000056d0       ?unicode_encoding@?1???$__acrt_stdio_parse_mode@_W@@YA?AU__acrt_stdio_stream_mode@@QB_W@Z@4QB_WB 100656d0     libucrt:openfile.obj
 0002:000056e0       ??_C@_15HNJCPLHL@?$AAT?$AAZ@ 100656e0     libucrt:tzset.obj
 0002:000057d0       ??_C@_03KHJOGHMM@exp@      100657d0     libucrt:fpexcept.obj
 0002:000057d4       ??_C@_03JGHBODFD@pow@      100657d4     libucrt:fpexcept.obj
 0002:000057d8       ??_C@_03MGHMBJCF@log@      100657d8     libucrt:fpexcept.obj
 0002:000057dc       ??_C@_05HGHHAHAP@log10@    100657dc     libucrt:fpexcept.obj
 0002:000057e4       ??_C@_04COOMCNPB@sinh@     100657e4     libucrt:fpexcept.obj
 0002:000057ec       ??_C@_04HPJJNFIM@cosh@     100657ec     libucrt:fpexcept.obj
 0002:000057f4       ??_C@_04FJHINJAO@tanh@     100657f4     libucrt:fpexcept.obj
 0002:000057fc       ??_C@_04FIHNOPOL@asin@     100657fc     libucrt:fpexcept.obj
 0002:00005804       ??_C@_04PDIFKINK@acos@     10065804     libucrt:fpexcept.obj
 0002:0000580c       ??_C@_04MLLJIGOK@atan@     1006580c     libucrt:fpexcept.obj
 0002:00005814       ??_C@_05KNGEOGJB@atan2@    10065814     libucrt:fpexcept.obj
 0002:0000581c       ??_C@_04EIAKFFMI@sqrt@     1006581c     libucrt:fpexcept.obj
 0002:00005824       ??_C@_03BLEJJJBH@sin@      10065824     libucrt:fpexcept.obj
 0002:00005828       ??_C@_03LALBNOCG@cos@      10065828     libucrt:fpexcept.obj
 0002:0000582c       ??_C@_03IIINPABG@tan@      1006582c     libucrt:fpexcept.obj
 0002:00005830       ??_C@_04GFPJNGEK@ceil@     10065830     libucrt:fpexcept.obj
 0002:00005838       ??_C@_05PBJFFIGL@floor@    10065838     libucrt:fpexcept.obj
 0002:00005840       ??_C@_04ODHECPBC@fabs@     10065840     libucrt:fpexcept.obj
 0002:00005848       ??_C@_04EHEDPDJG@modf@     10065848     libucrt:fpexcept.obj
 0002:00005850       ??_C@_05CEJMAHNP@ldexp@    10065850     libucrt:fpexcept.obj
 0002:00005858       ??_C@_05KBKMEMPO@_cabs@    10065858     libucrt:fpexcept.obj
 0002:00005860       ??_C@_06MEIMCGCF@_hypot@   10065860     libucrt:fpexcept.obj
 0002:00005868       ??_C@_04KEPJIHGP@fmod@     10065868     libucrt:fpexcept.obj
 0002:00005870       ??_C@_05GKKHEGJL@frexp@    10065870     libucrt:fpexcept.obj
 0002:00005878       ??_C@_03MJLDFKDL@_y0@      10065878     libucrt:fpexcept.obj
 0002:0000587c       ??_C@_03NAKIGLHK@_y1@      1006587c     libucrt:fpexcept.obj
 0002:00005880       ??_C@_03ONILCKOB@_yn@      10065880     libucrt:fpexcept.obj
 0002:00005884       ??_C@_05JGDBENOH@_logb@    10065884     libucrt:fpexcept.obj
 0002:0000588c       ??_C@_0L@KDOEJCKC@_nextafter@ 1006588c     libucrt:fpexcept.obj
 0002:00005898       __d_inf                    10065898     libucrt:util.obj
 0002:000058a0       __d_max                    100658a0     libucrt:util.obj
 0002:000058a8       __d_mzero                  100658a8     libucrt:util.obj
 0002:00005990       __infinity                 10065990     libucrt:87tran.obj
 0002:0000599a       __minfinity                1006599a     libucrt:87tran.obj
 0002:000059a4       __logemax                  100659a4     libucrt:87tran.obj
 0002:000059ca       __OP_EXPjmptab             100659ca     libucrt:87tran.obj
 0002:000059f0       __indefinite               100659f0     libucrt:87disp.obj
 0002:000059fa       __piby2                    100659fa     libucrt:87disp.obj
 0002:00005a04       __piby4                    10065a04     libucrt:87disp.obj
 0002:00005a38       __DEFAULT_CW_in_mem        10065a38     libucrt:common.obj
 0002:00005a3a       __pi_by_2_to_61            10065a3a     libucrt:common.obj
 0002:00005a78       __real@3fe0000000000000    10065a78     libucrt:powhlp.obj
 0002:00005a90       ??_C@_1M@HPNHIDJI@?$AAj?$AAa?$AA?9?$AAJ?$AAP@ 10065a90     libucrt:mbctype.obj
 0002:00005a9c       ??_C@_1M@BIBDDEMK@?$AAz?$AAh?$AA?9?$AAC?$AAN@ 10065a9c     libucrt:mbctype.obj
 0002:00005aa8       ??_C@_1M@JLOOOEGK@?$AAk?$AAo?$AA?9?$AAK?$AAR@ 10065aa8     libucrt:mbctype.obj
 0002:00005ab4       ??_C@_1M@CLNBBOPM@?$AAz?$AAh?$AA?9?$AAT?$AAW@ 10065ab4     libucrt:mbctype.obj
 0002:00005ac0       ??_C@_01GBGANLPD@0@        10065ac0     libucrt:cfout.obj
 0002:00005ac4       ??_C@_05DNEBIAHO@1?$CDINF@ 10065ac4     libucrt:cfout.obj
 0002:00005acc       ??_C@_06IMKFLFPG@1?$CDQNAN@ 10065acc     libucrt:cfout.obj
 0002:00005ad4       ??_C@_06PGGFOGJG@1?$CDSNAN@ 10065ad4     libucrt:cfout.obj
 0002:00005adc       ??_C@_05PHHOCPM@1?$CDIND@  10065adc     libucrt:cfout.obj
 0002:00005ae8       ___acrt_rg_language        10065ae8     libucrt:get_qualified_locale.obj
 0002:00005df4       ___acrt_rg_language_count  10065df4     libucrt:get_qualified_locale.obj
 0002:00005df8       ___acrt_rg_country         10065df8     libucrt:get_qualified_locale.obj
 0002:00005f0c       ___acrt_rg_country_count   10065f0c     libucrt:get_qualified_locale.obj
 0002:00005f10       ??_C@_1BC@LLOKLNP@?$AAa?$AAm?$AAe?$AAr?$AAi?$AAc?$AAa?$AAn@ 10065f10     libucrt:get_qualified_locale.obj
 0002:00005f24       ??_C@_1CC@HEIGCDGG@?$AAa?$AAm?$AAe?$AAr?$AAi?$AAc?$AAa?$AAn?$AA?5?$AAe?$AAn?$AAg?$AAl?$AAi?$AAs@ 10065f24     libucrt:get_qualified_locale.obj
 0002:00005f48       ??_C@_1CC@IHCNOMIN@?$AAa?$AAm?$AAe?$AAr?$AAi?$AAc?$AAa?$AAn?$AA?9?$AAe?$AAn?$AAg?$AAl?$AAi?$AAs@ 10065f48     libucrt:get_qualified_locale.obj
 0002:00005f6c       ??_C@_1BG@GKAGPCGG@?$AAa?$AAu?$AAs?$AAt?$AAr?$AAa?$AAl?$AAi?$AAa?$AAn@ 10065f6c     libucrt:get_qualified_locale.obj
 0002:00005f84       ??_C@_1BA@GMENCENF@?$AAb?$AAe?$AAl?$AAg?$AAi?$AAa?$AAn@ 10065f84     libucrt:get_qualified_locale.obj
 0002:00005f94       ??_C@_1BC@PJMIIAAN@?$AAc?$AAa?$AAn?$AAa?$AAd?$AAi?$AAa?$AAn@ 10065f94     libucrt:get_qualified_locale.obj
 0002:00005fa8       ??_C@_17NOIMNFBF@?$AAc?$AAh?$AAh@ 10065fa8     libucrt:get_qualified_locale.obj
 0002:00005fb0       ??_C@_17GGDALCHA@?$AAc?$AAh?$AAi@ 10065fb0     libucrt:get_qualified_locale.obj
 0002:00005fb8       ??_C@_1BA@NPNJKIBL@?$AAc?$AAh?$AAi?$AAn?$AAe?$AAs?$AAe@ 10065fb8     libucrt:get_qualified_locale.obj
 0002:00005fc8       ??_C@_1CC@DINBAMMJ@?$AAc?$AAh?$AAi?$AAn?$AAe?$AAs?$AAe?$AA?9?$AAh?$AAo?$AAn?$AAg?$AAk?$AAo?$AAn@ 10065fc8     libucrt:get_qualified_locale.obj
 0002:00005fec       ??_C@_1CG@IOBJPACO@?$AAc?$AAh?$AAi?$AAn?$AAe?$AAs?$AAe?$AA?9?$AAs?$AAi?$AAm?$AAp?$AAl?$AAi?$AAf@ 10065fec     libucrt:get_qualified_locale.obj
 0002:00006014       ??_C@_1CE@GAJNDCKG@?$AAc?$AAh?$AAi?$AAn?$AAe?$AAs?$AAe?$AA?9?$AAs?$AAi?$AAn?$AAg?$AAa?$AAp?$AAo@ 10066014     libucrt:get_qualified_locale.obj
 0002:00006038       ??_C@_1CI@PAJPIOOD@?$AAc?$AAh?$AAi?$AAn?$AAe?$AAs?$AAe?$AA?9?$AAt?$AAr?$AAa?$AAd?$AAi?$AAt?$AAi@ 10066038     libucrt:get_qualified_locale.obj
 0002:00006060       ??_C@_1BM@NILJBMMD@?$AAd?$AAu?$AAt?$AAc?$AAh?$AA?9?$AAb?$AAe?$AAl?$AAg?$AAi?$AAa?$AAn@ 10066060     libucrt:get_qualified_locale.obj
 0002:0000607c       ??_C@_1CC@OOJPJNEJ@?$AAe?$AAn?$AAg?$AAl?$AAi?$AAs?$AAh?$AA?9?$AAa?$AAm?$AAe?$AAr?$AAi?$AAc?$AAa@ 1006607c     libucrt:get_qualified_locale.obj
 0002:000060a0       ??_C@_1BI@IOLFEEM@?$AAe?$AAn?$AAg?$AAl?$AAi?$AAs?$AAh?$AA?9?$AAa?$AAu?$AAs@ 100660a0     libucrt:get_qualified_locale.obj
 0002:000060b8       ??_C@_1BO@HFFNLENJ@?$AAe?$AAn?$AAg?$AAl?$AAi?$AAs?$AAh?$AA?9?$AAb?$AAe?$AAl?$AAi?$AAz?$AAe@ 100660b8     libucrt:get_qualified_locale.obj
 0002:000060d8       ??_C@_1BI@HAPKJMPO@?$AAe?$AAn?$AAg?$AAl?$AAi?$AAs?$AAh?$AA?9?$AAc?$AAa?$AAn@ 100660d8     libucrt:get_qualified_locale.obj
 0002:000060f0       ??_C@_1CE@HLNDMIOJ@?$AAe?$AAn?$AAg?$AAl?$AAi?$AAs?$AAh?$AA?9?$AAc?$AAa?$AAr?$AAi?$AAb?$AAb?$AAe@ 100660f0     libucrt:get_qualified_locale.obj
 0002:00006114       ??_C@_1BI@LDHJHHAC@?$AAe?$AAn?$AAg?$AAl?$AAi?$AAs?$AAh?$AA?9?$AAi?$AAr?$AAe@ 10066114     libucrt:get_qualified_locale.obj
 0002:0000612c       ??_C@_1CA@NJMMCFOC@?$AAe?$AAn?$AAg?$AAl?$AAi?$AAs?$AAh?$AA?9?$AAj?$AAa?$AAm?$AAa?$AAi?$AAc?$AAa@ 1006612c     libucrt:get_qualified_locale.obj
 0002:0000614c       ??_C@_1BG@BHJEBBGG@?$AAe?$AAn?$AAg?$AAl?$AAi?$AAs?$AAh?$AA?9?$AAn?$AAz@ 1006614c     libucrt:get_qualified_locale.obj
 0002:00006164       ??_C@_1CK@FGOEJJCO@?$AAe?$AAn?$AAg?$AAl?$AAi?$AAs?$AAh?$AA?9?$AAs?$AAo?$AAu?$AAt?$AAh?$AA?5?$AAa@ 10066164     libucrt:get_qualified_locale.obj
 0002:00006190       ??_C@_1DE@PDBJPCJ@?$AAe?$AAn?$AAg?$AAl?$AAi?$AAs?$AAh?$AA?9?$AAt?$AAr?$AAi?$AAn?$AAi?$AAd?$AAa@ 10066190     libucrt:get_qualified_locale.obj
 0002:000061c4       ??_C@_1BG@JGCANDME@?$AAe?$AAn?$AAg?$AAl?$AAi?$AAs?$AAh?$AA?9?$AAu?$AAk@ 100661c4     libucrt:get_qualified_locale.obj
 0002:000061dc       ??_C@_1BG@DINKMLE@?$AAe?$AAn?$AAg?$AAl?$AAi?$AAs?$AAh?$AA?9?$AAu?$AAs@ 100661dc     libucrt:get_qualified_locale.obj
 0002:000061f4       ??_C@_1BI@NMFDBHJE@?$AAe?$AAn?$AAg?$AAl?$AAi?$AAs?$AAh?$AA?9?$AAu?$AAs?$AAa@ 100661f4     libucrt:get_qualified_locale.obj
 0002:0000620c       ??_C@_1BO@OIHKJKII@?$AAf?$AAr?$AAe?$AAn?$AAc?$AAh?$AA?9?$AAb?$AAe?$AAl?$AAg?$AAi?$AAa?$AAn@ 1006620c     libucrt:get_qualified_locale.obj
 0002:0000622c       ??_C@_1CA@NKAELJKI@?$AAf?$AAr?$AAe?$AAn?$AAc?$AAh?$AA?9?$AAc?$AAa?$AAn?$AAa?$AAd?$AAi?$AAa?$AAn@ 1006622c     libucrt:get_qualified_locale.obj
 0002:0000624c       ??_C@_1CE@MGKCNLGN@?$AAf?$AAr?$AAe?$AAn?$AAc?$AAh?$AA?9?$AAl?$AAu?$AAx?$AAe?$AAm?$AAb?$AAo?$AAu@ 1006624c     libucrt:get_qualified_locale.obj
 0002:00006270       ??_C@_1BK@CEGEAILM@?$AAf?$AAr?$AAe?$AAn?$AAc?$AAh?$AA?9?$AAs?$AAw?$AAi?$AAs?$AAs@ 10066270     libucrt:get_qualified_locale.obj
 0002:0000628c       ??_C@_1CA@PAFKEOCC@?$AAg?$AAe?$AAr?$AAm?$AAa?$AAn?$AA?9?$AAa?$AAu?$AAs?$AAt?$AAr?$AAi?$AAa?$AAn@ 1006628c     libucrt:get_qualified_locale.obj
 0002:000062ac       ??_C@_1CI@HCFHGOFD@?$AAg?$AAe?$AAr?$AAm?$AAa?$AAn?$AA?9?$AAl?$AAi?$AAc?$AAh?$AAt?$AAe?$AAn?$AAs@ 100662ac     libucrt:get_qualified_locale.obj
 0002:000062d4       ??_C@_1CE@FEDDNPDG@?$AAg?$AAe?$AAr?$AAm?$AAa?$AAn?$AA?9?$AAl?$AAu?$AAx?$AAe?$AAm?$AAb?$AAo?$AAu@ 100662d4     libucrt:get_qualified_locale.obj
 0002:000062f8       ??_C@_1BK@LIMINNMN@?$AAg?$AAe?$AAr?$AAm?$AAa?$AAn?$AA?9?$AAs?$AAw?$AAi?$AAs?$AAs@ 100662f8     libucrt:get_qualified_locale.obj
 0002:00006314       ??_C@_1BM@LGMDBEPD@?$AAi?$AAr?$AAi?$AAs?$AAh?$AA?9?$AAe?$AAn?$AAg?$AAl?$AAi?$AAs?$AAh@ 10066314     libucrt:get_qualified_locale.obj
 0002:00006330       ??_C@_1BM@NNCFBAEE@?$AAi?$AAt?$AAa?$AAl?$AAi?$AAa?$AAn?$AA?9?$AAs?$AAw?$AAi?$AAs?$AAs@ 10066330     libucrt:get_qualified_locale.obj
 0002:0000634c       ??_C@_1BE@FEDJNPIB@?$AAn?$AAo?$AAr?$AAw?$AAe?$AAg?$AAi?$AAa?$AAn@ 1006634c     libucrt:get_qualified_locale.obj
 0002:00006360       ??_C@_1CC@CILKDEIE@?$AAn?$AAo?$AAr?$AAw?$AAe?$AAg?$AAi?$AAa?$AAn?$AA?9?$AAb?$AAo?$AAk?$AAm?$AAa@ 10066360     libucrt:get_qualified_locale.obj
 0002:00006384       ??_C@_1CE@DHMMHEPL@?$AAn?$AAo?$AAr?$AAw?$AAe?$AAg?$AAi?$AAa?$AAn?$AA?9?$AAn?$AAy?$AAn?$AAo?$AAr@ 10066384     libucrt:get_qualified_locale.obj
 0002:000063a8       ??_C@_1CK@OPNMHECD@?$AAp?$AAo?$AAr?$AAt?$AAu?$AAg?$AAu?$AAe?$AAs?$AAe?$AA?9?$AAb?$AAr?$AAa?$AAz@ 100663a8     libucrt:get_qualified_locale.obj
 0002:000063d4       ??_C@_1CE@KEEHCDB@?$AAs?$AAp?$AAa?$AAn?$AAi?$AAs?$AAh?$AA?9?$AAa?$AAr?$AAg?$AAe?$AAn?$AAt?$AAi@ 100663d4     libucrt:get_qualified_locale.obj
 0002:000063f8       ??_C@_1CA@GIAOLHJD@?$AAs?$AAp?$AAa?$AAn?$AAi?$AAs?$AAh?$AA?9?$AAb?$AAo?$AAl?$AAi?$AAv?$AAi?$AAa@ 100663f8     libucrt:get_qualified_locale.obj
 0002:00006418       ??_C@_1BM@OJNDFNPD@?$AAs?$AAp?$AAa?$AAn?$AAi?$AAs?$AAh?$AA?9?$AAc?$AAh?$AAi?$AAl?$AAe@ 10066418     libucrt:get_qualified_locale.obj
 0002:00006434       ??_C@_1CC@OCOLPALL@?$AAs?$AAp?$AAa?$AAn?$AAi?$AAs?$AAh?$AA?9?$AAc?$AAo?$AAl?$AAo?$AAm?$AAb?$AAi@ 10066434     libucrt:get_qualified_locale.obj
 0002:00006458       ??_C@_1CG@BPOFMKBB@?$AAs?$AAp?$AAa?$AAn?$AAi?$AAs?$AAh?$AA?9?$AAc?$AAo?$AAs?$AAt?$AAa?$AA?5?$AAr@ 10066458     libucrt:get_qualified_locale.obj
 0002:00006480       ??_C@_1DG@IGOBAPBB@?$AAs?$AAp?$AAa?$AAn?$AAi?$AAs?$AAh?$AA?9?$AAd?$AAo?$AAm?$AAi?$AAn?$AAi?$AAc@ 10066480     libucrt:get_qualified_locale.obj
 0002:000064b8       ??_C@_1CA@JHAPGEGI@?$AAs?$AAp?$AAa?$AAn?$AAi?$AAs?$AAh?$AA?9?$AAe?$AAc?$AAu?$AAa?$AAd?$AAo?$AAr@ 100664b8     libucrt:get_qualified_locale.obj
 0002:000064d8       ??_C@_1CI@LAPALJPP@?$AAs?$AAp?$AAa?$AAn?$AAi?$AAs?$AAh?$AA?9?$AAe?$AAl?$AA?5?$AAs?$AAa?$AAl?$AAv@ 100664d8     libucrt:get_qualified_locale.obj
 0002:00006500       ??_C@_1CE@PDGBOFOM@?$AAs?$AAp?$AAa?$AAn?$AAi?$AAs?$AAh?$AA?9?$AAg?$AAu?$AAa?$AAt?$AAe?$AAm?$AAa@ 10066500     libucrt:get_qualified_locale.obj
 0002:00006524       ??_C@_1CC@NBEBAODI@?$AAs?$AAp?$AAa?$AAn?$AAi?$AAs?$AAh?$AA?9?$AAh?$AAo?$AAn?$AAd?$AAu?$AAr?$AAa@ 10066524     libucrt:get_qualified_locale.obj
 0002:00006548       ??_C@_1CA@LLKGHBMF@?$AAs?$AAp?$AAa?$AAn?$AAi?$AAs?$AAh?$AA?9?$AAm?$AAe?$AAx?$AAi?$AAc?$AAa?$AAn@ 10066548     libucrt:get_qualified_locale.obj
 0002:00006568       ??_C@_1BO@LKNDOIGD@?$AAs?$AAp?$AAa?$AAn?$AAi?$AAs?$AAh?$AA?9?$AAm?$AAo?$AAd?$AAe?$AAr?$AAn@ 10066568     libucrt:get_qualified_locale.obj
 0002:00006588       ??_C@_1CE@NMDMOEEB@?$AAs?$AAp?$AAa?$AAn?$AAi?$AAs?$AAh?$AA?9?$AAn?$AAi?$AAc?$AAa?$AAr?$AAa?$AAg@ 10066588     libucrt:get_qualified_locale.obj
 0002:000065ac       ??_C@_1BO@LLCBEJGB@?$AAs?$AAp?$AAa?$AAn?$AAi?$AAs?$AAh?$AA?9?$AAp?$AAa?$AAn?$AAa?$AAm?$AAa@ 100665ac     libucrt:get_qualified_locale.obj
 0002:000065cc       ??_C@_1CC@FKPGGIHO@?$AAs?$AAp?$AAa?$AAn?$AAi?$AAs?$AAh?$AA?9?$AAp?$AAa?$AAr?$AAa?$AAg?$AAu?$AAa@ 100665cc     libucrt:get_qualified_locale.obj
 0002:000065f0       ??_C@_1BK@CDEIHOOP@?$AAs?$AAp?$AAa?$AAn?$AAi?$AAs?$AAh?$AA?9?$AAp?$AAe?$AAr?$AAu@ 100665f0     libucrt:get_qualified_locale.obj
 0002:0000660c       ??_C@_1CI@GAHAKKGP@?$AAs?$AAp?$AAa?$AAn?$AAi?$AAs?$AAh?$AA?9?$AAp?$AAu?$AAe?$AAr?$AAt?$AAo?$AA?5@ 1006660c     libucrt:get_qualified_locale.obj
 0002:00006634       ??_C@_1CA@NKJBCAGP@?$AAs?$AAp?$AAa?$AAn?$AAi?$AAs?$AAh?$AA?9?$AAu?$AAr?$AAu?$AAg?$AAu?$AAa?$AAy@ 10066634     libucrt:get_qualified_locale.obj
 0002:00006654       ??_C@_1CE@ODILCONM@?$AAs?$AAp?$AAa?$AAn?$AAi?$AAs?$AAh?$AA?9?$AAv?$AAe?$AAn?$AAe?$AAz?$AAu?$AAe@ 10066654     libucrt:get_qualified_locale.obj
 0002:00006678       ??_C@_1CA@OBNMCGFO@?$AAs?$AAw?$AAe?$AAd?$AAi?$AAs?$AAh?$AA?9?$AAf?$AAi?$AAn?$AAl?$AAa?$AAn?$AAd@ 10066678     libucrt:get_qualified_locale.obj
 0002:00006698       ??_C@_1M@PIPDDPPI@?$AAs?$AAw?$AAi?$AAs?$AAs@ 10066698     libucrt:get_qualified_locale.obj
 0002:000066a4       ??_C@_15PJPFLCCM@?$AAu?$AAk@ 100666a4     libucrt:get_qualified_locale.obj
 0002:000066ac       ??_C@_15GMFIMNFM@?$AAu?$AAs@ 100666ac     libucrt:get_qualified_locale.obj
 0002:000066b4       ??_C@_17HAEBFAGL@?$AAu?$AAs?$AAa@ 100666b4     libucrt:get_qualified_locale.obj
 0002:000066bc       ??_C@_1BA@DPFJEPHB@?$AAa?$AAm?$AAe?$AAr?$AAi?$AAc?$AAa@ 100666bc     libucrt:get_qualified_locale.obj
 0002:000066cc       ??_C@_1BA@ELOGGFK@?$AAb?$AAr?$AAi?$AAt?$AAa?$AAi?$AAn@ 100666cc     libucrt:get_qualified_locale.obj
 0002:000066dc       ??_C@_1M@GHBGIGDA@?$AAc?$AAh?$AAi?$AAn?$AAa@ 100666dc     libucrt:get_qualified_locale.obj
 0002:000066e8       ??_C@_1M@NCHEJOPO@?$AAc?$AAz?$AAe?$AAc?$AAh@ 100666e8     libucrt:get_qualified_locale.obj
 0002:000066f4       ??_C@_1BA@BKPAPBLA@?$AAe?$AAn?$AAg?$AAl?$AAa?$AAn?$AAd@ 100666f4     libucrt:get_qualified_locale.obj
 0002:00006704       ??_C@_1BM@HKBCKIPC@?$AAg?$AAr?$AAe?$AAa?$AAt?$AA?5?$AAb?$AAr?$AAi?$AAt?$AAa?$AAi?$AAn@ 10066704     libucrt:get_qualified_locale.obj
 0002:00006720       ??_C@_1BA@PPCHPGJB@?$AAh?$AAo?$AAl?$AAl?$AAa?$AAn?$AAd@ 10066720     libucrt:get_qualified_locale.obj
 0002:00006730       ??_C@_1BE@JBMPEGDG@?$AAh?$AAo?$AAn?$AAg?$AA?9?$AAk?$AAo?$AAn?$AAg@ 10066730     libucrt:get_qualified_locale.obj
 0002:00006744       ??_C@_1BI@KOELBBPJ@?$AAn?$AAe?$AAw?$AA?9?$AAz?$AAe?$AAa?$AAl?$AAa?$AAn?$AAd@ 10066744     libucrt:get_qualified_locale.obj
 0002:0000675c       ??_C@_15HIEBHAIO@?$AAn?$AAz@ 1006675c     libucrt:get_qualified_locale.obj
 0002:00006764       ??_C@_1BC@CHBCPFPI@?$AAp?$AAr?$AA?5?$AAc?$AAh?$AAi?$AAn?$AAa@ 10066764     libucrt:get_qualified_locale.obj
 0002:00006778       ??_C@_1BC@JAOIIFKD@?$AAp?$AAr?$AA?9?$AAc?$AAh?$AAi?$AAn?$AAa@ 10066778     libucrt:get_qualified_locale.obj
 0002:0000678c       ??_C@_1BI@BEHPPHKC@?$AAp?$AAu?$AAe?$AAr?$AAt?$AAo?$AA?9?$AAr?$AAi?$AAc?$AAo@ 1006678c     libucrt:get_qualified_locale.obj
 0002:000067a4       ??_C@_1O@PAEOFKDI@?$AAs?$AAl?$AAo?$AAv?$AAa?$AAk@ 100667a4     libucrt:get_qualified_locale.obj
 0002:000067b4       ??_C@_1BK@FIHMCKAM@?$AAs?$AAo?$AAu?$AAt?$AAh?$AA?5?$AAa?$AAf?$AAr?$AAi?$AAc?$AAa@ 100667b4     libucrt:get_qualified_locale.obj
 0002:000067d0       ??_C@_1BI@NAEOODKB@?$AAs?$AAo?$AAu?$AAt?$AAh?$AA?5?$AAk?$AAo?$AAr?$AAe?$AAa@ 100667d0     libucrt:get_qualified_locale.obj
 0002:000067e8       ??_C@_1BK@FBDGGIFF@?$AAs?$AAo?$AAu?$AAt?$AAh?$AA?9?$AAa?$AAf?$AAr?$AAi?$AAc?$AAa@ 100667e8     libucrt:get_qualified_locale.obj
 0002:00006804       ??_C@_1BI@GHLEJDPK@?$AAs?$AAo?$AAu?$AAt?$AAh?$AA?9?$AAk?$AAo?$AAr?$AAe?$AAa@ 10066804     libucrt:get_qualified_locale.obj
 0002:0000681c       ??_C@_1CE@PLHLOMJF@?$AAt?$AAr?$AAi?$AAn?$AAi?$AAd?$AAa?$AAd?$AA?5?$AA?$CG?$AA?5?$AAt?$AAo?$AAb?$AAa@ 1006681c     libucrt:get_qualified_locale.obj
 0002:00006840       ??_C@_1BO@MODIMHHI@?$AAu?$AAn?$AAi?$AAt?$AAe?$AAd?$AA?9?$AAk?$AAi?$AAn?$AAg?$AAd?$AAo?$AAm@ 10066840     libucrt:get_qualified_locale.obj
 0002:00006860       ??_C@_1BM@FFHJONBJ@?$AAu?$AAn?$AAi?$AAt?$AAe?$AAd?$AA?9?$AAs?$AAt?$AAa?$AAt?$AAe?$AAs@ 10066860     libucrt:get_qualified_locale.obj
 0002:0000687c       ??_C@_19MPDNHKDG@?$AAu?$AAt?$AAf?$AA8@ 1006687c     libucrt:get_qualified_locale.obj
 0002:00006888       ??_C@_17DNCLJFIF@?$AAA?$AAC?$AAP@ 10066888     libucrt:get_qualified_locale.obj
 0002:00006890       ??_C@_1M@FPEIIFAM@?$AAu?$AAt?$AAf?$AA?9?$AA8@ 10066890     libucrt:get_qualified_locale.obj
 0002:0000689c       ??_C@_17CIKBIHLH@?$AAO?$AAC?$AAP@ 1006689c     libucrt:get_qualified_locale.obj
 0002:000068a4       ___rglangidNotDefault      100668a4     libucrt:getqloc_downlevel.obj
 0002:00006fd8       ??_C@_15EMKDOKLE@?$AAa?$AAr@ 10066fd8     libucrt:lcidtoname_downlevel.obj
 0002:00006fe0       ??_C@_15KNPADPLH@?$AAb?$AAg@ 10066fe0     libucrt:lcidtoname_downlevel.obj
 0002:00006fe8       ??_C@_15EDMHLDMO@?$AAc?$AAa@ 10066fe8     libucrt:lcidtoname_downlevel.obj
 0002:00006ff0       ??_C@_1O@BPEAJADD@?$AAz?$AAh?$AA?9?$AAC?$AAH?$AAS@ 10066ff0     libucrt:lcidtoname_downlevel.obj
 0002:00007000       ??_C@_15LJNHCMNK@?$AAc?$AAs@ 10067000     libucrt:lcidtoname_downlevel.obj
 0002:00007008       ??_C@_15FOMCIDHG@?$AAd?$AAa@ 10067008     libucrt:lcidtoname_downlevel.obj
 0002:00007010       ??_C@_15NBKABECB@?$AAd?$AAe@ 10067010     libucrt:lcidtoname_downlevel.obj
 0002:00007018       ??_C@_15GHPEIIAO@?$AAe?$AAl@ 10067018     libucrt:lcidtoname_downlevel.obj
 0002:00007020       ??_C@_15MNPNEAIF@?$AAe?$AAn@ 10067020     libucrt:lcidtoname_downlevel.obj
 0002:00007028       ??_C@_15GPIOMPMH@?$AAe?$AAs@ 10067028     libucrt:lcidtoname_downlevel.obj
 0002:00007030       ??_C@_15NGLOAKJC@?$AAf?$AAi@ 10067030     libucrt:lcidtoname_downlevel.obj
 0002:00007038       ??_C@_15FBKGNKAM@?$AAf?$AAr@ 10067038     libucrt:lcidtoname_downlevel.obj
 0002:00007040       ??_C@_15KGGCNEFK@?$AAh?$AAe@ 10067040     libucrt:lcidtoname_downlevel.obj
 0002:00007048       ??_C@_15PGHLIDMF@?$AAh?$AAu@ 10067048     libucrt:lcidtoname_downlevel.obj
 0002:00007050       ??_C@_15BIEMAPLM@?$AAi?$AAs@ 10067050     libucrt:lcidtoname_downlevel.obj
 0002:00007058       ??_C@_15IFJLDHAF@?$AAi?$AAt@ 10067058     libucrt:lcidtoname_downlevel.obj
 0002:00007060       ??_C@_15GEMIOCAG@?$AAj?$AAa@ 10067060     libucrt:lcidtoname_downlevel.obj
 0002:00007068       ??_C@_15EPELEGJA@?$AAk?$AAo@ 10067068     libucrt:lcidtoname_downlevel.obj
 0002:00007070       ??_C@_15NDDHIMN@?$AAn?$AAl@ 10067070     libucrt:lcidtoname_downlevel.obj
 0002:00007078       ??_C@_15BPIGNHCD@?$AAn?$AAo@ 10067078     libucrt:lcidtoname_downlevel.obj
 0002:00007080       ??_C@_15DEOPBLCG@?$AAp?$AAl@ 10067080     libucrt:lcidtoname_downlevel.obj
 0002:00007088       ??_C@_15KBECGEFG@?$AAp?$AAt@ 10067088     libucrt:lcidtoname_downlevel.obj
 0002:00007090       ??_C@_15GLJCBFMD@?$AAr?$AAo@ 10067090     libucrt:lcidtoname_downlevel.obj
 0002:00007098       ??_C@_15FEDGKCDI@?$AAr?$AAu@ 10067098     libucrt:lcidtoname_downlevel.obj
 0002:000070a0       ??_C@_15GLKMLLHM@?$AAh?$AAr@ 100670a0     libucrt:lcidtoname_downlevel.obj
 0002:000070a8       ??_C@_15CPKMFBDB@?$AAs?$AAk@ 100670a8     libucrt:lcidtoname_downlevel.obj
 0002:000070b0       ??_C@_15BAAIOGMK@?$AAs?$AAq@ 100670b0     libucrt:lcidtoname_downlevel.obj
 0002:000070b8       ??_C@_15INNPNOHD@?$AAs?$AAv@ 100670b8     libucrt:lcidtoname_downlevel.obj
 0002:000070c0       ??_C@_15CABMMOGH@?$AAt?$AAh@ 100670c0     libucrt:lcidtoname_downlevel.obj
 0002:000070c8       ??_C@_15BPLIHJJM@?$AAt?$AAr@ 100670c8     libucrt:lcidtoname_downlevel.obj
 0002:000070d0       ??_C@_15NEOEKKDJ@?$AAu?$AAr@ 100670d0     libucrt:lcidtoname_downlevel.obj
 0002:000070d8       ??_C@_15NFICGAJK@?$AAi?$AAd@ 100670d8     libucrt:lcidtoname_downlevel.obj
 0002:000070e0       ??_C@_15HPJPHDM@?$AAb?$AAe@ 100670e0     libucrt:lcidtoname_downlevel.obj
 0002:000070e8       ??_C@_15LCHLGJII@?$AAs?$AAl@ 100670e8     libucrt:lcidtoname_downlevel.obj
 0002:000070f0       ??_C@_15PCFJPHHO@?$AAe?$AAt@ 100670f0     libucrt:lcidtoname_downlevel.obj
 0002:000070f8       ??_C@_15HPFPGODN@?$AAl?$AAv@ 100670f8     libucrt:lcidtoname_downlevel.obj
 0002:00007100       ??_C@_15NFFGKGLG@?$AAl?$AAt@ 10067100     libucrt:lcidtoname_downlevel.obj
 0002:00007108       ??_C@_15BDAKCCHN@?$AAf?$AAa@ 10067108     libucrt:lcidtoname_downlevel.obj
 0002:00007110       ??_C@_15NFGIAIAJ@?$AAv?$AAi@ 10067110     libucrt:lcidtoname_downlevel.obj
 0002:00007118       ??_C@_15LMKNDMHN@?$AAh?$AAy@ 10067118     libucrt:lcidtoname_downlevel.obj
 0002:00007120       ??_C@_15IJBHMCFL@?$AAa?$AAz@ 10067120     libucrt:lcidtoname_downlevel.obj
 0002:00007128       ??_C@_15EKOFJABL@?$AAe?$AAu@ 10067128     libucrt:lcidtoname_downlevel.obj
 0002:00007130       ??_C@_15BGHADCNK@?$AAm?$AAk@ 10067130     libucrt:lcidtoname_downlevel.obj
 0002:00007138       ??_C@_15JDNICKHM@?$AAa?$AAf@ 10067138     libucrt:lcidtoname_downlevel.obj
 0002:00007140       ??_C@_15KPJEDBKD@?$AAk?$AAa@ 10067140     libucrt:lcidtoname_downlevel.obj
 0002:00007148       ??_C@_15PDNFFFEO@?$AAf?$AAo@ 10067148     libucrt:lcidtoname_downlevel.obj
 0002:00007150       ??_C@_15OMLEGLOC@?$AAh?$AAi@ 10067150     libucrt:lcidtoname_downlevel.obj
 0002:00007158       ??_C@_15IDNNENKK@?$AAm?$AAs@ 10067158     libucrt:lcidtoname_downlevel.obj
 0002:00007160       ??_C@_15MACJNBMH@?$AAk?$AAk@ 10067160     libucrt:lcidtoname_downlevel.obj
 0002:00007168       ??_C@_15DKDJEOND@?$AAk?$AAy@ 10067168     libucrt:lcidtoname_downlevel.obj
 0002:00007170       ??_C@_15DFGDLJBG@?$AAs?$AAw@ 10067170     libucrt:lcidtoname_downlevel.obj
 0002:00007178       ??_C@_15BBFAICNG@?$AAu?$AAz@ 10067178     libucrt:lcidtoname_downlevel.obj
 0002:00007180       ??_C@_15DKNDCGEA@?$AAt?$AAt@ 10067180     libucrt:lcidtoname_downlevel.obj
 0002:00007188       ??_C@_15MGIFMDPL@?$AAp?$AAa@ 10067188     libucrt:lcidtoname_downlevel.obj
 0002:00007190       ??_C@_15HCNDBBA@?$AAg?$AAu@ 10067190     libucrt:lcidtoname_downlevel.obj
 0002:00007198       ??_C@_15FNBEIBON@?$AAt?$AAa@ 10067198     libucrt:lcidtoname_downlevel.obj
 0002:000071a0       ??_C@_15NCHGBGLK@?$AAt?$AAe@ 100671a0     libucrt:lcidtoname_downlevel.obj
 0002:000071a8       ??_C@_15PHPHCBPF@?$AAk?$AAn@ 100671a8     libucrt:lcidtoname_downlevel.obj
 0002:000071b0       ??_C@_15DLGBCKMP@?$AAm?$AAr@ 100671b0     libucrt:lcidtoname_downlevel.obj
 0002:000071b8       ??_C@_15EABBLBFF@?$AAs?$AAa@ 100671b8     libucrt:lcidtoname_downlevel.obj
 0002:000071c0       ??_C@_15CBKOMCOI@?$AAm?$AAn@ 100671c0     libucrt:lcidtoname_downlevel.obj
 0002:000071c8       ??_C@_15CKDMCJAF@?$AAg?$AAl@ 100671c8     libucrt:lcidtoname_downlevel.obj
 0002:000071d0       ??_C@_17CNJFBPG@?$AAk?$AAo?$AAk@ 100671d0     libucrt:lcidtoname_downlevel.obj
 0002:000071d8       ??_C@_17FFBJICPL@?$AAs?$AAy?$AAr@ 100671d8     libucrt:lcidtoname_downlevel.obj
 0002:000071e0       ??_C@_17KPNDCPAF@?$AAd?$AAi?$AAv@ 100671e0     libucrt:lcidtoname_downlevel.obj
 0002:000071e8       ??_C@_1M@OKAHONE@?$AAa?$AAr?$AA?9?$AAS?$AAA@ 100671e8     libucrt:lcidtoname_downlevel.obj
 0002:000071f4       ??_C@_1M@FFFIGIGK@?$AAb?$AAg?$AA?9?$AAB?$AAG@ 100671f4     libucrt:lcidtoname_downlevel.obj
 0002:00007200       ??_C@_1M@BJNKEDC@?$AAc?$AAa?$AA?9?$AAE?$AAS@ 10067200     libucrt:lcidtoname_downlevel.obj
 0002:0000720c       ??_C@_1M@IJJHFJHA@?$AAc?$AAs?$AA?9?$AAC?$AAZ@ 1006720c     libucrt:lcidtoname_downlevel.obj
 0002:00007218       ??_C@_1M@CLPEOBGI@?$AAd?$AAa?$AA?9?$AAD?$AAK@ 10067218     libucrt:lcidtoname_downlevel.obj
 0002:00007224       ??_C@_1M@MCMADGCB@?$AAd?$AAe?$AA?9?$AAD?$AAE@ 10067224     libucrt:lcidtoname_downlevel.obj
 0002:00007230       ??_C@_1M@OOCKEMAM@?$AAe?$AAl?$AA?9?$AAG?$AAR@ 10067230     libucrt:lcidtoname_downlevel.obj
 0002:0000723c       ??_C@_1M@DDNJFGID@?$AAf?$AAi?$AA?9?$AAF?$AAI@ 1006723c     libucrt:lcidtoname_downlevel.obj
 0002:00007248       ??_C@_1M@GLIPPMAC@?$AAf?$AAr?$AA?9?$AAF?$AAR@ 10067248     libucrt:lcidtoname_downlevel.obj
 0002:00007254       ??_C@_1M@GFMCHPE@?$AAh?$AAe?$AA?9?$AAI?$AAL@ 10067254     libucrt:lcidtoname_downlevel.obj
 0002:00007260       ??_C@_1M@MHLPGNKM@?$AAh?$AAu?$AA?9?$AAH?$AAU@ 10067260     libucrt:lcidtoname_downlevel.obj
 0002:0000726c       ??_C@_1M@LPDDNNPN@?$AAi?$AAs?$AA?9?$AAI?$AAS@ 1006726c     libucrt:lcidtoname_downlevel.obj
 0002:00007278       ??_C@_1M@MADIPODN@?$AAi?$AAt?$AA?9?$AAI?$AAT@ 10067278     libucrt:lcidtoname_downlevel.obj
 0002:00007284       ??_C@_1M@IHBJJGG@?$AAn?$AAl?$AA?9?$AAN?$AAL@ 10067284     libucrt:lcidtoname_downlevel.obj
 0002:00007290       ??_C@_1M@EANAGDL@?$AAn?$AAb?$AA?9?$AAN?$AAO@ 10067290     libucrt:lcidtoname_downlevel.obj
 0002:0000729c       ??_C@_1M@NEIEMEGP@?$AAp?$AAl?$AA?9?$AAP?$AAL@ 1006729c     libucrt:lcidtoname_downlevel.obj
 0002:000072a8       ??_C@_1M@BOCFIGEP@?$AAp?$AAt?$AA?9?$AAB?$AAR@ 100672a8     libucrt:lcidtoname_downlevel.obj
 0002:000072b4       ??_C@_1M@IMPFOPBG@?$AAr?$AAo?$AA?9?$AAR?$AAO@ 100672b4     libucrt:lcidtoname_downlevel.obj
 0002:000072c0       ??_C@_1M@IDNNEJMM@?$AAr?$AAu?$AA?9?$AAR?$AAU@ 100672c0     libucrt:lcidtoname_downlevel.obj
 0002:000072cc       ??_C@_1M@LILEEOGM@?$AAh?$AAr?$AA?9?$AAH?$AAR@ 100672cc     libucrt:lcidtoname_downlevel.obj
 0002:000072d8       ??_C@_1M@FKIFEHPB@?$AAs?$AAk?$AA?9?$AAS?$AAK@ 100672d8     libucrt:lcidtoname_downlevel.obj
 0002:000072e4       ??_C@_1M@LJMAMNPJ@?$AAs?$AAq?$AA?9?$AAA?$AAL@ 100672e4     libucrt:lcidtoname_downlevel.obj
 0002:000072f0       ??_C@_1M@GIAKDKJK@?$AAs?$AAv?$AA?9?$AAS?$AAE@ 100672f0     libucrt:lcidtoname_downlevel.obj
 0002:000072fc       ??_C@_1M@MKJKIKCL@?$AAt?$AAh?$AA?9?$AAT?$AAH@ 100672fc     libucrt:lcidtoname_downlevel.obj
 0002:00007308       ??_C@_1M@MFLCCMPB@?$AAt?$AAr?$AA?9?$AAT?$AAR@ 10067308     libucrt:lcidtoname_downlevel.obj
 0002:00007314       ??_C@_1M@OIJHDKJN@?$AAu?$AAr?$AA?9?$AAP?$AAK@ 10067314     libucrt:lcidtoname_downlevel.obj
 0002:00007320       ??_C@_1M@LHIPCIEK@?$AAi?$AAd?$AA?9?$AAI?$AAD@ 10067320     libucrt:lcidtoname_downlevel.obj
 0002:0000732c       ??_C@_1M@MFMOBGI@?$AAu?$AAk?$AA?9?$AAU?$AAA@ 1006732c     libucrt:lcidtoname_downlevel.obj
 0002:00007338       ??_C@_1M@OBGLJIPL@?$AAb?$AAe?$AA?9?$AAB?$AAY@ 10067338     libucrt:lcidtoname_downlevel.obj
 0002:00007344       ??_C@_1M@BCFAJEAD@?$AAs?$AAl?$AA?9?$AAS?$AAI@ 10067344     libucrt:lcidtoname_downlevel.obj
 0002:00007350       ??_C@_1M@FKFFEDDN@?$AAe?$AAt?$AA?9?$AAE?$AAE@ 10067350     libucrt:lcidtoname_downlevel.obj
 0002:0000735c       ??_C@_1M@KGKKAACI@?$AAl?$AAv?$AA?9?$AAL?$AAV@ 1006735c     libucrt:lcidtoname_downlevel.obj
 0002:00007368       ??_C@_1M@IFGBIJO@?$AAl?$AAt?$AA?9?$AAL?$AAT@ 10067368     libucrt:lcidtoname_downlevel.obj
 0002:00007374       ??_C@_1M@FGEAHEDM@?$AAf?$AAa?$AA?9?$AAI?$AAR@ 10067374     libucrt:lcidtoname_downlevel.obj
 0002:00007380       ??_C@_1M@KBMAIBFN@?$AAv?$AAi?$AA?9?$AAV?$AAN@ 10067380     libucrt:lcidtoname_downlevel.obj
 0002:0000738c       ??_C@_1M@GPCBKDJK@?$AAh?$AAy?$AA?9?$AAA?$AAM@ 1006738c     libucrt:lcidtoname_downlevel.obj
 0002:00007398       ??_C@_1BG@BECMDDJB@?$AAa?$AAz?$AA?9?$AAA?$AAZ?$AA?9?$AAL?$AAa?$AAt?$AAn@ 10067398     libucrt:lcidtoname_downlevel.obj
 0002:000073b0       ??_C@_1M@MAOFCAEA@?$AAe?$AAu?$AA?9?$AAE?$AAS@ 100673b0     libucrt:lcidtoname_downlevel.obj
 0002:000073bc       ??_C@_1M@IGHABKPI@?$AAm?$AAk?$AA?9?$AAM?$AAK@ 100673bc     libucrt:lcidtoname_downlevel.obj
 0002:000073c8       ??_C@_1M@IAIGNEJG@?$AAt?$AAn?$AA?9?$AAZ?$AAA@ 100673c8     libucrt:lcidtoname_downlevel.obj
 0002:000073d4       ??_C@_1M@IIJCOJFA@?$AAx?$AAh?$AA?9?$AAZ?$AAA@ 100673d4     libucrt:lcidtoname_downlevel.obj
 0002:000073e0       ??_C@_1M@LGPJHNJH@?$AAz?$AAu?$AA?9?$AAZ?$AAA@ 100673e0     libucrt:lcidtoname_downlevel.obj
 0002:000073ec       ??_C@_1M@HOKAOIO@?$AAa?$AAf?$AA?9?$AAZ?$AAA@ 100673ec     libucrt:lcidtoname_downlevel.obj
 0002:000073f8       ??_C@_1M@DPCLHLIE@?$AAk?$AAa?$AA?9?$AAG?$AAE@ 100673f8     libucrt:lcidtoname_downlevel.obj
 0002:00007404       ??_C@_1M@BLKMHJBI@?$AAf?$AAo?$AA?9?$AAF?$AAO@ 10067404     libucrt:lcidtoname_downlevel.obj
 0002:00007410       ??_C@_1M@LGGJAPPB@?$AAh?$AAi?$AA?9?$AAI?$AAN@ 10067410     libucrt:lcidtoname_downlevel.obj
 0002:0000741c       ??_C@_1M@FIKPIHFE@?$AAm?$AAt?$AA?9?$AAM?$AAT@ 1006741c     libucrt:lcidtoname_downlevel.obj
 0002:00007428       ??_C@_1M@HEGGPBFA@?$AAs?$AAe?$AA?9?$AAN?$AAO@ 10067428     libucrt:lcidtoname_downlevel.obj
 0002:00007434       ??_C@_1M@EIBJEEPA@?$AAm?$AAs?$AA?9?$AAM?$AAY@ 10067434     libucrt:lcidtoname_downlevel.obj
 0002:00007440       ??_C@_1M@FHLBGMPP@?$AAk?$AAk?$AA?9?$AAK?$AAZ@ 10067440     libucrt:lcidtoname_downlevel.obj
 0002:0000744c       ??_C@_1M@NGJJLCGI@?$AAk?$AAy?$AA?9?$AAK?$AAG@ 1006744c     libucrt:lcidtoname_downlevel.obj
 0002:00007458       ??_C@_1M@GIENNBFC@?$AAs?$AAw?$AA?9?$AAK?$AAE@ 10067458     libucrt:lcidtoname_downlevel.obj
 0002:00007464       ??_C@_1BG@NDGMJIMJ@?$AAu?$AAz?$AA?9?$AAU?$AAZ?$AA?9?$AAL?$AAa?$AAt?$AAn@ 10067464     libucrt:lcidtoname_downlevel.obj
 0002:0000747c       ??_C@_1M@IDCCIHBC@?$AAt?$AAt?$AA?9?$AAR?$AAU@ 1006747c     libucrt:lcidtoname_downlevel.obj
 0002:00007488       ??_C@_1M@LOICPMOJ@?$AAb?$AAn?$AA?9?$AAI?$AAN@ 10067488     libucrt:lcidtoname_downlevel.obj
 0002:00007494       ??_C@_1M@KPKKNEAH@?$AAp?$AAa?$AA?9?$AAI?$AAN@ 10067494     libucrt:lcidtoname_downlevel.obj
 0002:000074a0       ??_C@_1M@PJGPPBOG@?$AAg?$AAu?$AA?9?$AAI?$AAN@ 100674a0     libucrt:lcidtoname_downlevel.obj
 0002:000074ac       ??_C@_1M@KMKMOPHI@?$AAt?$AAa?$AA?9?$AAI?$AAN@ 100674ac     libucrt:lcidtoname_downlevel.obj
 0002:000074b8       ??_C@_1M@KFEHEPAC@?$AAt?$AAe?$AA?9?$AAI?$AAN@ 100674b8     libucrt:lcidtoname_downlevel.obj
 0002:000074c4       ??_C@_1M@CDCLMGHI@?$AAk?$AAn?$AA?9?$AAI?$AAN@ 100674c4     libucrt:lcidtoname_downlevel.obj
 0002:000074d0       ??_C@_1M@MIODLDKF@?$AAm?$AAl?$AA?9?$AAI?$AAN@ 100674d0     libucrt:lcidtoname_downlevel.obj
 0002:000074dc       ??_C@_1M@PBIEACPO@?$AAm?$AAr?$AA?9?$AAI?$AAN@ 100674dc     libucrt:lcidtoname_downlevel.obj
 0002:000074e8       ??_C@_1M@NIDEAGPH@?$AAs?$AAa?$AA?9?$AAI?$AAN@ 100674e8     libucrt:lcidtoname_downlevel.obj
 0002:000074f4       ??_C@_1M@FHIHCBIO@?$AAm?$AAn?$AA?9?$AAM?$AAN@ 100674f4     libucrt:lcidtoname_downlevel.obj
 0002:00007500       ??_C@_1M@JAIJPENP@?$AAc?$AAy?$AA?9?$AAG?$AAB@ 10067500     libucrt:lcidtoname_downlevel.obj
 0002:0000750c       ??_C@_1M@PHGFBEPN@?$AAg?$AAl?$AA?9?$AAE?$AAS@ 1006750c     libucrt:lcidtoname_downlevel.obj
 0002:00007518       ??_C@_1O@KPIPDNCP@?$AAk?$AAo?$AAk?$AA?9?$AAI?$AAN@ 10067518     libucrt:lcidtoname_downlevel.obj
 0002:00007528       ??_C@_1O@KNHJLDJA@?$AAs?$AAy?$AAr?$AA?9?$AAS?$AAY@ 10067528     libucrt:lcidtoname_downlevel.obj
 0002:00007538       ??_C@_1O@MKEKBLAH@?$AAd?$AAi?$AAv?$AA?9?$AAM?$AAV@ 10067538     libucrt:lcidtoname_downlevel.obj
 0002:00007548       ??_C@_1O@OHDCKDDF@?$AAq?$AAu?$AAz?$AA?9?$AAB?$AAO@ 10067548     libucrt:lcidtoname_downlevel.obj
 0002:00007558       ??_C@_1M@LEPJNLFD@?$AAn?$AAs?$AA?9?$AAZ?$AAA@ 10067558     libucrt:lcidtoname_downlevel.obj
 0002:00007564       ??_C@_1M@OMLEIIJB@?$AAm?$AAi?$AA?9?$AAN?$AAZ@ 10067564     libucrt:lcidtoname_downlevel.obj
 0002:00007570       ??_C@_1M@PMPEAILG@?$AAa?$AAr?$AA?9?$AAI?$AAQ@ 10067570     libucrt:lcidtoname_downlevel.obj
 0002:0000757c       ??_C@_1M@CNKPNOEE@?$AAd?$AAe?$AA?9?$AAC?$AAH@ 1006757c     libucrt:lcidtoname_downlevel.obj
 0002:00007588       ??_C@_1M@LKMGMLKO@?$AAe?$AAn?$AA?9?$AAG?$AAB@ 10067588     libucrt:lcidtoname_downlevel.obj
 0002:00007594       ??_C@_1M@PGKJFFGL@?$AAe?$AAs?$AA?9?$AAM?$AAX@ 10067594     libucrt:lcidtoname_downlevel.obj
 0002:000075a0       ??_C@_1M@DNNANBDC@?$AAf?$AAr?$AA?9?$AAB?$AAE@ 100675a0     libucrt:lcidtoname_downlevel.obj
 0002:000075ac       ??_C@_1M@HLGMDFHM@?$AAi?$AAt?$AA?9?$AAC?$AAH@ 100675ac     libucrt:lcidtoname_downlevel.obj
 0002:000075b8       ??_C@_1M@CLLBGJH@?$AAn?$AAl?$AA?9?$AAB?$AAE@ 100675b8     libucrt:lcidtoname_downlevel.obj
 0002:000075c4       ??_C@_1M@BODBOGLF@?$AAn?$AAn?$AA?9?$AAN?$AAO@ 100675c4     libucrt:lcidtoname_downlevel.obj
 0002:000075d0       ??_C@_1M@HFFAHKAD@?$AAp?$AAt?$AA?9?$AAP?$AAT@ 100675d0     libucrt:lcidtoname_downlevel.obj
 0002:000075dc       ??_C@_1BG@LNOAKHIE@?$AAs?$AAr?$AA?9?$AAS?$AAP?$AA?9?$AAL?$AAa?$AAt?$AAn@ 100675dc     libucrt:lcidtoname_downlevel.obj
 0002:000075f4       ??_C@_1M@HBMHBGAK@?$AAs?$AAv?$AA?9?$AAF?$AAI@ 100675f4     libucrt:lcidtoname_downlevel.obj
 0002:00007600       ??_C@_1BG@DGCJGJBE@?$AAa?$AAz?$AA?9?$AAA?$AAZ?$AA?9?$AAC?$AAy?$AAr?$AAl@ 10067600     libucrt:lcidtoname_downlevel.obj
 0002:00007618       ??_C@_1M@KEJDAAHB@?$AAs?$AAe?$AA?9?$AAS?$AAE@ 10067618     libucrt:lcidtoname_downlevel.obj
 0002:00007624       ??_C@_1M@HEIBJJAD@?$AAm?$AAs?$AA?9?$AAB?$AAN@ 10067624     libucrt:lcidtoname_downlevel.obj
 0002:00007630       ??_C@_1BG@PBGJMCEM@?$AAu?$AAz?$AA?9?$AAU?$AAZ?$AA?9?$AAC?$AAy?$AAr?$AAl@ 10067630     libucrt:lcidtoname_downlevel.obj
 0002:00007648       ??_C@_1O@LAOBCMDF@?$AAq?$AAu?$AAz?$AA?9?$AAE?$AAC@ 10067648     libucrt:lcidtoname_downlevel.obj
 0002:00007658       ??_C@_1M@POEEMAIO@?$AAa?$AAr?$AA?9?$AAE?$AAG@ 10067658     libucrt:lcidtoname_downlevel.obj
 0002:00007664       ??_C@_1M@EFAKDEDL@?$AAz?$AAh?$AA?9?$AAH?$AAK@ 10067664     libucrt:lcidtoname_downlevel.obj
 0002:00007670       ??_C@_1M@HKKIJHGI@?$AAd?$AAe?$AA?9?$AAA?$AAT@ 10067670     libucrt:lcidtoname_downlevel.obj
 0002:0000767c       ??_C@_1M@KBFBEHJF@?$AAe?$AAn?$AA?9?$AAA?$AAU@ 1006767c     libucrt:lcidtoname_downlevel.obj
 0002:00007688       ??_C@_1M@MNPLFAAH@?$AAe?$AAs?$AA?9?$AAE?$AAS@ 10067688     libucrt:lcidtoname_downlevel.obj
 0002:00007694       ??_C@_1M@HJOOJFMA@?$AAf?$AAr?$AA?9?$AAC?$AAA@ 10067694     libucrt:lcidtoname_downlevel.obj
 0002:000076a0       ??_C@_1BG@JPOFPNAB@?$AAs?$AAr?$AA?9?$AAS?$AAP?$AA?9?$AAC?$AAy?$AAr?$AAl@ 100676a0     libucrt:lcidtoname_downlevel.obj
 0002:000076b8       ??_C@_1M@LNFOCMOB@?$AAs?$AAe?$AA?9?$AAF?$AAI@ 100676b8     libucrt:lcidtoname_downlevel.obj
 0002:000076c4       ??_C@_1O@MGJBOAMB@?$AAq?$AAu?$AAz?$AA?9?$AAP?$AAE@ 100676c4     libucrt:lcidtoname_downlevel.obj
 0002:000076d4       ??_C@_1M@GJINLBOK@?$AAa?$AAr?$AA?9?$AAL?$AAY@ 100676d4     libucrt:lcidtoname_downlevel.obj
 0002:000076e0       ??_C@_1M@GGMNHJNL@?$AAz?$AAh?$AA?9?$AAS?$AAG@ 100676e0     libucrt:lcidtoname_downlevel.obj
 0002:000076ec       ??_C@_1M@HOIKODND@?$AAd?$AAe?$AA?9?$AAL?$AAU@ 100676ec     libucrt:lcidtoname_downlevel.obj
 0002:000076f8       ??_C@_1M@DDOCCGFG@?$AAe?$AAn?$AA?9?$AAC?$AAA@ 100676f8     libucrt:lcidtoname_downlevel.obj
 0002:00007704       ??_C@_1M@BNOEMJLF@?$AAe?$AAs?$AA?9?$AAG?$AAT@ 10067704     libucrt:lcidtoname_downlevel.obj
 0002:00007710       ??_C@_1M@EOGNKEK@?$AAf?$AAr?$AA?9?$AAC?$AAH@ 10067710     libucrt:lcidtoname_downlevel.obj
 0002:0000771c       ??_C@_1M@FLIDJFHL@?$AAh?$AAr?$AA?9?$AAB?$AAA@ 1006771c     libucrt:lcidtoname_downlevel.obj
 0002:00007728       ??_C@_1O@FMCELNAJ@?$AAs?$AAm?$AAj?$AA?9?$AAN?$AAO@ 10067728     libucrt:lcidtoname_downlevel.obj
 0002:00007738       ??_C@_1M@JHGLJMGJ@?$AAa?$AAr?$AA?9?$AAD?$AAZ@ 10067738     libucrt:lcidtoname_downlevel.obj
 0002:00007744       ??_C@_1M@JKKFDCNP@?$AAz?$AAh?$AA?9?$AAM?$AAO@ 10067744     libucrt:lcidtoname_downlevel.obj
 0002:00007750       ??_C@_1M@GEEFALPE@?$AAd?$AAe?$AA?9?$AAL?$AAI@ 10067750     libucrt:lcidtoname_downlevel.obj
 0002:0000775c       ??_C@_1M@IGEOFBG@?$AAe?$AAn?$AA?9?$AAN?$AAZ@ 1006775c     libucrt:lcidtoname_downlevel.obj
 0002:00007768       ??_C@_1M@KDBONEHP@?$AAe?$AAs?$AA?9?$AAC?$AAR@ 10067768     libucrt:lcidtoname_downlevel.obj
 0002:00007774       ??_C@_1M@FHMDOHNN@?$AAf?$AAr?$AA?9?$AAL?$AAU@ 10067774     libucrt:lcidtoname_downlevel.obj
 0002:00007780       ??_C@_1BG@NFKKMAFG@?$AAb?$AAs?$AA?9?$AAB?$AAA?$AA?9?$AAL?$AAa?$AAt?$AAn@ 10067780     libucrt:lcidtoname_downlevel.obj
 0002:00007798       ??_C@_1O@IMNBEMCI@?$AAs?$AAm?$AAj?$AA?9?$AAS?$AAE@ 10067798     libucrt:lcidtoname_downlevel.obj
 0002:000077a8       ??_C@_1M@DHHMBNDP@?$AAa?$AAr?$AA?9?$AAM?$AAA@ 100677a8     libucrt:lcidtoname_downlevel.obj
 0002:000077b4       ??_C@_1M@BNBLJCGH@?$AAe?$AAn?$AA?9?$AAI?$AAE@ 100677b4     libucrt:lcidtoname_downlevel.obj
 0002:000077c0       ??_C@_1M@GEPAFMDL@?$AAe?$AAs?$AA?9?$AAP?$AAA@ 100677c0     libucrt:lcidtoname_downlevel.obj
 0002:000077cc       ??_C@_1M@OJONDMDL@?$AAf?$AAr?$AA?9?$AAM?$AAC@ 100677cc     libucrt:lcidtoname_downlevel.obj
 0002:000077d8       ??_C@_1BG@OBCNFJB@?$AAs?$AAr?$AA?9?$AAB?$AAA?$AA?9?$AAL?$AAa?$AAt?$AAn@ 100677d8     libucrt:lcidtoname_downlevel.obj
 0002:000077f0       ??_C@_1O@KEMEEGPO@?$AAs?$AAm?$AAa?$AA?9?$AAN?$AAO@ 100677f0     libucrt:lcidtoname_downlevel.obj
 0002:00007800       ??_C@_1M@ELMGFODK@?$AAa?$AAr?$AA?9?$AAT?$AAN@ 10067800     libucrt:lcidtoname_downlevel.obj
 0002:0000780c       ??_C@_1M@BHDLHFAF@?$AAe?$AAn?$AA?9?$AAZ?$AAA@ 1006780c     libucrt:lcidtoname_downlevel.obj
 0002:00007818       ??_C@_1M@BMGIGLIF@?$AAe?$AAs?$AA?9?$AAD?$AAO@ 10067818     libucrt:lcidtoname_downlevel.obj
 0002:00007824       ??_C@_1BG@CMBHIPBE@?$AAs?$AAr?$AA?9?$AAB?$AAA?$AA?9?$AAC?$AAy?$AAr?$AAl@ 10067824     libucrt:lcidtoname_downlevel.obj
 0002:0000783c       ??_C@_1O@HEDBLHNP@?$AAs?$AAm?$AAa?$AA?9?$AAS?$AAE@ 1006783c     libucrt:lcidtoname_downlevel.obj
 0002:0000784c       ??_C@_1M@DAGCADIM@?$AAa?$AAr?$AA?9?$AAO?$AAM@ 1006784c     libucrt:lcidtoname_downlevel.obj
 0002:00007858       ??_C@_1M@FODLMICG@?$AAe?$AAn?$AA?9?$AAJ?$AAM@ 10067858     libucrt:lcidtoname_downlevel.obj
 0002:00007864       ??_C@_1M@DNMLCIHB@?$AAe?$AAs?$AA?9?$AAV?$AAE@ 10067864     libucrt:lcidtoname_downlevel.obj
 0002:00007870       ??_C@_1O@EOKHMKJK@?$AAs?$AAm?$AAs?$AA?9?$AAF?$AAI@ 10067870     libucrt:lcidtoname_downlevel.obj
 0002:00007880       ??_C@_1M@CAFJMKOF@?$AAa?$AAr?$AA?9?$AAY?$AAE@ 10067880     libucrt:lcidtoname_downlevel.obj
 0002:0000788c       ??_C@_1M@CBFHIJLI@?$AAe?$AAn?$AA?9?$AAC?$AAB@ 1006788c     libucrt:lcidtoname_downlevel.obj
 0002:00007898       ??_C@_1M@BGNFLDN@?$AAe?$AAs?$AA?9?$AAC?$AAO@ 10067898     libucrt:lcidtoname_downlevel.obj
 0002:000078a4       ??_C@_1O@JMPHMAMC@?$AAs?$AAm?$AAn?$AA?9?$AAF?$AAI@ 100678a4     libucrt:lcidtoname_downlevel.obj
 0002:000078b4       ??_C@_1M@JLANABKE@?$AAa?$AAr?$AA?9?$AAS?$AAY@ 100678b4     libucrt:lcidtoname_downlevel.obj
 0002:000078c0       ??_C@_1M@HPKGCFGN@?$AAe?$AAn?$AA?9?$AAB?$AAZ@ 100678c0     libucrt:lcidtoname_downlevel.obj
 0002:000078cc       ??_C@_1M@OLJCMLGM@?$AAe?$AAs?$AA?9?$AAP?$AAE@ 100678cc     libucrt:lcidtoname_downlevel.obj
 0002:000078d8       ??_C@_1M@MKKGFKLE@?$AAa?$AAr?$AA?9?$AAJ?$AAO@ 100678d8     libucrt:lcidtoname_downlevel.obj
 0002:000078e4       ??_C@_1M@EKPGLDNI@?$AAe?$AAn?$AA?9?$AAT?$AAT@ 100678e4     libucrt:lcidtoname_downlevel.obj
 0002:000078f0       ??_C@_1M@OONGHFHE@?$AAe?$AAs?$AA?9?$AAA?$AAR@ 100678f0     libucrt:lcidtoname_downlevel.obj
 0002:000078fc       ??_C@_1M@OOJFGBHE@?$AAa?$AAr?$AA?9?$AAL?$AAB@ 100678fc     libucrt:lcidtoname_downlevel.obj
 0002:00007908       ??_C@_1M@GCEJHNEG@?$AAe?$AAn?$AA?9?$AAZ?$AAW@ 10067908     libucrt:lcidtoname_downlevel.obj
 0002:00007914       ??_C@_1M@JNOCAHJI@?$AAe?$AAs?$AA?9?$AAE?$AAC@ 10067914     libucrt:lcidtoname_downlevel.obj
 0002:00007920       ??_C@_1M@JEFHPGGB@?$AAa?$AAr?$AA?9?$AAK?$AAW@ 10067920     libucrt:lcidtoname_downlevel.obj
 0002:0000792c       ??_C@_1M@MLKIBJOJ@?$AAe?$AAn?$AA?9?$AAP?$AAH@ 1006792c     libucrt:lcidtoname_downlevel.obj
 0002:00007938       ??_C@_1M@BDNIPEND@?$AAe?$AAs?$AA?9?$AAC?$AAL@ 10067938     libucrt:lcidtoname_downlevel.obj
 0002:00007944       ??_C@_1M@MPNMEKBD@?$AAa?$AAr?$AA?9?$AAA?$AAE@ 10067944     libucrt:lcidtoname_downlevel.obj
 0002:00007950       ??_C@_1M@KBJALCPI@?$AAe?$AAs?$AA?9?$AAU?$AAY@ 10067950     libucrt:lcidtoname_downlevel.obj
 0002:0000795c       ??_C@_1M@LLCCOAGA@?$AAa?$AAr?$AA?9?$AAB?$AAH@ 1006795c     libucrt:lcidtoname_downlevel.obj
 0002:00007968       ??_C@_1M@PBFNCDEL@?$AAe?$AAs?$AA?9?$AAP?$AAY@ 10067968     libucrt:lcidtoname_downlevel.obj
 0002:00007974       ??_C@_1M@EDGINPNP@?$AAa?$AAr?$AA?9?$AAQ?$AAA@ 10067974     libucrt:lcidtoname_downlevel.obj
 0002:00007980       ??_C@_1M@MKDBIIJI@?$AAe?$AAs?$AA?9?$AAB?$AAO@ 10067980     libucrt:lcidtoname_downlevel.obj
 0002:0000798c       ??_C@_1M@CPKKEBLD@?$AAe?$AAs?$AA?9?$AAS?$AAV@ 1006798c     libucrt:lcidtoname_downlevel.obj
 0002:00007998       ??_C@_1M@NDBGMMJL@?$AAe?$AAs?$AA?9?$AAH?$AAN@ 10067998     libucrt:lcidtoname_downlevel.obj
 0002:000079a4       ??_C@_1M@JIJIBHDP@?$AAe?$AAs?$AA?9?$AAN?$AAI@ 100679a4     libucrt:lcidtoname_downlevel.obj
 0002:000079b0       ??_C@_1M@CGFMKEEK@?$AAe?$AAs?$AA?9?$AAP?$AAR@ 100679b0     libucrt:lcidtoname_downlevel.obj
 0002:000079bc       ??_C@_1O@ICJHKIIK@?$AAz?$AAh?$AA?9?$AAC?$AAH?$AAT@ 100679bc     libucrt:lcidtoname_downlevel.obj
 0002:000079cc       ??_C@_15CLNEJCE@?$AAs?$AAr@ 100679cc     libucrt:lcidtoname_downlevel.obj
 0002:000080f8       ??_C@_1M@KAHEKEIG@?$AAa?$AAf?$AA?9?$AAz?$AAa@ 100680f8     libucrt:lcidtoname_downlevel.obj
 0002:00008104       ??_C@_1M@GIECOABL@?$AAa?$AAr?$AA?9?$AAa?$AAe@ 10068104     libucrt:lcidtoname_downlevel.obj
 0002:00008110       ??_C@_1M@BMLMEKGI@?$AAa?$AAr?$AA?9?$AAb?$AAh@ 10068110     libucrt:lcidtoname_downlevel.obj
 0002:0000811c       ??_C@_1M@DAPFDGGB@?$AAa?$AAr?$AA?9?$AAd?$AAz@ 1006811c     libucrt:lcidtoname_downlevel.obj
 0002:00008128       ??_C@_1M@FJNKGKIG@?$AAa?$AAr?$AA?9?$AAe?$AAg@ 10068128     libucrt:lcidtoname_downlevel.obj
 0002:00008134       ??_C@_1M@FLGKKCLO@?$AAa?$AAr?$AA?9?$AAi?$AAq@ 10068134     libucrt:lcidtoname_downlevel.obj
 0002:00008140       ??_C@_1M@GNDIPALM@?$AAa?$AAr?$AA?9?$AAj?$AAo@ 10068140     libucrt:lcidtoname_downlevel.obj
 0002:0000814c       ??_C@_1M@DDMJFMGJ@?$AAa?$AAr?$AA?9?$AAk?$AAw@ 1006814c     libucrt:lcidtoname_downlevel.obj
 0002:00008158       ??_C@_1M@EJALMLHM@?$AAa?$AAr?$AA?9?$AAl?$AAb@ 10068158     libucrt:lcidtoname_downlevel.obj
 0002:00008164       ??_C@_1M@MOBDBLOC@?$AAa?$AAr?$AA?9?$AAl?$AAy@ 10068164     libucrt:lcidtoname_downlevel.obj
 0002:00008170       ??_C@_1M@JAOCLHDH@?$AAa?$AAr?$AA?9?$AAm?$AAa@ 10068170     libucrt:lcidtoname_downlevel.obj
 0002:0000817c       ??_C@_1M@JHPMKJIE@?$AAa?$AAr?$AA?9?$AAo?$AAm@ 1006817c     libucrt:lcidtoname_downlevel.obj
 0002:00008188       ??_C@_1M@OEPGHFNH@?$AAa?$AAr?$AA?9?$AAq?$AAa@ 10068188     libucrt:lcidtoname_downlevel.obj
 0002:00008194       ??_C@_1M@KJDONENM@?$AAa?$AAr?$AA?9?$AAs?$AAa@ 10068194     libucrt:lcidtoname_downlevel.obj
 0002:000081a0       ??_C@_1M@DMJDKLKM@?$AAa?$AAr?$AA?9?$AAs?$AAy@ 100681a0     libucrt:lcidtoname_downlevel.obj
 0002:000081ac       ??_C@_1M@OMFIPEDC@?$AAa?$AAr?$AA?9?$AAt?$AAn@ 100681ac     libucrt:lcidtoname_downlevel.obj
 0002:000081b8       ??_C@_1M@IHMHGAON@?$AAa?$AAr?$AA?9?$AAy?$AAe@ 100681b8     libucrt:lcidtoname_downlevel.obj
 0002:000081c4       ??_C@_1BG@KDCPGJGB@?$AAa?$AAz?$AA?9?$AAa?$AAz?$AA?9?$AAc?$AAy?$AAr?$AAl@ 100681c4     libucrt:lcidtoname_downlevel.obj
 0002:000081dc       ??_C@_1BG@IBCKDDOE@?$AAa?$AAz?$AA?9?$AAa?$AAz?$AA?9?$AAl?$AAa?$AAt?$AAn@ 100681dc     libucrt:lcidtoname_downlevel.obj
 0002:000081f4       ??_C@_1M@EGPFDCPD@?$AAb?$AAe?$AA?9?$AAb?$AAy@ 100681f4     libucrt:lcidtoname_downlevel.obj
 0002:00008200       ??_C@_1M@PCMGMCGC@?$AAb?$AAg?$AA?9?$AAb?$AAg@ 10068200     libucrt:lcidtoname_downlevel.obj
 0002:0000820c       ??_C@_1M@BJBMFGOB@?$AAb?$AAn?$AA?9?$AAi?$AAn@ 1006820c     libucrt:lcidtoname_downlevel.obj
 0002:00008218       ??_C@_1BG@EAKMMACD@?$AAb?$AAs?$AA?9?$AAb?$AAa?$AA?9?$AAl?$AAa?$AAt?$AAn@ 10068218     libucrt:lcidtoname_downlevel.obj
 0002:00008230       ??_C@_1M@KGADAODK@?$AAc?$AAa?$AA?9?$AAe?$AAs@ 10068230     libucrt:lcidtoname_downlevel.obj
 0002:0000823c       ??_C@_1M@COAJPDHI@?$AAc?$AAs?$AA?9?$AAc?$AAz@ 1006823c     libucrt:lcidtoname_downlevel.obj
 0002:00008248       ??_C@_1M@DHBHFONH@?$AAc?$AAy?$AA?9?$AAg?$AAb@ 10068248     libucrt:lcidtoname_downlevel.obj
 0002:00008254       ??_C@_1M@IMGKELGA@?$AAd?$AAa?$AA?9?$AAd?$AAk@ 10068254     libucrt:lcidtoname_downlevel.obj
 0002:00008260       ??_C@_1M@NNDGDNGA@?$AAd?$AAe?$AA?9?$AAa?$AAt@ 10068260     libucrt:lcidtoname_downlevel.obj
 0002:0000826c       ??_C@_1M@IKDBHEEM@?$AAd?$AAe?$AA?9?$AAc?$AAh@ 1006826c     libucrt:lcidtoname_downlevel.obj
 0002:00008278       ??_C@_1M@GFFOJMCJ@?$AAd?$AAe?$AA?9?$AAd?$AAe@ 10068278     libucrt:lcidtoname_downlevel.obj
 0002:00008284       ??_C@_1M@MDNLKBPM@?$AAd?$AAe?$AA?9?$AAl?$AAi@ 10068284     libucrt:lcidtoname_downlevel.obj
 0002:00008290       ??_C@_1M@NJBEEJNL@?$AAd?$AAe?$AA?9?$AAl?$AAu@ 10068290     libucrt:lcidtoname_downlevel.obj
 0002:0000829c       ??_C@_1O@GNNELBAP@?$AAd?$AAi?$AAv?$AA?9?$AAm?$AAv@ 1006829c     libucrt:lcidtoname_downlevel.obj
 0002:000082ac       ??_C@_1M@EJLEOGAE@?$AAe?$AAl?$AA?9?$AAg?$AAr@ 100682ac     libucrt:lcidtoname_downlevel.obj
 0002:000082b8       ??_C@_1M@GMPONJN@?$AAe?$AAn?$AA?9?$AAa?$AAu@ 100682b8     libucrt:lcidtoname_downlevel.obj
 0002:000082c4       ??_C@_1M@NIDIIPGF@?$AAe?$AAn?$AA?9?$AAb?$AAz@ 100682c4     libucrt:lcidtoname_downlevel.obj
 0002:000082d0       ??_C@_1M@JEHMIMFO@?$AAe?$AAn?$AA?9?$AAc?$AAa@ 100682d0     libucrt:lcidtoname_downlevel.obj
 0002:000082dc       ??_C@_1M@IGMJCDLA@?$AAe?$AAn?$AA?9?$AAc?$AAb@ 100682dc     libucrt:lcidtoname_downlevel.obj
 0002:000082e8       ??_C@_1M@BNFIGBKG@?$AAe?$AAn?$AA?9?$AAg?$AAb@ 100682e8     libucrt:lcidtoname_downlevel.obj
 0002:000082f4       ??_C@_1M@LKIFDIGP@?$AAe?$AAn?$AA?9?$AAi?$AAe@ 100682f4     libucrt:lcidtoname_downlevel.obj
 0002:00008300       ??_C@_1M@PJKFGCCO@?$AAe?$AAn?$AA?9?$AAj?$AAm@ 10068300     libucrt:lcidtoname_downlevel.obj
 0002:0000830c       ??_C@_1M@KPPKEPBO@?$AAe?$AAn?$AA?9?$AAn?$AAz@ 1006830c     libucrt:lcidtoname_downlevel.obj
 0002:00008318       ??_C@_1M@GMDGLDOB@?$AAe?$AAn?$AA?9?$AAp?$AAh@ 10068318     libucrt:lcidtoname_downlevel.obj
 0002:00008324       ??_C@_1M@ONGIBJNA@?$AAe?$AAn?$AA?9?$AAt?$AAt@ 10068324     libucrt:lcidtoname_downlevel.obj
 0002:00008330       ??_C@_1M@LLODPCMM@?$AAe?$AAn?$AA?9?$AAu?$AAs@ 10068330     libucrt:lcidtoname_downlevel.obj
 0002:0000833c       ??_C@_1M@LAKFNPAN@?$AAe?$AAn?$AA?9?$AAz?$AAa@ 1006833c     libucrt:lcidtoname_downlevel.obj
 0002:00008348       ??_C@_1M@MFNHNHEO@?$AAe?$AAn?$AA?9?$AAz?$AAw@ 10068348     libucrt:lcidtoname_downlevel.obj
 0002:00008354       ??_C@_1M@EJEINPHM@?$AAe?$AAs?$AA?9?$AAa?$AAr@ 10068354     libucrt:lcidtoname_downlevel.obj
 0002:00008360       ??_C@_1M@GNKPCCJA@?$AAe?$AAs?$AA?9?$AAb?$AAo@ 10068360     libucrt:lcidtoname_downlevel.obj
 0002:0000836c       ??_C@_1M@LEEGFONL@?$AAe?$AAs?$AA?9?$AAc?$AAl@ 1006836c     libucrt:lcidtoname_downlevel.obj
 0002:00008378       ??_C@_1M@KGPDPBDF@?$AAe?$AAs?$AA?9?$AAc?$AAo@ 10068378     libucrt:lcidtoname_downlevel.obj
 0002:00008384       ??_C@_1M@EIAHOHH@?$AAe?$AAs?$AA?9?$AAc?$AAr@ 10068384     libucrt:lcidtoname_downlevel.obj
 0002:00008390       ??_C@_1M@LLPGMBIN@?$AAe?$AAs?$AA?9?$AAd?$AAo@ 10068390     libucrt:lcidtoname_downlevel.obj
 0002:0000839c       ??_C@_1M@DKHMKNJA@?$AAe?$AAs?$AA?9?$AAe?$AAc@ 1006839c     libucrt:lcidtoname_downlevel.obj
 0002:000083a8       ??_C@_1M@GKGFPKAP@?$AAe?$AAs?$AA?9?$AAe?$AAs@ 100683a8     libucrt:lcidtoname_downlevel.obj
 0002:000083b4       ??_C@_1M@LKHKGDLN@?$AAe?$AAs?$AA?9?$AAg?$AAt@ 100683b4     libucrt:lcidtoname_downlevel.obj
 0002:000083c0       ??_C@_1M@HEIIGGJD@?$AAe?$AAs?$AA?9?$AAh?$AAn@ 100683c0     libucrt:lcidtoname_downlevel.obj
 0002:000083cc       ??_C@_1M@FBDHPPGD@?$AAe?$AAs?$AA?9?$AAm?$AAx@ 100683cc     libucrt:lcidtoname_downlevel.obj
 0002:000083d8       ??_C@_1M@DPAGLNDH@?$AAe?$AAs?$AA?9?$AAn?$AAi@ 100683d8     libucrt:lcidtoname_downlevel.obj
 0002:000083e4       ??_C@_1M@MDGOPGDD@?$AAe?$AAs?$AA?9?$AAp?$AAa@ 100683e4     libucrt:lcidtoname_downlevel.obj
 0002:000083f0       ??_C@_1M@EMAMGBGE@?$AAe?$AAs?$AA?9?$AAp?$AAe@ 100683f0     libucrt:lcidtoname_downlevel.obj
 0002:000083fc       ??_C@_1M@IBMCAOEC@?$AAe?$AAs?$AA?9?$AAp?$AAr@ 100683fc     libucrt:lcidtoname_downlevel.obj
 0002:00008408       ??_C@_1M@FGMDIJED@?$AAe?$AAs?$AA?9?$AAp?$AAy@ 10068408     libucrt:lcidtoname_downlevel.obj
 0002:00008414       ??_C@_1M@IIDEOLLL@?$AAe?$AAs?$AA?9?$AAs?$AAv@ 10068414     libucrt:lcidtoname_downlevel.obj
 0002:00008420       ??_C@_1M@GAOBIPA@?$AAe?$AAs?$AA?9?$AAu?$AAy@ 10068420     libucrt:lcidtoname_downlevel.obj
 0002:0000842c       ??_C@_1M@JKFFICHJ@?$AAe?$AAs?$AA?9?$AAv?$AAe@ 1006842c     libucrt:lcidtoname_downlevel.obj
 0002:00008438       ??_C@_1M@PNMLOJDF@?$AAe?$AAt?$AA?9?$AAe?$AAe@ 10068438     libucrt:lcidtoname_downlevel.obj
 0002:00008444       ??_C@_1M@GHHLIKEI@?$AAe?$AAu?$AA?9?$AAe?$AAs@ 10068444     libucrt:lcidtoname_downlevel.obj
 0002:00008450       ??_C@_1M@PBNONODE@?$AAf?$AAa?$AA?9?$AAi?$AAr@ 10068450     libucrt:lcidtoname_downlevel.obj
 0002:0000845c       ??_C@_1M@JEEHPMIL@?$AAf?$AAi?$AA?9?$AAf?$AAi@ 1006845c     libucrt:lcidtoname_downlevel.obj
 0002:00008468       ??_C@_1M@LMDCNDBA@?$AAf?$AAo?$AA?9?$AAf?$AAo@ 10068468     libucrt:lcidtoname_downlevel.obj
 0002:00008474       ??_C@_1M@JKEOHLDK@?$AAf?$AAr?$AA?9?$AAb?$AAe@ 10068474     libucrt:lcidtoname_downlevel.obj
 0002:00008480       ??_C@_1M@NOHADPMI@?$AAf?$AAr?$AA?9?$AAc?$AAa@ 10068480     libucrt:lcidtoname_downlevel.obj
 0002:0000848c       ??_C@_1M@KDHIHAEC@?$AAf?$AAr?$AA?9?$AAc?$AAh@ 1006848c     libucrt:lcidtoname_downlevel.obj
 0002:00008498       ??_C@_1M@MMBBFGAK@?$AAf?$AAr?$AA?9?$AAf?$AAr@ 10068498     libucrt:lcidtoname_downlevel.obj
 0002:000084a4       ??_C@_1M@PAFNENNF@?$AAf?$AAr?$AA?9?$AAl?$AAu@ 100684a4     libucrt:lcidtoname_downlevel.obj
 0002:000084b0       ??_C@_1M@EOHDJGDD@?$AAf?$AAr?$AA?9?$AAm?$AAc@ 100684b0     libucrt:lcidtoname_downlevel.obj
 0002:000084bc       ??_C@_1M@FAPLLOPF@?$AAg?$AAl?$AA?9?$AAe?$AAs@ 100684bc     libucrt:lcidtoname_downlevel.obj
 0002:000084c8       ??_C@_1M@FOPBFLOO@?$AAg?$AAu?$AA?9?$AAi?$AAn@ 100684c8     libucrt:lcidtoname_downlevel.obj
 0002:000084d4       ??_C@_1M@KBMCINPM@?$AAh?$AAe?$AA?9?$AAi?$AAl@ 100684d4     libucrt:lcidtoname_downlevel.obj
 0002:000084e0       ??_C@_1M@BBPHKFPJ@?$AAh?$AAi?$AA?9?$AAi?$AAn@ 100684e0     libucrt:lcidtoname_downlevel.obj
 0002:000084ec       ??_C@_1M@PMBNDPHD@?$AAh?$AAr?$AA?9?$AAb?$AAa@ 100684ec     libucrt:lcidtoname_downlevel.obj
 0002:000084f8       ??_C@_1M@BPCKOEGE@?$AAh?$AAr?$AA?9?$AAh?$AAr@ 100684f8     libucrt:lcidtoname_downlevel.obj
 0002:00008504       ??_C@_1M@GACBMHKE@?$AAh?$AAu?$AA?9?$AAh?$AAu@ 10068504     libucrt:lcidtoname_downlevel.obj
 0002:00008510       ??_C@_1M@MILPAJJC@?$AAh?$AAy?$AA?9?$AAa?$AAm@ 10068510     libucrt:lcidtoname_downlevel.obj
 0002:0000851c       ??_C@_1M@BABBICEC@?$AAi?$AAd?$AA?9?$AAi?$AAd@ 1006851c     libucrt:lcidtoname_downlevel.obj
 0002:00008528       ??_C@_1M@BIKNHHPF@?$AAi?$AAs?$AA?9?$AAi?$AAs@ 10068528     libucrt:lcidtoname_downlevel.obj
 0002:00008534       ??_C@_1M@NMPCJPHE@?$AAi?$AAt?$AA?9?$AAc?$AAh@ 10068534     libucrt:lcidtoname_downlevel.obj
 0002:00008540       ??_C@_1M@GHKGFEDF@?$AAi?$AAt?$AA?9?$AAi?$AAt@ 10068540     libucrt:lcidtoname_downlevel.obj
 0002:0000854c       ??_C@_1M@NIEJCJJA@?$AAj?$AAa?$AA?9?$AAj?$AAp@ 1006854c     libucrt:lcidtoname_downlevel.obj
 0002:00008558       ??_C@_1M@JILFNBIM@?$AAk?$AAa?$AA?9?$AAg?$AAe@ 10068558     libucrt:lcidtoname_downlevel.obj
 0002:00008564       ??_C@_1M@PACPMGPH@?$AAk?$AAk?$AA?9?$AAk?$AAz@ 10068564     libucrt:lcidtoname_downlevel.obj
 0002:00008570       ??_C@_1M@IELFGMHA@?$AAk?$AAn?$AA?9?$AAi?$AAn@ 10068570     libucrt:lcidtoname_downlevel.obj
 0002:0000857c       ??_C@_1O@IBBJHCH@?$AAk?$AAo?$AAk?$AA?9?$AAi?$AAn@ 1006857c     libucrt:lcidtoname_downlevel.obj
 0002:0000858c       ??_C@_1M@DMHAEOGC@?$AAk?$AAo?$AA?9?$AAk?$AAr@ 1006858c     libucrt:lcidtoname_downlevel.obj
 0002:00008598       ??_C@_1M@HBAHBIGA@?$AAk?$AAy?$AA?9?$AAk?$AAg@ 10068598     libucrt:lcidtoname_downlevel.obj
 0002:000085a4       ??_C@_1M@KPMILCJG@?$AAl?$AAt?$AA?9?$AAl?$AAt@ 100685a4     libucrt:lcidtoname_downlevel.obj
 0002:000085b0       ??_C@_1M@BDEKKCA@?$AAl?$AAv?$AA?9?$AAl?$AAv@ 100685b0     libucrt:lcidtoname_downlevel.obj
 0002:000085bc       ??_C@_1M@ELCKCCJJ@?$AAm?$AAi?$AA?9?$AAn?$AAz@ 100685bc     libucrt:lcidtoname_downlevel.obj
 0002:000085c8       ??_C@_1M@CBOOLAPA@?$AAm?$AAk?$AA?9?$AAm?$AAk@ 100685c8     libucrt:lcidtoname_downlevel.obj
 0002:000085d4       ??_C@_1M@GPHNBJKN@?$AAm?$AAl?$AA?9?$AAi?$AAn@ 100685d4     libucrt:lcidtoname_downlevel.obj
 0002:000085e0       ??_C@_1M@PABJILIG@?$AAm?$AAn?$AA?9?$AAm?$AAn@ 100685e0     libucrt:lcidtoname_downlevel.obj
 0002:000085ec       ??_C@_1M@FGBKKIPG@?$AAm?$AAr?$AA?9?$AAi?$AAn@ 100685ec     libucrt:lcidtoname_downlevel.obj
 0002:000085f8       ??_C@_1M@NDBPDDAL@?$AAm?$AAs?$AA?9?$AAb?$AAn@ 100685f8     libucrt:lcidtoname_downlevel.obj
 0002:00008604       ??_C@_1M@OPIHOOPI@?$AAm?$AAs?$AA?9?$AAm?$AAy@ 10068604     libucrt:lcidtoname_downlevel.obj
 0002:00008610       ??_C@_1M@PPDBCNFM@?$AAm?$AAt?$AA?9?$AAm?$AAt@ 10068610     libucrt:lcidtoname_downlevel.obj
 0002:0000861c       ??_C@_1M@KDJDKMDD@?$AAn?$AAb?$AA?9?$AAn?$AAo@ 1006861c     libucrt:lcidtoname_downlevel.obj
 0002:00008628       ??_C@_1M@KFCFLMJP@?$AAn?$AAl?$AA?9?$AAb?$AAe@ 10068628     libucrt:lcidtoname_downlevel.obj
 0002:00008634       ??_C@_1M@KPOPDDGO@?$AAn?$AAl?$AA?9?$AAn?$AAl@ 10068634     libucrt:lcidtoname_downlevel.obj
 0002:00008640       ??_C@_1M@LJKPEMLN@?$AAn?$AAn?$AA?9?$AAn?$AAo@ 10068640     libucrt:lcidtoname_downlevel.obj
 0002:0000864c       ??_C@_1M@BDGHHBFL@?$AAn?$AAs?$AA?9?$AAz?$AAa@ 1006864c     libucrt:lcidtoname_downlevel.obj
 0002:00008658       ??_C@_1M@IDEHOAP@?$AAp?$AAa?$AA?9?$AAi?$AAn@ 10068658     libucrt:lcidtoname_downlevel.obj
 0002:00008664       ??_C@_1M@HDBKGOGH@?$AAp?$AAl?$AA?9?$AAp?$AAl@ 10068664     libucrt:lcidtoname_downlevel.obj
 0002:00008670       ??_C@_1M@LJLLCMEH@?$AAp?$AAt?$AA?9?$AAb?$AAr@ 10068670     libucrt:lcidtoname_downlevel.obj
 0002:0000867c       ??_C@_1M@NCMONAAL@?$AAp?$AAt?$AA?9?$AAp?$AAt@ 1006867c     libucrt:lcidtoname_downlevel.obj
 0002:00008688       ??_C@_1O@EAKMAJDN@?$AAq?$AAu?$AAz?$AA?9?$AAb?$AAo@ 10068688     libucrt:lcidtoname_downlevel.obj
 0002:00008698       ??_C@_1O@BHHPIGDN@?$AAq?$AAu?$AAz?$AA?9?$AAe?$AAc@ 10068698     libucrt:lcidtoname_downlevel.obj
 0002:000086a8       ??_C@_1O@GBAPEKMJ@?$AAq?$AAu?$AAz?$AA?9?$AAp?$AAe@ 100686a8     libucrt:lcidtoname_downlevel.obj
 0002:000086b8       ??_C@_1M@CLGLEFBO@?$AAr?$AAo?$AA?9?$AAr?$AAo@ 100686b8     libucrt:lcidtoname_downlevel.obj
 0002:000086c4       ??_C@_1M@CEEDODME@?$AAr?$AAu?$AA?9?$AAr?$AAu@ 100686c4     libucrt:lcidtoname_downlevel.obj
 0002:000086d0       ??_C@_1M@HPKKKMPP@?$AAs?$AAa?$AA?9?$AAi?$AAn@ 100686d0     libucrt:lcidtoname_downlevel.obj
 0002:000086dc       ??_C@_1M@BKMAIGOJ@?$AAs?$AAe?$AA?9?$AAf?$AAi@ 100686dc     libucrt:lcidtoname_downlevel.obj
 0002:000086e8       ??_C@_1M@NDPIFLFI@?$AAs?$AAe?$AA?9?$AAn?$AAo@ 100686e8     libucrt:lcidtoname_downlevel.obj
 0002:000086f4       ??_C@_1M@DANKKHJ@?$AAs?$AAe?$AA?9?$AAs?$AAe@ 100686f4     libucrt:lcidtoname_downlevel.obj
 0002:00008700       ??_C@_1M@PNBLONPJ@?$AAs?$AAk?$AA?9?$AAs?$AAk@ 10068700     libucrt:lcidtoname_downlevel.obj
 0002:0000870c       ??_C@_1M@LFMODOAL@?$AAs?$AAl?$AA?9?$AAs?$AAi@ 1006870c     libucrt:lcidtoname_downlevel.obj
 0002:00008718       ??_C@_1O@DFKOMPG@?$AAs?$AAm?$AAa?$AA?9?$AAn?$AAo@ 10068718     libucrt:lcidtoname_downlevel.obj
 0002:00008728       ??_C@_1O@NDKPBNNH@?$AAs?$AAm?$AAa?$AA?9?$AAs?$AAe@ 10068728     libucrt:lcidtoname_downlevel.obj
 0002:00008738       ??_C@_1O@PLLKBHAB@?$AAs?$AAm?$AAj?$AA?9?$AAn?$AAo@ 10068738     libucrt:lcidtoname_downlevel.obj
 0002:00008748       ??_C@_1O@CLEPOGCA@?$AAs?$AAm?$AAj?$AA?9?$AAs?$AAe@ 10068748     libucrt:lcidtoname_downlevel.obj
 0002:00008758       ??_C@_1O@DLGJGKMK@?$AAs?$AAm?$AAn?$AA?9?$AAf?$AAi@ 10068758     libucrt:lcidtoname_downlevel.obj
 0002:00008768       ??_C@_1O@OJDJGAJC@?$AAs?$AAm?$AAs?$AA?9?$AAf?$AAi@ 10068768     libucrt:lcidtoname_downlevel.obj
 0002:00008778       ??_C@_1M@BOFOGHPB@?$AAs?$AAq?$AA?9?$AAa?$AAl@ 10068778     libucrt:lcidtoname_downlevel.obj
 0002:00008784       ??_C@_1BG@LJBBIPGB@?$AAs?$AAr?$AA?9?$AAb?$AAa?$AA?9?$AAc?$AAy?$AAr?$AAl@ 10068784     libucrt:lcidtoname_downlevel.obj
 0002:0000879c       ??_C@_1BG@JLBENFOE@?$AAs?$AAr?$AA?9?$AAb?$AAa?$AA?9?$AAl?$AAa?$AAt?$AAn@ 1006879c     libucrt:lcidtoname_downlevel.obj
 0002:000087b4       ??_C@_1BG@KODPNHE@?$AAs?$AAr?$AA?9?$AAs?$AAp?$AA?9?$AAc?$AAy?$AAr?$AAl@ 100687b4     libucrt:lcidtoname_downlevel.obj
 0002:000087cc       ??_C@_1BG@CIOGKHPB@?$AAs?$AAr?$AA?9?$AAs?$AAp?$AA?9?$AAl?$AAa?$AAt?$AAn@ 100687cc     libucrt:lcidtoname_downlevel.obj
 0002:000087e4       ??_C@_1M@NGFJLMAC@?$AAs?$AAv?$AA?9?$AAf?$AAi@ 100687e4     libucrt:lcidtoname_downlevel.obj
 0002:000087f0       ??_C@_1M@MPJEJAJC@?$AAs?$AAv?$AA?9?$AAs?$AAe@ 100687f0     libucrt:lcidtoname_downlevel.obj
 0002:000087fc       ??_C@_1M@MPNDHLFK@?$AAs?$AAw?$AA?9?$AAk?$AAe@ 100687fc     libucrt:lcidtoname_downlevel.obj
 0002:00008808       ??_C@_1O@KOHBJJI@?$AAs?$AAy?$AAr?$AA?9?$AAs?$AAy@ 10068808     libucrt:lcidtoname_downlevel.obj
 0002:00008818       ??_C@_1M@LDCEFHA@?$AAt?$AAa?$AA?9?$AAi?$AAn@ 10068818     libucrt:lcidtoname_downlevel.obj
 0002:00008824       ??_C@_1M@CNJOFAK@?$AAt?$AAe?$AA?9?$AAi?$AAn@ 10068824     libucrt:lcidtoname_downlevel.obj
 0002:00008830       ??_C@_1M@GNAECACD@?$AAt?$AAh?$AA?9?$AAt?$AAh@ 10068830     libucrt:lcidtoname_downlevel.obj
 0002:0000883c       ??_C@_1M@CHBIHOJO@?$AAt?$AAn?$AA?9?$AAz?$AAa@ 1006883c     libucrt:lcidtoname_downlevel.obj
 0002:00008848       ??_C@_1M@GCCMIGPJ@?$AAt?$AAr?$AA?9?$AAt?$AAr@ 10068848     libucrt:lcidtoname_downlevel.obj
 0002:00008854       ??_C@_1M@CELMCNBK@?$AAt?$AAt?$AA?9?$AAr?$AAu@ 10068854     libucrt:lcidtoname_downlevel.obj
 0002:00008860       ??_C@_1M@KLMCELGA@?$AAu?$AAk?$AA?9?$AAu?$AAa@ 10068860     libucrt:lcidtoname_downlevel.obj
 0002:0000886c       ??_C@_1M@EPAJJAJF@?$AAu?$AAr?$AA?9?$AAp?$AAk@ 1006886c     libucrt:lcidtoname_downlevel.obj
 0002:00008878       ??_C@_1BG@GEGPMCDJ@?$AAu?$AAz?$AA?9?$AAu?$AAz?$AA?9?$AAc?$AAy?$AAr?$AAl@ 10068878     libucrt:lcidtoname_downlevel.obj
 0002:00008890       ??_C@_1BG@EGGKJILM@?$AAu?$AAz?$AA?9?$AAu?$AAz?$AA?9?$AAl?$AAa?$AAt?$AAn@ 10068890     libucrt:lcidtoname_downlevel.obj
 0002:000088a8       ??_C@_1M@GFOCLFF@?$AAv?$AAi?$AA?9?$AAv?$AAn@ 100688a8     libucrt:lcidtoname_downlevel.obj
 0002:000088b4       ??_C@_1M@CPAMEDFI@?$AAx?$AAh?$AA?9?$AAz?$AAa@ 100688b4     libucrt:lcidtoname_downlevel.obj
 0002:000088c0       ??_C@_1O@EBKIFIGN@?$AAz?$AAh?$AA?9?$AAc?$AAh?$AAs@ 100688c0     libucrt:lcidtoname_downlevel.obj
 0002:000088d0       ??_C@_1O@NMHPGANE@?$AAz?$AAh?$AA?9?$AAc?$AAh?$AAt@ 100688d0     libucrt:lcidtoname_downlevel.obj
 0002:000088e0       ??_C@_1M@LPINJOMC@?$AAz?$AAh?$AA?9?$AAc?$AAn@ 100688e0     libucrt:lcidtoname_downlevel.obj
 0002:000088ec       ??_C@_1M@OCJEJODD@?$AAz?$AAh?$AA?9?$AAh?$AAk@ 100688ec     libucrt:lcidtoname_downlevel.obj
 0002:000088f8       ??_C@_1M@DNDLJINH@?$AAz?$AAh?$AA?9?$AAm?$AAo@ 100688f8     libucrt:lcidtoname_downlevel.obj
 0002:00008904       ??_C@_1M@MBFDNDND@?$AAz?$AAh?$AA?9?$AAs?$AAg@ 10068904     libucrt:lcidtoname_downlevel.obj
 0002:00008910       ??_C@_1M@IMEPLEPE@?$AAz?$AAh?$AA?9?$AAt?$AAw@ 10068910     libucrt:lcidtoname_downlevel.obj
 0002:0000891c       ??_C@_1M@BBGHNHJP@?$AAz?$AAu?$AA?9?$AAz?$AAa@ 1006891c     libucrt:lcidtoname_downlevel.obj
 0002:00008928       ___acrt_pow_rcp_t1         10068928     libucrt:pow_tables.obj
 0002:00008d40       ___acrt_pow_log2_t1        10068d40     libucrt:pow_tables.obj
 0002:00009550       ___acrt_pow_rcp_t2         10069550     libucrt:pow_tables.obj
 0002:00009960       ___acrt_pow_log2_t2        10069960     libucrt:pow_tables.obj
 0002:0000a170       ___acrt_pow_rcp_t3         1006a170     libucrt:pow_tables.obj
 0002:0000a980       ___acrt_pow_log2_t3        1006a980     libucrt:pow_tables.obj
 0002:0000b990       ___acrt_pow_clv            1006b990     libucrt:pow_tables.obj
 0002:0000b9b0       ___acrt_pow_exp2_tbl       1006b9b0     libucrt:pow_tables.obj
 0002:0000c208       ??_C@_1BA@BALFACEM@?$AAC?$AAO?$AAN?$AAO?$AAU?$AAT?$AA$@ 1006c208     libucrt:initcon.obj
 0002:0000c320       ___acrt_log10_table_t      1006c320     libucrt:log10_tables.obj
 0002:0000c730       ___acrt_log10_table_cb     1006c730     libucrt:log10_tables.obj
 0002:0000cb50       __xmm@00000000000000000000000000000000 1006cb50     libvcruntime:wcschr.obj
 0002:0000cb60       ??_C@_0O@JKAFBCMB@CreateActCtxW@ 1006cb60     OmniMIDI.obj
 0002:0000cb70       ??_C@_0P@CECBPMJL@ActivateActCtx@ 1006cb70     OmniMIDI.obj
 0002:0000cb80       ??_C@_0BB@NPIOCCPF@DeactivateActCtx@ 1006cb80     OmniMIDI.obj
 0002:0000cb94       ??_C@_0BJ@MGNMALIC@FindActCtxSectionStringW@ 1006cb94     OmniMIDI.obj
 0002:0000cbb0       ??_C@_0N@IMINIHMJ@QueryActCtxW@ 1006cbb0     OmniMIDI.obj
 0002:0000cbc0       ??_C@_0BD@GIGEJCNH@GetModuleHandleExW@ 1006cbc0     OmniMIDI.obj
 0002:0000cbd4       ??_C@_1BK@BFMCNHEO@?$AAC?$AAo?$AAm?$AAc?$AAt?$AAl?$AA3?$AA2?$AA?4?$AAd?$AAl?$AAl@ 1006cbd4     OmniMIDI.obj
 0002:0000cbf0       ??_C@_1BK@EJBALEBG@?$AAK?$AAe?$AAr?$AAn?$AAe?$AAl?$AA3?$AA2?$AA?4?$AAd?$AAl?$AAl@ 1006cbf0     OmniMIDI.obj
 0002:0000cc0c       ??_C@_13FPGAJAPJ@?$AA?2@   1006cc0c     OmniMIDI.obj
 0002:0000cc10       ??_C@_13MKMNOPIJ@?$AAD@    1006cc10     OmniMIDI.obj
 0002:0000cc14       ??_C@_13OPKGLAFF@?$AAB@    1006cc14     OmniMIDI.obj
 0002:0000cc18       ??_C@_11LOCGONAA@@         1006cc18     OmniMIDI.obj
 0002:0000cc1c       ??_C@_0BC@EOODALEL@Unknown?5exception@ 1006cc1c     OmniMIDI.obj
 0002:0000cc30       ??_C@_0BF@KINCDENJ@bad?5array?5new?5length@ 1006cc30     OmniMIDI.obj
 0002:0000cc48       ??_C@_0BA@JFNIOLAK@string?5too?5long@ 1006cc48     OmniMIDI.obj
 0002:0000cc58       ??_C@_02LMMGGCAJ@?3?5@     1006cc58     OmniMIDI.obj
 0002:0000cc5b       ??_C@_00CNPNBAHC@@         1006cc5b     OmniMIDI.obj
 0002:0000cc5c       ??_C@_08LLGCOLLL@iostream@ 1006cc5c     OmniMIDI.obj
 0002:0000cc68       ??_C@_08EPJLHIJG@bad?5cast@ 1006cc68     OmniMIDI.obj
 0002:0000cc74       ??_C@_0BA@ELKIONDK@bad?5locale?5name@ 1006cc74     OmniMIDI.obj
 0002:0000cc84       ??_C@_05LAPONLG@false@     1006cc84     OmniMIDI.obj
 0002:0000cc8c       ??_C@_04LOAJBDKD@true@     1006cc8c     OmniMIDI.obj
 0002:0000cc94       ??_C@_01NBENCBCI@?$CK@     1006cc94     OmniMIDI.obj
 0002:0000cc98       ??_C@_01GFHCPBMG@C@        1006cc98     OmniMIDI.obj
 0002:0000cc9c       ??_C@_0BF@PHHKMMFD@ios_base?3?3badbit?5set@ 1006cc9c     OmniMIDI.obj
 0002:0000ccb4       ??_C@_0BG@FMKFHCIL@ios_base?3?3failbit?5set@ 1006ccb4     OmniMIDI.obj
 0002:0000cccc       ??_C@_0BF@OOHOMBOF@ios_base?3?3eofbit?5set@ 1006cccc     OmniMIDI.obj
 0002:0000cce4       ??_C@_15HBBGCAG@?$AA?$CF?$AAf@ 1006cce4     OmniMIDI.obj
 0002:0000ccec       ??_C@_1BK@HECAGLMD@?$AAw?$AAm?$AAp?$AAl?$AAa?$AAy?$AAe?$AAr?$AA?4?$AAe?$AAx?$AAe@ 1006ccec     OmniMIDI.obj
 0002:0000cd08       ??_C@_1DA@KFJLNGDM@?$AAB?$AAa?$AAt?$AAt?$AAl?$AAe?$AA?4?$AAn?$AAe?$AAt?$AA?5?$AAL?$AAa?$AAu?$AAn@ 1006cd08     OmniMIDI.obj
 0002:0000cd38       ??_C@_1BI@CHJAHODC@?$AAD?$AAi?$AAs?$AAc?$AAo?$AAr?$AAd?$AA?4?$AAe?$AAx?$AAe@ 1006cd38     OmniMIDI.obj
 0002:0000cd50       ??_C@_1CE@OJJBEIMG@?$AAD?$AAi?$AAs?$AAc?$AAo?$AAr?$AAd?$AAC?$AAa?$AAn?$AAa?$AAr?$AAy?$AA?4?$AAe@ 1006cd50     OmniMIDI.obj
 0002:0000cd74       ??_C@_1BK@KPKJBNBK@?$AAF?$AAo?$AAr?$AAt?$AAn?$AAi?$AAt?$AAe?$AA?4?$AAe?$AAx?$AAe@ 1006cd74     OmniMIDI.obj
 0002:0000cd90       ??_C@_1CM@IEICJHOM@?$AAI?$AAC?$AAE?$AAs?$AAo?$AAu?$AAn?$AAd?$AAS?$AAe?$AAr?$AAv?$AAi?$AAc?$AAe@ 1006cd90     OmniMIDI.obj
 0002:0000cdbc       ??_C@_1BI@LFOBLIOF@?$AAL?$AAo?$AAg?$AAo?$AAn?$AAU?$AAI?$AA?4?$AAe?$AAx?$AAe@ 1006cdbc     OmniMIDI.obj
 0002:0000cdd4       ??_C@_1DA@OOFGLLBI@?$AAN?$AAV?$AAD?$AAi?$AAs?$AAp?$AAl?$AAa?$AAy?$AA?4?$AAC?$AAo?$AAn?$AAt?$AAa@ 1006cdd4     OmniMIDI.obj
 0002:0000ce04       ??_C@_1CC@IHHOECCB@?$AAN?$AAV?$AAI?$AAD?$AAI?$AAA?$AA?5?$AAS?$AAh?$AAa?$AAr?$AAe?$AA?4?$AAe?$AAx@ 1006ce04     OmniMIDI.obj
 0002:0000ce28       ??_C@_1CM@DBKNCIOK@?$AAN?$AAV?$AAI?$AAD?$AAI?$AAA?$AA?5?$AAW?$AAe?$AAb?$AA?5?$AAH?$AAe?$AAl?$AAp@ 1006ce28     OmniMIDI.obj
 0002:0000ce54       ??_C@_1BO@CCHFGKDE@?$AAR?$AAa?$AAi?$AAn?$AAb?$AAo?$AAw?$AAS?$AAi?$AAx?$AA?4?$AAe?$AAx?$AAe@ 1006ce54     OmniMIDI.obj
 0002:0000ce74       ??_C@_1CE@KAHFAFCA@?$AAR?$AAu?$AAn?$AAt?$AAi?$AAm?$AAe?$AAB?$AAr?$AAo?$AAk?$AAe?$AAr?$AA?4?$AAe@ 1006ce74     OmniMIDI.obj
 0002:0000ce98       ??_C@_1BO@GEEPMDKJ@?$AAR?$AAu?$AAs?$AAt?$AAC?$AAl?$AAi?$AAe?$AAn?$AAt?$AA?4?$AAe?$AAx?$AAe@ 1006ce98     OmniMIDI.obj
 0002:0000ceb8       ??_C@_1BK@MHHLKNOD@?$AAS?$AAe?$AAa?$AAr?$AAc?$AAh?$AAU?$AAI?$AA?4?$AAe?$AAx?$AAe@ 1006ceb8     OmniMIDI.obj
 0002:0000ced4       ??_C@_1DE@COLAFFLF@?$AAS?$AAe?$AAc?$AAu?$AAr?$AAi?$AAt?$AAy?$AAH?$AAe?$AAa?$AAl?$AAt?$AAh?$AAS@ 1006ced4     OmniMIDI.obj
 0002:0000cf08       ??_C@_1DE@FGJGILMC@?$AAS?$AAe?$AAc?$AAu?$AAr?$AAi?$AAt?$AAy?$AAH?$AAe?$AAa?$AAl?$AAt?$AAh?$AAS@ 1006cf08     OmniMIDI.obj
 0002:0000cf3c       ??_C@_1DA@GEAMJLCC@?$AAS?$AAh?$AAe?$AAl?$AAl?$AAE?$AAx?$AAp?$AAe?$AAr?$AAi?$AAe?$AAn?$AAc?$AAe@ 1006cf3c     OmniMIDI.obj
 0002:0000cf6c       ??_C@_1BG@JJEHIAAC@?$AAS?$AAn?$AAd?$AAV?$AAo?$AAl?$AA?4?$AAe?$AAx?$AAe@ 1006cf6c     OmniMIDI.obj
 0002:0000cf84       ??_C@_1BK@PJNLPIKB@?$AAW?$AAU?$AAD?$AAF?$AAH?$AAo?$AAs?$AAt?$AA?4?$AAe?$AAx?$AAe@ 1006cf84     OmniMIDI.obj
 0002:0000cfa0       ??_C@_1BI@KAPIDPND@?$AAc?$AAo?$AAn?$AAh?$AAo?$AAs?$AAt?$AA?4?$AAe?$AAx?$AAe@ 1006cfa0     OmniMIDI.obj
 0002:0000cfb8       ??_C@_1BI@FGHHOGLO@?$AAc?$AAo?$AAn?$AAs?$AAe?$AAn?$AAt?$AA?4?$AAe?$AAx?$AAe@ 1006cfb8     OmniMIDI.obj
 0002:0000cfd0       ??_C@_1BE@OMGDNGEO@?$AAc?$AAs?$AAr?$AAs?$AAs?$AA?4?$AAe?$AAx?$AAe@ 1006cfd0     OmniMIDI.obj
 0002:0000cfe4       ??_C@_1BG@ENNAMINJ@?$AAc?$AAt?$AAf?$AAm?$AAo?$AAn?$AA?4?$AAe?$AAx?$AAe@ 1006cfe4     OmniMIDI.obj
 0002:0000cffc       ??_C@_1BA@OFHNBEOI@?$AAd?$AAw?$AAm?$AA?4?$AAe?$AAx?$AAe@ 1006cffc     OmniMIDI.obj
 0002:0000d00c       ??_C@_1BK@BPIGMGKF@?$AAe?$AAx?$AAp?$AAl?$AAo?$AAr?$AAe?$AAr?$AA?4?$AAe?$AAx?$AAe@ 1006d00c     OmniMIDI.obj
 0002:0000d028       ??_C@_1CA@OHMECBHA@?$AAf?$AAo?$AAn?$AAt?$AAd?$AAr?$AAv?$AAh?$AAo?$AAs?$AAt?$AA?4?$AAe?$AAx?$AAe@ 1006d028     OmniMIDI.obj
 0002:0000d048       ??_C@_1BE@FPBDCMAD@?$AAl?$AAs?$AAa?$AAs?$AAs?$AA?4?$AAe?$AAx?$AAe@ 1006d048     OmniMIDI.obj
 0002:0000d05c       ??_C@_1BE@KKBCBJDB@?$AAm?$AAs?$AAt?$AAs?$AAc?$AA?4?$AAe?$AAx?$AAe@ 1006d05c     OmniMIDI.obj
 0002:0000d070       ??_C@_1CA@DPPJPMFP@?$AAn?$AAv?$AAc?$AAo?$AAn?$AAt?$AAa?$AAi?$AAn?$AAe?$AAr?$AA?4?$AAe?$AAx?$AAe@ 1006d070     OmniMIDI.obj
 0002:0000d090       ??_C@_1CC@KKHKGAKN@?$AAn?$AAv?$AAs?$AAp?$AAh?$AAe?$AAl?$AAp?$AAe?$AAr?$AA6?$AA4?$AA?4?$AAe?$AAx@ 1006d090     OmniMIDI.obj
 0002:0000d0b4       ??_C@_1CK@KNDJLOKA@?$AAR?$AAt?$AAk?$AAA?$AAu?$AAd?$AAU?$AAS?$AAe?$AAr?$AAv?$AAi?$AAc?$AAe?$AA3@ 1006d0b4     OmniMIDI.obj
 0002:0000d0e0       ??_C@_1CK@MGKHHFCN@?$AAR?$AAt?$AAk?$AAA?$AAu?$AAd?$AAU?$AAS?$AAe?$AAr?$AAv?$AAi?$AAc?$AAe?$AA6@ 1006d0e0     OmniMIDI.obj
 0002:0000d10c       ??_C@_1BC@GMMNGGPN@?$AAs?$AAm?$AAs?$AAs?$AA?4?$AAe?$AAx?$AAe@ 1006d10c     OmniMIDI.obj
 0002:0000d120       ??_C@_1BI@OLEEAJKA@?$AAs?$AAp?$AAo?$AAo?$AAl?$AAs?$AAv?$AA?4?$AAe?$AAx?$AAe@ 1006d120     OmniMIDI.obj
 0002:0000d138       ??_C@_1BI@MHPCLJJ@?$AAV?$AAB?$AAo?$AAx?$AAS?$AAD?$AAS?$AA?4?$AAe?$AAx?$AAe@ 1006d138     OmniMIDI.obj
 0002:0000d150       ??_C@_1BI@IHLLDOKE@?$AAV?$AAB?$AAo?$AAx?$AAS?$AAV?$AAC?$AA?4?$AAe?$AAx?$AAe@ 1006d150     OmniMIDI.obj
 0002:0000d168       ??_C@_1BK@OKPPKOFD@?$AAv?$AAc?$AAp?$AAk?$AAg?$AAs?$AAr?$AAv?$AA?4?$AAe?$AAx?$AAe@ 1006d168     OmniMIDI.obj
 0002:0000d184       ??_C@_1BO@BBAHOOOF@?$AAV?$AAi?$AAr?$AAt?$AAu?$AAa?$AAl?$AAB?$AAo?$AAx?$AA?4?$AAe?$AAx?$AAe@ 1006d184     OmniMIDI.obj
 0002:0000d1a4       ??_C@_1CC@PPKEIEHC@?$AAV?$AAi?$AAr?$AAt?$AAu?$AAa?$AAl?$AAB?$AAo?$AAx?$AAV?$AAM?$AA?4?$AAe?$AAx@ 1006d1a4     OmniMIDI.obj
 0002:0000d1c8       ??_C@_1CC@MGJPDOGF@?$AAv?$AAm?$AAw?$AAa?$AAr?$AAe?$AA?9?$AAh?$AAo?$AAs?$AAt?$AAd?$AA?4?$AAe?$AAx@ 1006d1c8     OmniMIDI.obj
 0002:0000d1ec       ??_C@_1BO@BGGFAIMI@?$AAv?$AAm?$AAw?$AAa?$AAr?$AAe?$AA?9?$AAv?$AAm?$AAx?$AA?4?$AAe?$AAx?$AAe@ 1006d1ec     OmniMIDI.obj
 0002:0000d20c       ??_C@_1BI@DBNLEFLG@?$AAw?$AAi?$AAn?$AAi?$AAn?$AAi?$AAt?$AA?4?$AAe?$AAx?$AAe@ 1006d20c     OmniMIDI.obj
 0002:0000d224       ??_C@_1BK@HLMOGDAH@?$AAw?$AAi?$AAn?$AAl?$AAo?$AAg?$AAo?$AAn?$AA?4?$AAe?$AAx?$AAe@ 1006d224     OmniMIDI.obj
 0002:0000d240       ??_C@_1BI@EGIFDOJE@?$AAw?$AAl?$AAa?$AAn?$AAe?$AAx?$AAt?$AA?4?$AAe?$AAx?$AAe@ 1006d240     OmniMIDI.obj
 0002:0000d258       ??_C@_1CO@MPMFBNDF@?$AA?2?$AA?2?$AA?4?$AA?2?$AAp?$AAi?$AAp?$AAe?$AA?2?$AAO?$AAm?$AAn?$AAi?$AAM?$AAI@ 1006d258     OmniMIDI.obj
 0002:0000d288       ??_C@_1FC@OCLLGLMC@?$AA?2?$AAC?$AAo?$AAm?$AAm?$AAo?$AAn?$AA?5?$AAS?$AAo?$AAu?$AAn?$AAd?$AAF?$AAo@ 1006d288     OmniMIDI.obj
 0002:0000d2dc       ??_C@_1DI@KPEADMO@?$AA?2?$AAO?$AAm?$AAn?$AAi?$AAM?$AAI?$AAD?$AAI?$AA?2?$AA?$CF?$AAs?$AA?2?$AAO?$AAm@ 1006d2dc     OmniMIDI.obj
 0002:0000d314       ??_C@_13PNBDBPLL@?$AAA@    1006d314     OmniMIDI.obj
 0002:0000d318       ??_C@_13FHBKNHDA@?$AAC@    1006d318     OmniMIDI.obj
 0002:0000d31c       ??_C@_13HCHBIIOM@?$AAE@    1006d31c     OmniMIDI.obj
 0002:0000d320       ??_C@_13GAMECHAC@?$AAF@    1006d320     OmniMIDI.obj
 0002:0000d324       ??_C@_13NIHIEAGH@?$AAG@    1006d324     OmniMIDI.obj
 0002:0000d328       ??_C@_17EEOGHOKP@?$AA?$CF?$AAw?$AAs@ 1006d328     OmniMIDI.obj
 0002:0000d330       ??_C@_07MOMJMPG@dbghelp@   1006d330     OmniMIDI.obj
 0002:0000d338       ??_C@_0BC@MNIKNFKD@MiniDumpWriteDump@ 1006d338     OmniMIDI.obj
 0002:0000d34c       ??_C@_1CK@OEPOPJHN@?$AA?2?$AAO?$AAm?$AAn?$AAi?$AAM?$AAI?$AAD?$AAI?$AA?2?$AAd?$AAu?$AAm?$AAp?$AAf@ 1006d34c     OmniMIDI.obj
 0002:0000d378       ??_C@_1CK@NIDMCFFP@?$AA?5?$AA?9?$AA?5?$AA?$CF?$AAd?$AA?9?$AA?$CF?$AAm?$AA?9?$AA?$CF?$AAY?$AA?5?$AA?$CF?$AAH?$AA?4@ 1006d378     OmniMIDI.obj
 0002:0000d3a4       ??_C@_1DE@BDHHGAAC@?$AA?5?$AA?$CI?$AAO?$AAm?$AAn?$AAi?$AAM?$AAI?$AAD?$AAI?$AA?5?$AAM?$AAi?$AAn?$AAi@ 1006d3a4     OmniMIDI.obj
 0002:0000d3d8       ??_C@_1CA@LBCJHDFG@?$AA?5?$AAu?$AAn?$AAr?$AAe?$AAc?$AAo?$AAv?$AAe?$AAr?$AAa?$AAb?$AAl?$AAe?$AA?5@ 1006d3d8     OmniMIDI.obj
 0002:0000d3f8       ??_C@_1LM@NLPJMKDD@?$AAA?$AAn?$AA?$CF?$AAs?$AAe?$AAr?$AAr?$AAo?$AAr?$AA?5?$AAh?$AAa?$AAs?$AA?5?$AAo@ 1006d3f8     OmniMIDI.obj
 0002:0000d4b8       ??_C@_1EK@NCKNLHMO@?$AA?6?$AA?6?$AAA?$AAd?$AAd?$AAi?$AAt?$AAi?$AAo?$AAn?$AAa?$AAl?$AA?5?$AAi?$AAn@ 1006d4b8     OmniMIDI.obj
 0002:0000d508       ??_C@_1EC@DIABAGAN@?$AA?6?$AA?6?$AAC?$AAl?$AAi?$AAc?$AAk?$AA?5?$AAO?$AAK?$AA?5?$AAt?$AAo?$AA?5?$AAc@ 1006d508     OmniMIDI.obj
 0002:0000d54c       ??_C@_1DG@HLHFJKBD@?$AAO?$AAm?$AAn?$AAi?$AAM?$AAI?$AAD?$AAI?$AA?5?$AA?9?$AA?5?$AAG?$AAu?$AAr?$AAu@ 1006d54c     OmniMIDI.obj
 0002:0000d584       ??_C@_1CC@EGDFKAFM@?$AA?2?$AAO?$AAm?$AAn?$AAi?$AAM?$AAI?$AAD?$AAI?$AA?2?$AAd?$AAe?$AAb?$AAu?$AAg@ 1006d584     OmniMIDI.obj
 0002:0000d5a8       ??_C@_1CI@NKHINFEF@?$AA?5?$AA?$CI?$AAD?$AAe?$AAb?$AAu?$AAg?$AA?5?$AAo?$AAu?$AAt?$AAp?$AAu?$AAt?$AA?$CJ@ 1006d5a8     OmniMIDI.obj
 0002:0000d5d0       ??_C@_1BM@LDBHIIFL@?$AA?2?$AAO?$AAm?$AAn?$AAi?$AAM?$AAI?$AAD?$AAI?$AA?4?$AAd?$AAl?$AAl@ 1006d5d0     OmniMIDI.obj
 0002:0000d5ec       ??_C@_15PKKGKKJM@?$AAa?$AA?$CL@ 1006d5ec     OmniMIDI.obj
 0002:0000d5f4       ??_C@_0CJ@EBIOIHBJ@?$DN?$DN?$DN?$DN?$DN?$DN?$DN?$DN?$DN?$DN?$DN?$DN?$DN?$DN?$DN?$DN?$DN?$DN?$DN?$DN?$DN?$DN?$DN?$DN?$DN?$DN?$DN?$DN?$DN?$DN?$DN@ 1006d5f4     OmniMIDI.obj
 0002:0000d620       ??_C@_0BD@BPCDCFFP@OmniMIDI?5?$CFd?4?$CFd?4?$CFd?5@ 1006d620     OmniMIDI.obj
 0002:0000d634       ??_C@_05MIJEKCGH@CR?$CFd?5@ 1006d634     OmniMIDI.obj
 0002:0000d63c       ??_C@_0CA@GAAPKJFN@?$CIKDMAPI?5?$CFd?4?$CFd?4?$CFd?0?5Revision?5?$CFd?$CJ?6@ 1006d63c     OmniMIDI.obj
 0002:0000d65c       ??_C@_0CH@NILBMLFB@Copyright?$CIC?$CJ?52021?5?9?5Keppy?8s?5Sof@ 1006d65c     OmniMIDI.obj
 0002:0000d684       ??_C@_0CG@NLCNLLPB@?$CF02d?9?$CF02d?9?$CF04d?5?$CF02d?3?$CF02d?3?$CF02d?4?$CF@ 1006d684     OmniMIDI.obj
 0002:0000d6b0       ??_C@_1EM@CHBFLHGB@?$AA?$CF?$AA0?$AA2?$AAd?$AA?9?$AA?$CF?$AA0?$AA2?$AAd?$AA?9?$AA?$CF?$AA0?$AA4?$AAd?$AA?5@ 1006d6b0     OmniMIDI.obj
 0002:0000d6fc       ??_C@_1CE@KPGHOHNB@?$AAL?$AAi?$AAb?$AAr?$AAa?$AAr?$AAy?$AA?5?$AA?$DM?$AA?$DM?$AA?$CF?$AAs?$AA?$DO?$AA?$DO?$AA?5@ 1006d6fc     OmniMIDI.obj
 0002:0000d720       ??_C@_03OFAPEBGM@?$CFs?6@  1006d720     OmniMIDI.obj
 0002:0000d724       ??_C@_0CO@LONENFKO@Stage?5?$DM?$DMNewSFLoader?$DO?$DO?5?$HM?5SoundFo@ 1006d724     OmniMIDI.obj
 0002:0000d754       ??_C@_0BD@MPMEJMKH@Stage?5?$DM?$DM?$CFs?$DO?$DO?5?$HM?5?$CFs?6@ 1006d754     OmniMIDI.obj
 0002:0000d768       ??_C@_1CG@FDHHBOHK@?$AAS?$AAt?$AAa?$AAg?$AAe?$AA?5?$AA?$DM?$AA?$DM?$AA?$CF?$AAs?$AA?$DO?$AA?$DO?$AA?5?$AA?$HM?$AA?5@ 1006d768     OmniMIDI.obj
 0002:0000d790       ??_C@_0DD@HMGNFOBI@Stage?5?$DM?$DM?$CFs?$DO?$DO?5?$HM?5?$CFs?3?5?$CFi?5?$CIHEX?3?5?$CF08@ 1006d790     OmniMIDI.obj
 0002:0000d7c4       ??_C@_0DM@KHAJONJJ@Stage?5?$DM?$DM?$CFs?$DO?$DO?5?$HM?5?$CFs?3?5?$CFu?5?$CIHEX?3?5?$CF08@ 1006d7c4     OmniMIDI.obj
 0002:0000d800       ??_C@_0DE@OPEOGHBB@Stage?5?$DM?$DM?$CFs?$DO?$DO?5?$HM?5?$CFs?3?5?$CFi?5?$CIHEX?3?5?$CF01@ 1006d800     OmniMIDI.obj
 0002:0000d834       ??_C@_0DN@MLKPHPLE@Stage?5?$DM?$DM?$CFs?$DO?$DO?5?$HM?5?$CFs?3?5?$CFu?5?$CIHEX?3?5?$CF01@ 1006d834     OmniMIDI.obj
 0002:0000d874       ??_C@_0BP@LBCKEOAO@Stage?5?$DM?$DM?$CFs?$DO?$DO?5?$HM?5?$CFs?3?5?$CFf?5?$CIfloat?$CJ?6@ 1006d874     OmniMIDI.obj
 0002:0000d894       ??_C@_0BO@FKIJMNGL@Stage?5?$DM?$DM?$CFs?$DO?$DO?5?$HM?5?$CFs?3?5?$CFs?5?$CIbool?$CJ?6@ 1006d894     OmniMIDI.obj
 0002:0000d8b8       ??_C@_1EC@KFOHHMDN@?$AAS?$AAt?$AAa?$AAg?$AAe?$AA?5?$AA?$DM?$AA?$DM?$AA?$CF?$AAS?$AA?$DO?$AA?$DO?$AA?5?$AA?$HM?$AA?5@ 1006d8b8     OmniMIDI.obj
 0002:0000d900       ??_C@_0FB@OPBPFFPM@Stage?5?$DM?$DM?$CFs?$DO?$DO?5?$HM?5?$CFs?3?5unrecognized@ 1006d900     OmniMIDI.obj
 0002:0000d958       ??_C@_1EI@MOAGLK@?$AAB?$AAA?$AAS?$AAS?$AA?5?$AAe?$AAr?$AAr?$AAo?$AAr?$AA?5?$AA?$DM?$AA?$DM?$AA?$CF?$AAs@ 1006d958     OmniMIDI.obj
 0002:0000d9a0       ??_C@_0BH@HKHKJINH@Stage?5?$DM?$DM?$CFs?$DO?$DO?5?$HM?5?$CFs?3?5?$CFu?6@ 1006d9a0     OmniMIDI.obj
 0002:0000d9b8       ??_C@_0GB@GOGHDMAA@Stage?5?$DM?$DM?$CFs?$DO?$DO?5?$HM?5HMIDI?3?5?$CF08X?5?9?5dw@ 1006d9b8     OmniMIDI.obj
 0002:0000da1c       ??_C@_0BO@IKGCLFBA@Stage?5?$DM?$DM?$CFs?$DO?$DO?5?$HM?5MIDIHDR?5data?3?5@ 1006da1c     OmniMIDI.obj
 0002:0000da3c       ??_C@_04JFFKLGJF@?$CF02X@  1006da3c     OmniMIDI.obj
 0002:0000da44       ??_C@_0BH@CLIKDBLK@?5?$CIRecorded?5bytes?3?5?$CFu?$CJ?6@ 1006da44     OmniMIDI.obj
 0002:0000da5c       ??_C@_0CI@GILHGDDB@Stage?5?$DM?$DMMIDIEvent?5?$HM?5?$CF06X?$DO?$DO?5?$HM?5Ev@ 1006da5c     OmniMIDI.obj
 0002:0000da84       ??_C@_0CA@FPDBNDNI@Note?5off?0?5Channel?3?5?$CFu?0?5Key?3?5?$CFu?6@ 1006da84     OmniMIDI.obj
 0002:0000daa4       ??_C@_0CN@BBEEIDGB@Note?5on?0?5Channel?3?5?$CFu?0?5Key?3?5?$CFu?0?5@ 1006daa4     OmniMIDI.obj
 0002:0000dad4       ??_C@_0DI@LAEPLOIL@Polyphonic?5aftertouch?0?5Channel?3@ 1006dad4     OmniMIDI.obj
 0002:0000db0c       ??_C@_0DP@HAOPJACJ@Control?5mode?5change?0?5Channel?3?5?$CF@ 1006db0c     OmniMIDI.obj
 0002:0000db4c       ??_C@_0CN@KAFGCAPB@Patch?5change?0?5Channel?3?5?$CFu?0?5Inst@ 1006db4c     OmniMIDI.obj
 0002:0000db7c       ??_C@_0CP@KIIIPMFG@Channel?5aftertouch?0?5Channel?3?5?$CFu@ 1006db7c     OmniMIDI.obj
 0002:0000dbac       ??_C@_0CM@PLCHPDEF@Pitch?5wheel?0?5Channel?3?5?$CFu?0?5LSB?3?5@ 1006dbac     OmniMIDI.obj
 0002:0000dbd8       ??_C@_0BE@LJBAJBMP@Start?5of?5SysEx?5Msg?6@ 1006dbd8     OmniMIDI.obj
 0002:0000dbec       ??_C@_0CG@IIMFDCJC@MIDI?5Time?5Code?5Quarter?5Frame?5?$CIS@ 1006dbec     OmniMIDI.obj
 0002:0000dc14       ??_C@_0BP@LHGKJLLF@Song?5Position?5Pointer?5?$CISysCm?$CJ?6@ 1006dc14     OmniMIDI.obj
 0002:0000dc34       ??_C@_0BF@IINANBJH@Song?5Select?5?$CISysCm?$CJ?6@ 1006dc34     OmniMIDI.obj
 0002:0000dc4c       ??_C@_0BG@LDMAADEF@Tune?5Request?5?$CISysCm?$CJ?6@ 1006dc4c     OmniMIDI.obj
 0002:0000dc64       ??_C@_0BC@IGPIPKG@End?5of?5SysEx?5Msg?6@ 1006dc64     OmniMIDI.obj
 0002:0000dc78       ??_C@_0BG@BNBICHHM@Timing?5Clock?5?$CISysCm?$CJ?6@ 1006dc78     OmniMIDI.obj
 0002:0000dc90       ??_C@_0P@CDICHAJA@Start?5?$CISysRt?$CJ?6@ 1006dc90     OmniMIDI.obj
 0002:0000dca0       ??_C@_0BC@JBPJFEMN@Continue?5?$CISysRt?$CJ?6@ 1006dca0     OmniMIDI.obj
 0002:0000dcb4       ??_C@_0O@JJOBNMLK@Stop?5?$CISysRt?$CJ?6@ 1006dcb4     OmniMIDI.obj
 0002:0000dcc4       ??_C@_0BI@MHHALGNE@Active?5Sensing?5?$CISysRt?$CJ?6@ 1006dcc4     OmniMIDI.obj
 0002:0000dcdc       ??_C@_0BG@POFJHLJM@System?5Reset?5?$CISysRt?$CJ?6@ 1006dcdc     OmniMIDI.obj
 0002:0000dcf4       ??_C@_0BA@HFJBPHHK@UNKNOWN?5?$CI?$CF02X?$CJ?6@ 1006dcf4     OmniMIDI.obj
 0002:0000dd04       ??_C@_0CO@IMBIOHME@Stage?5?$DM?$DMSendLongToBASSMIDI?$DO?$DO?5?$HM?5@ 1006dd04     OmniMIDI.obj
 0002:0000dd34       ??_C@_17OPENNNNL@?$AA9?$AA3?$AA7@ 1006dd34     OmniMIDI.obj
 0002:0000dd40       ??_C@_1EI@BLOLHIME@?$AAE?$AA?3?$AA?2?$AAG?$AAi?$AAt?$AAH?$AAu?$AAb?$AA?2?$AAO?$AAm?$AAn?$AAi?$AAM@ 1006dd40     OmniMIDI.obj
 0002:0000dd88       ??_C@_1BO@HFFJGEHL@?$AAS?$AAt?$AAa?$AAr?$AAt?$AAD?$AAe?$AAb?$AAu?$AAg?$AAP?$AAi?$AAp?$AAe@ 1006dd88     OmniMIDI.obj
 0002:0000dda8       ??_C@_0DD@MNLMEBHF@?$CCThe?5system?5is?5unable?5to?5alloca@ 1006dda8     OmniMIDI.obj
 0002:0000dddc       ??_C@_0P@EPPEGADC@MMSYSERR_NOMEM@ 1006dddc     OmniMIDI.obj
 0002:0000ddec       ??_C@_0N@JHFCDOEN@Error?5?$CFs?3?6?$CFs@ 1006ddec     OmniMIDI.obj
 0002:0000de00       ??_C@_0GO@KMOBCHGJ@?$CCThe?5driver?5has?5been?5already?5al@ 1006de00     OmniMIDI.obj
 0002:0000de70       ??_C@_0BD@NNKIPGHM@MMSYSERR_ALLOCATED@ 1006de70     OmniMIDI.obj
 0002:0000de88       ??_C@_0GI@DDAIMEEH@?$CCThe?5driver?5has?5more?5data?5to?5re@ 1006de88     OmniMIDI.obj
 0002:0000def0       ??_C@_0BC@PMLGBJPA@MMSYSERR_MOREDATA@ 1006def0     OmniMIDI.obj
 0002:0000df04       ??_C@_0CL@PIPKHEOB@?$CCThe?5driver?5does?5not?5call?5Drive@ 1006df04     OmniMIDI.obj
 0002:0000df30       ??_C@_0BE@JACKNLLN@MMSYSERR_NODRIVERCB@ 1006df30     OmniMIDI.obj
 0002:0000df44       ??_C@_0DB@PIFNJJPM@?$CCThe?5handle?5of?5the?5specified?5de@ 1006df44     OmniMIDI.obj
 0002:0000df78       ??_C@_0BF@ONIHIDFF@MMSYSERR_INVALHANDLE@ 1006df78     OmniMIDI.obj
 0002:0000df90       ??_C@_0CM@GMHLDNNF@?$CCAn?5invalid?5flag?5was?5passed?5to?5@ 1006df90     OmniMIDI.obj
 0002:0000dfbc       ??_C@_0BD@KHDCCCBK@MMSYSERR_INVALFLAG@ 1006dfbc     OmniMIDI.obj
 0002:0000dfd0       ??_C@_0DB@IDEEBIEB@?$CCAn?5invalid?5parameter?5was?5passe@ 1006dfd0     OmniMIDI.obj
 0002:0000e004       ??_C@_0BE@NDCMFLOE@MMSYSERR_INVALPARAM@ 1006e004     OmniMIDI.obj
 0002:0000e018       ??_C@_0CL@HGKJHHDK@?$CCThe?5driver?5failed?5to?5load?5or?5i@ 1006e018     OmniMIDI.obj
 0002:0000e044       ??_C@_0BE@MBNBIKNL@MMSYSERR_NOTENABLED@ 1006e044     OmniMIDI.obj
 0002:0000e058       ??_C@_0DK@GLLENEMJ@?$CCThe?5function?5requested?5by?5the?5@ 1006e058     OmniMIDI.obj
 0002:0000e094       ??_C@_0BG@MNNNINOD@MMSYSERR_NOTSUPPORTED@ 1006e094     OmniMIDI.obj
 0002:0000e0ac       ??_C@_0CM@HGMMINDC@?$CCThe?5driver?5is?5busy?5processing?5@ 1006e0ac     OmniMIDI.obj
 0002:0000e0d8       ??_C@_0BB@OCMKDOMI@MIDIERR_NOTREADY@ 1006e0d8     OmniMIDI.obj
 0002:0000e0ec       ??_C@_0DC@NOGPHIJE@?$CCThe?5specified?5data?5block?5has?5n@ 1006e0ec     OmniMIDI.obj
 0002:0000e120       ??_C@_0BD@MIJEMHPP@MIDIERR_UNPREPARED@ 1006e120     OmniMIDI.obj
 0002:0000e134       ??_C@_0CI@ONEDIOFM@?$CCThere?5are?5data?5blocks?5still?5in@ 1006e134     OmniMIDI.obj
 0002:0000e15c       ??_C@_0BF@OGECIPFI@MIDIERR_STILLPLAYING@ 1006e15c     OmniMIDI.obj
 0002:0000e174       ??_C@_0CL@HNDCHJMJ@?$CCThe?5specified?5device?5ID?5is?5out@ 1006e174     OmniMIDI.obj
 0002:0000e1a0       ??_C@_0BF@PNCAOJKM@MMSYSERR_BADDEVICEID@ 1006e1a0     OmniMIDI.obj
 0002:0000e1b8       ??_C@_0BF@DDIIOIPD@?$CCUnspecified?5error?4?$CC@ 1006e1b8     OmniMIDI.obj
 0002:0000e1d0       ??_C@_0P@HFPEAPED@MMSYSERR_ERROR@ 1006e1d0     OmniMIDI.obj
 0002:0000e1e0       ??_C@_09EBLHEKDJ@?6?6Cause?3?5@ 1006e1e0     OmniMIDI.obj
 0002:0000e1f0       ??_C@_0GE@BDIJEFCF@?6?6If?5you?8re?5the?5developer?5of?5th@ 1006e1f0     OmniMIDI.obj
 0002:0000e254       ??_C@_0CC@LKEFFAJN@OmniMIDI?5?9?5WinMM?5API?1KDMAPI?5ERR@ 1006e254     OmniMIDI.obj
 0002:0000e278       ??_C@_0M@JHBNFDDO@CloseDriver@ 1006e278     OmniMIDI.obj
 0002:0000e284       ??_C@_0O@MHCKBCHK@DefDriverProc@ 1006e284     OmniMIDI.obj
 0002:0000e294       ??_C@_0P@JGAKALJK@DriverCallback@ 1006e294     OmniMIDI.obj
 0002:0000e2a4       ??_C@_0BD@NCENAOMJ@DrvGetModuleHandle@ 1006e2a4     OmniMIDI.obj
 0002:0000e2b8       ??_C@_0BG@BGLPABMA@GetDriverModuleHandle@ 1006e2b8     OmniMIDI.obj
 0002:0000e2d0       ??_C@_0L@ILNJFFKD@OpenDriver@ 1006e2d0     OmniMIDI.obj
 0002:0000e2dc       ??_C@_09PEMGNEEO@PlaySound@ 1006e2dc     OmniMIDI.obj
 0002:0000e2e8       ??_C@_0L@HIPCNEAH@PlaySoundA@ 1006e2e8     OmniMIDI.obj
 0002:0000e2f4       ??_C@_0L@GEGKGBNA@PlaySoundW@ 1006e2f4     OmniMIDI.obj
 0002:0000e300       ??_C@_0BC@PGJGPJMC@SendDriverMessage@ 1006e300     OmniMIDI.obj
 0002:0000e314       ??_C@_0P@KKLBGGBO@auxGetDevCapsA@ 1006e314     OmniMIDI.obj
 0002:0000e324       ??_C@_0P@LGCJNDMJ@auxGetDevCapsW@ 1006e324     OmniMIDI.obj
 0002:0000e334       ??_C@_0O@BMDBHFMD@auxGetNumDevs@ 1006e334     OmniMIDI.obj
 0002:0000e344       ??_C@_0N@HIGPNENN@auxGetVolume@ 1006e344     OmniMIDI.obj
 0002:0000e354       ??_C@_0O@MMMOGCPJ@auxOutMessage@ 1006e354     OmniMIDI.obj
 0002:0000e364       ??_C@_0N@FGCKPFEP@auxSetVolume@ 1006e364     OmniMIDI.obj
 0002:0000e374       ??_C@_0BB@NLGIOGBN@joyConfigChanged@ 1006e374     OmniMIDI.obj
 0002:0000e388       ??_C@_0P@BNFGPPJC@joyGetDevCapsA@ 1006e388     OmniMIDI.obj
 0002:0000e398       ??_C@_0P@BMOEKEF@joyGetDevCapsW@ 1006e398     OmniMIDI.obj
 0002:0000e3a8       ??_C@_0O@EGPEMCLN@joyGetNumDevs@ 1006e3a8     OmniMIDI.obj
 0002:0000e3b8       ??_C@_09LDCGPNGF@joyGetPos@ 1006e3b8     OmniMIDI.obj
 0002:0000e3c4       ??_C@_0M@EKDBBOLA@joyGetPosEx@ 1006e3c4     OmniMIDI.obj
 0002:0000e3d0       ??_C@_0BA@NFJPCMJA@joyGetThreshold@ 1006e3d0     OmniMIDI.obj
 0002:0000e3e0       ??_C@_0BC@NEGECBEA@joyReleaseCapture@ 1006e3e0     OmniMIDI.obj
 0002:0000e3f4       ??_C@_0O@FKODLKP@joySetCapture@ 1006e3f4     OmniMIDI.obj
 0002:0000e404       ??_C@_0BA@KBCBOANM@joySetThreshold@ 1006e404     OmniMIDI.obj
 0002:0000e414       ??_C@_0BA@NKMAPHLF@mciDriverNotify@ 1006e414     OmniMIDI.obj
 0002:0000e424       ??_C@_0P@MEFNPLOD@mciDriverYield@ 1006e424     OmniMIDI.obj
 0002:0000e434       ??_C@_0L@OKOKNDNB@mciExecute@ 1006e434     OmniMIDI.obj
 0002:0000e440       ??_C@_0BH@MCKGFFJE@mciFreeCommandResource@ 1006e440     OmniMIDI.obj
 0002:0000e458       ??_C@_0BC@HLNEHNKO@mciGetCreatorTask@ 1006e458     OmniMIDI.obj
 0002:0000e46c       ??_C@_0BA@DOJILCCL@mciGetDeviceIDA@ 1006e46c     OmniMIDI.obj
 0002:0000e47c       ??_C@_0BN@HIODKMJC@mciGetDeviceIDFromElementIDA@ 1006e47c     OmniMIDI.obj
 0002:0000e49c       ??_C@_0BN@GEHLBJEF@mciGetDeviceIDFromElementIDW@ 1006e49c     OmniMIDI.obj
 0002:0000e4bc       ??_C@_0BA@CCAAAHPM@mciGetDeviceIDW@ 1006e4bc     OmniMIDI.obj
 0002:0000e4cc       ??_C@_0BB@PDCLLEHN@mciGetDriverData@ 1006e4cc     OmniMIDI.obj
 0002:0000e4e0       ??_C@_0BD@GJNCMLLO@mciGetErrorStringA@ 1006e4e0     OmniMIDI.obj
 0002:0000e4f4       ??_C@_0BD@HFEKHOGJ@mciGetErrorStringW@ 1006e4f4     OmniMIDI.obj
 0002:0000e508       ??_C@_0BA@GKLEMFMH@mciGetYieldProc@ 1006e508     OmniMIDI.obj
 0002:0000e518       ??_C@_0BH@DNNEECNK@mciLoadCommandResource@ 1006e518     OmniMIDI.obj
 0002:0000e530       ??_C@_0BA@OFFAACBF@mciSendCommandA@ 1006e530     OmniMIDI.obj
 0002:0000e540       ??_C@_0BA@PJMILHMC@mciSendCommandW@ 1006e540     OmniMIDI.obj
 0002:0000e550       ??_C@_0P@CFEEHNGE@mciSendStringA@ 1006e550     OmniMIDI.obj
 0002:0000e560       ??_C@_0P@DJNMMILD@mciSendStringW@ 1006e560     OmniMIDI.obj
 0002:0000e570       ??_C@_0BB@IMDFAHAK@mciSetDriverData@ 1006e570     OmniMIDI.obj
 0002:0000e584       ??_C@_0BA@BOAKAJIL@mciSetYieldProc@ 1006e584     OmniMIDI.obj
 0002:0000e594       ??_C@_0M@PCKIPPIA@midiConnect@ 1006e594     OmniMIDI.obj
 0002:0000e5a0       ??_C@_0P@HHDHBFOA@midiDisconnect@ 1006e5a0     OmniMIDI.obj
 0002:0000e5b0       ??_C@_0BA@FDHLBLPL@midiInAddBuffer@ 1006e5b0     OmniMIDI.obj
 0002:0000e5c0       ??_C@_0M@CEKPMNHA@midiInClose@ 1006e5c0     OmniMIDI.obj
 0002:0000e5cc       ??_C@_0BC@KLHCNPMF@midiInGetDevCapsA@ 1006e5cc     OmniMIDI.obj
 0002:0000e5e0       ??_C@_0BC@LHOKGKBC@midiInGetDevCapsW@ 1006e5e0     OmniMIDI.obj
 0002:0000e5f4       ??_C@_0BE@EFDKIOMK@midiInGetErrorTextA@ 1006e5f4     OmniMIDI.obj
 0002:0000e608       ??_C@_0BE@FJKCDLBN@midiInGetErrorTextW@ 1006e608     OmniMIDI.obj
 0002:0000e61c       ??_C@_0M@JAFFEICM@midiInGetID@ 1006e61c     OmniMIDI.obj
 0002:0000e628       ??_C@_0BB@EPJKIIC@midiInGetNumDevs@ 1006e628     OmniMIDI.obj
 0002:0000e63c       ??_C@_0O@OEJMKDEF@midiInMessage@ 1006e63c     OmniMIDI.obj
 0002:0000e64c       ??_C@_0L@LHCKPMI@midiInOpen@ 1006e64c     OmniMIDI.obj
 0002:0000e658       ??_C@_0BE@NJBNBEIO@midiInPrepareHeader@ 1006e658     OmniMIDI.obj
 0002:0000e66c       ??_C@_0M@LAIIGKMK@midiInReset@ 1006e66c     OmniMIDI.obj
 0002:0000e678       ??_C@_0M@MFCNCNLM@midiInStart@ 1006e678     OmniMIDI.obj
 0002:0000e684       ??_C@_0L@PINGPIBF@midiInStop@ 1006e684     OmniMIDI.obj
 0002:0000e690       ??_C@_0BG@ONFJMPAM@midiInUnprepareHeader@ 1006e690     OmniMIDI.obj
 0002:0000e6a8       ??_C@_0BI@OELOIFEP@midiOutCacheDrumPatches@ 1006e6a8     OmniMIDI.obj
 0002:0000e6c0       ??_C@_0BE@GIBEDHIE@midiOutCachePatches@ 1006e6c0     OmniMIDI.obj
 0002:0000e6d4       ??_C@_0N@MEJKHEOO@midiOutClose@ 1006e6d4     OmniMIDI.obj
 0002:0000e6e4       ??_C@_0BD@PPNOBKKA@midiOutGetDevCapsA@ 1006e6e4     OmniMIDI.obj
 0002:0000e6f8       ??_C@_0BD@ODEGKPHH@midiOutGetDevCapsW@ 1006e6f8     OmniMIDI.obj
 0002:0000e70c       ??_C@_0BF@LGLOHDLL@midiOutGetErrorTextA@ 1006e70c     OmniMIDI.obj
 0002:0000e724       ??_C@_0BF@KKCGMGGM@midiOutGetErrorTextW@ 1006e724     OmniMIDI.obj
 0002:0000e73c       ??_C@_0N@HAGAPBLC@midiOutGetID@ 1006e73c     OmniMIDI.obj
 0002:0000e74c       ??_C@_0BC@HGGLOEHE@midiOutGetNumDevs@ 1006e74c     OmniMIDI.obj
 0002:0000e760       ??_C@_0BB@JCNOJBMM@midiOutGetVolume@ 1006e760     OmniMIDI.obj
 0002:0000e774       ??_C@_0P@DIOMOJLD@midiOutLongMsg@ 1006e774     OmniMIDI.obj
 0002:0000e784       ??_C@_0P@LJODOPMM@midiOutMessage@ 1006e784     OmniMIDI.obj
 0002:0000e794       ??_C@_0M@OLCCCPMC@midiOutOpen@ 1006e794     OmniMIDI.obj
 0002:0000e7a0       ??_C@_0BF@CKJJOJPP@midiOutPrepareHeader@ 1006e7a0     OmniMIDI.obj
 0002:0000e7b8       ??_C@_0N@FALNNDFE@midiOutReset@ 1006e7b8     OmniMIDI.obj
 0002:0000e7c8       ??_C@_0BB@LMJLLAFO@midiOutSetVolume@ 1006e7c8     OmniMIDI.obj
 0002:0000e7dc       ??_C@_0BA@FDNGLBFD@midiOutShortMsg@ 1006e7dc     OmniMIDI.obj
 0002:0000e7ec       ??_C@_0BH@BIHBPKJO@midiOutUnprepareHeader@ 1006e7ec     OmniMIDI.obj
 0002:0000e804       ??_C@_0BA@OEBEAAIP@midiStreamClose@ 1006e804     OmniMIDI.obj
 0002:0000e814       ??_C@_0P@KNDPNLH@midiStreamOpen@ 1006e814     OmniMIDI.obj
 0002:0000e824       ??_C@_0O@CMELDNCK@midiStreamOut@ 1006e824     OmniMIDI.obj
 0002:0000e834       ??_C@_0BA@KGGCADPA@midiStreamPause@ 1006e834     OmniMIDI.obj
 0002:0000e844       ??_C@_0BD@EKBJOKLL@midiStreamPosition@ 1006e844     OmniMIDI.obj
 0002:0000e858       ??_C@_0BD@OGGIMNAD@midiStreamProperty@ 1006e858     OmniMIDI.obj
 0002:0000e86c       ??_C@_0BC@MMOCJNJN@midiStreamRestart@ 1006e86c     OmniMIDI.obj
 0002:0000e880       ??_C@_0P@PJHHKKGK@midiStreamStop@ 1006e880     OmniMIDI.obj
 0002:0000e890       ??_C@_0L@HCDLPILG@mixerClose@ 1006e890     OmniMIDI.obj
 0002:0000e89c       ??_C@_0BI@POFHMCGG@mixerGetControlDetailsA@ 1006e89c     OmniMIDI.obj
 0002:0000e8b4       ??_C@_0BI@OCMPHHLB@mixerGetControlDetailsW@ 1006e8b4     OmniMIDI.obj
 0002:0000e8cc       ??_C@_0BB@FPBBDBGL@mixerGetDevCapsA@ 1006e8cc     OmniMIDI.obj
 0002:0000e8e0       ??_C@_0BB@EDIJIELM@mixerGetDevCapsW@ 1006e8e0     OmniMIDI.obj
 0002:0000e8f4       ??_C@_0L@MGMBHNOK@mixerGetID@ 1006e8f4     OmniMIDI.obj
 0002:0000e900       ??_C@_0BG@PNPFHEPN@mixerGetLineControlsA@ 1006e900     OmniMIDI.obj
 0002:0000e918       ??_C@_0BG@OBGNMBCK@mixerGetLineControlsW@ 1006e918     OmniMIDI.obj
 0002:0000e930       ??_C@_0BC@KELGCAIC@mixerGetLineInfoA@ 1006e930     OmniMIDI.obj
 0002:0000e944       ??_C@_0BC@LICOJFFF@mixerGetLineInfoW@ 1006e944     OmniMIDI.obj
 0002:0000e958       ??_C@_0BA@LDKCFHJE@mixerGetNumDevs@ 1006e958     OmniMIDI.obj
 0002:0000e968       ??_C@_0N@CPIPEBDK@mixerMessage@ 1006e968     OmniMIDI.obj
 0002:0000e978       ??_C@_09CMIDEKPN@mixerOpen@ 1006e978     OmniMIDI.obj
 0002:0000e984       ??_C@_0BH@KHAJOKIA@mixerSetControlDetails@ 1006e984     OmniMIDI.obj
 0002:0000e99c       ??_C@_0BB@ONGONIEO@mmGetCurrentTask@ 1006e99c     OmniMIDI.obj
 0002:0000e9b0       ??_C@_0M@EIJBKDJL@mmTaskBlock@ 1006e9b0     OmniMIDI.obj
 0002:0000e9bc       ??_C@_0N@BHHHBILF@mmTaskCreate@ 1006e9bc     OmniMIDI.obj
 0002:0000e9cc       ??_C@_0N@PADEOPMH@mmTaskSignal@ 1006e9cc     OmniMIDI.obj
 0002:0000e9dc       ??_C@_0M@KBJGFCF@mmTaskYield@ 1006e9dc     OmniMIDI.obj
 0002:0000e9e8       ??_C@_0M@GNLKJOIJ@mmioAdvance@ 1006e9e8     OmniMIDI.obj
 0002:0000e9f4       ??_C@_0L@CMFCNMID@mmioAscend@ 1006e9f4     OmniMIDI.obj
 0002:0000ea00       ??_C@_09NPGMLFBG@mmioClose@ 1006ea00     OmniMIDI.obj
 0002:0000ea0c       ??_C@_0BA@ECKJFLPG@mmioCreateChunk@ 1006ea0c     OmniMIDI.obj
 0002:0000ea1c       ??_C@_0M@GPOCHMJJ@mmioDescend@ 1006ea1c     OmniMIDI.obj
 0002:0000ea28       ??_C@_09FKLONBD@mmioFlush@ 1006ea28     OmniMIDI.obj
 0002:0000ea34       ??_C@_0M@ENPPHDBF@mmioGetInfo@ 1006ea34     OmniMIDI.obj
 0002:0000ea40       ??_C@_0BD@DIBIEKOM@mmioInstallIOProcA@ 1006ea40     OmniMIDI.obj
 0002:0000ea54       ??_C@_0BD@CEIAPPDL@mmioInstallIOProcW@ 1006ea54     OmniMIDI.obj
 0002:0000ea68       ??_C@_09IHBFDOAP@mmioOpenA@ 1006ea68     OmniMIDI.obj
 0002:0000ea74       ??_C@_09JLINILNI@mmioOpenW@ 1006ea74     OmniMIDI.obj
 0002:0000ea80       ??_C@_08BOBHBIFP@mmioRead@ 1006ea80     OmniMIDI.obj
 0002:0000ea8c       ??_C@_0M@DBKMBBPJ@mmioRenameA@ 1006ea8c     OmniMIDI.obj
 0002:0000ea98       ??_C@_0M@CNDEKECO@mmioRenameW@ 1006ea98     OmniMIDI.obj
 0002:0000eaa4       ??_C@_08KDOGIFPM@mmioSeek@ 1006eaa4     OmniMIDI.obj
 0002:0000eab0       ??_C@_0BA@LMOKOGFL@mmioSendMessage@ 1006eab0     OmniMIDI.obj
 0002:0000eac0       ??_C@_0O@JFPHFBGI@mmioSetBuffer@ 1006eac0     OmniMIDI.obj
 0002:0000ead0       ??_C@_0M@LFAOEMME@mmioSetInfo@ 1006ead0     OmniMIDI.obj
 0002:0000eadc       ??_C@_0BE@KKDGGNFB@mmioStringToFOURCCA@ 1006eadc     OmniMIDI.obj
 0002:0000eaf0       ??_C@_0BE@LGKONIIG@mmioStringToFOURCCW@ 1006eaf0     OmniMIDI.obj
 0002:0000eb04       ??_C@_09LINPJFCB@mmioWrite@ 1006eb04     OmniMIDI.obj
 0002:0000eb10       ??_C@_0O@ILIBALCL@sndPlaySoundA@ 1006eb10     OmniMIDI.obj
 0002:0000eb20       ??_C@_0O@JHBJLOPM@sndPlaySoundW@ 1006eb20     OmniMIDI.obj
 0002:0000eb30       ??_C@_0BA@DCPFICL@timeBeginPeriod@ 1006eb30     OmniMIDI.obj
 0002:0000eb40       ??_C@_0O@IHMGFLBJ@timeEndPeriod@ 1006eb40     OmniMIDI.obj
 0002:0000eb50       ??_C@_0P@HPFDHCBE@timeGetDevCaps@ 1006eb50     OmniMIDI.obj
 0002:0000eb60       ??_C@_0BC@KNMJAGLG@timeGetSystemTime@ 1006eb60     OmniMIDI.obj
 0002:0000eb74       ??_C@_0M@DEPJBPP@timeGetTime@ 1006eb74     OmniMIDI.obj
 0002:0000eb80       ??_C@_0O@LCLCLGNI@timeKillEvent@ 1006eb80     OmniMIDI.obj
 0002:0000eb90       ??_C@_0N@HEKFBJPA@timeSetEvent@ 1006eb90     OmniMIDI.obj
 0002:0000eba0       ??_C@_0BA@JDAABCPE@waveInAddBuffer@ 1006eba0     OmniMIDI.obj
 0002:0000ebb0       ??_C@_0M@LNCMILGJ@waveInClose@ 1006ebb0     OmniMIDI.obj
 0002:0000ebbc       ??_C@_0BC@FFDGLLNF@waveInGetDevCapsA@ 1006ebbc     OmniMIDI.obj
 0002:0000ebd0       ??_C@_0BC@EJKOAOAC@waveInGetDevCapsW@ 1006ebd0     OmniMIDI.obj
 0002:0000ebe4       ??_C@_0BE@EFCHMHJO@waveInGetErrorTextA@ 1006ebe4     OmniMIDI.obj
 0002:0000ebf8       ??_C@_0BE@FJLPHCEJ@waveInGetErrorTextW@ 1006ebf8     OmniMIDI.obj
 0002:0000ec0c       ??_C@_0M@JNGAODF@waveInGetID@ 1006ec0c     OmniMIDI.obj
 0002:0000ec18       ??_C@_0BB@JEIGMOBK@waveInGetNumDevs@ 1006ec18     OmniMIDI.obj
 0002:0000ec2c       ??_C@_0BC@EDOENPAJ@waveInGetPosition@ 1006ec2c     OmniMIDI.obj
 0002:0000ec40       ??_C@_0O@OACDHHHL@waveInMessage@ 1006ec40     OmniMIDI.obj
 0002:0000ec50       ??_C@_0L@IBGFAMML@waveInOpen@ 1006ec50     OmniMIDI.obj
 0002:0000ec5c       ??_C@_0BE@NJAAFNNK@waveInPrepareHeader@ 1006ec5c     OmniMIDI.obj
 0002:0000ec70       ??_C@_0M@CJALCMND@waveInReset@ 1006ec70     OmniMIDI.obj
 0002:0000ec7c       ??_C@_0M@FMKOGLKF@waveInStart@ 1006ec7c     OmniMIDI.obj
 0002:0000ec88       ??_C@_0L@HCMBFLBG@waveInStop@ 1006ec88     OmniMIDI.obj
 0002:0000ec94       ??_C@_0BG@DMIOKOHF@waveInUnprepareHeader@ 1006ec94     OmniMIDI.obj
 0002:0000ecac       ??_C@_0BB@KADJFBFC@waveOutBreakLoop@ 1006ecac     OmniMIDI.obj
 0002:0000ecc0       ??_C@_0N@KAGIFPGI@waveOutClose@ 1006ecc0     OmniMIDI.obj
 0002:0000ecd0       ??_C@_0BD@OCJHEOKA@waveOutGetDevCapsA@ 1006ecd0     OmniMIDI.obj
 0002:0000ece4       ??_C@_0BD@POAPPLHH@waveOutGetDevCapsW@ 1006ece4     OmniMIDI.obj
 0002:0000ecf8       ??_C@_0BF@NKLIPLBP@waveOutGetErrorTextA@ 1006ecf8     OmniMIDI.obj
 0002:0000ed10       ??_C@_0BF@MGCAEOMI@waveOutGetErrorTextW@ 1006ed10     OmniMIDI.obj
 0002:0000ed28       ??_C@_0N@BEJCNKDE@waveOutGetID@ 1006ed28     OmniMIDI.obj
 0002:0000ed38       ??_C@_0BC@IICPIAGE@waveOutGetNumDevs@ 1006ed38     OmniMIDI.obj
 0002:0000ed4c       ??_C@_0BA@FINEIJFO@waveOutGetPitch@ 1006ed4c     OmniMIDI.obj
 0002:0000ed5c       ??_C@_0BH@JECOPHGP@waveOutGetPlaybackRate@ 1006ed5c     OmniMIDI.obj
 0002:0000ed74       ??_C@_0BD@PEEFCKHM@waveOutGetPosition@ 1006ed74     OmniMIDI.obj
 0002:0000ed88       ??_C@_0BB@CKBPHFE@waveOutGetVolume@ 1006ed88     OmniMIDI.obj
 0002:0000ed9c       ??_C@_0P@HIIGENLD@waveOutMessage@ 1006ed9c     OmniMIDI.obj
 0002:0000edac       ??_C@_0M@HCKBGJNL@waveOutOpen@ 1006edac     OmniMIDI.obj
 0002:0000edb8       ??_C@_0N@OCBOFMBH@waveOutPause@ 1006edb8     OmniMIDI.obj
 0002:0000edc8       ??_C@_0BF@EGJPGBFL@waveOutPrepareHeader@ 1006edc8     OmniMIDI.obj
 0002:0000ede0       ??_C@_0N@DEEPPINC@waveOutReset@ 1006ede0     OmniMIDI.obj
 0002:0000edf0       ??_C@_0P@CGAJPAKP@waveOutRestart@ 1006edf0     OmniMIDI.obj
 0002:0000ee00       ??_C@_0BA@KJPIJKCD@waveOutSetPitch@ 1006ee00     OmniMIDI.obj
 0002:0000ee10       ??_C@_0BH@KGDIIFHG@waveOutSetPlaybackRate@ 1006ee10     OmniMIDI.obj
 0002:0000ee28       ??_C@_0BB@CMOENGMG@waveOutSetVolume@ 1006ee28     OmniMIDI.obj
 0002:0000ee3c       ??_C@_0BH@DBHJOEGH@waveOutUnprepareHeader@ 1006ee3c     OmniMIDI.obj
 0002:0000ee54       ??_C@_0N@MHNLHPFP@waveOutWrite@ 1006ee54     OmniMIDI.obj
 0002:0000ee64       ??_C@_0N@NGLPKNLE@aux32Message@ 1006ee64     OmniMIDI.obj
 0002:0000ee74       ??_C@_0N@BGNHMIEK@joy32Message@ 1006ee74     OmniMIDI.obj
 0002:0000ee84       ??_C@_0N@MAFIEHFI@mci32Message@ 1006ee84     OmniMIDI.obj
 0002:0000ee94       ??_C@_0N@OBPLOCDO@mid32Message@ 1006ee94     OmniMIDI.obj
 0002:0000eea4       ??_C@_0N@OMGEHNO@mod32Message@ 1006eea4     OmniMIDI.obj
 0002:0000eeb4       ??_C@_0N@HGEGEDKN@mxd32Message@ 1006eeb4     OmniMIDI.obj
 0002:0000eec4       ??_C@_0N@NCGJEOAM@tid32Message@ 1006eec4     OmniMIDI.obj
 0002:0000eed4       ??_C@_0N@GPKDCCMC@wid32Message@ 1006eed4     OmniMIDI.obj
 0002:0000eee4       ??_C@_0N@IAJOIHCC@wod32Message@ 1006eee4     OmniMIDI.obj
 0002:0000eef8       ??_C@_1BCK@NMHIMDN@?$AAA?$AAn?$AA?5?$AAe?$AAr?$AAr?$AAo?$AAr?$AA?5?$AAh?$AAa?$AAs?$AA?5?$AAo?$AAc@ 1006eef8     OmniMIDI.obj
 0002:0000f024       ??_C@_1BK@CDBBFKCN@?$AAK?$AAD?$AAM?$AAA?$AAP?$AAI?$AA?5?$AAE?$AAR?$AAR?$AAO?$AAR@ 1006f024     OmniMIDI.obj
 0002:0000f040       ??_C@_1EA@PIHIBJLM@?$AAS?$AAo?$AAf?$AAt?$AAw?$AAa?$AAr?$AAe?$AA?2?$AAO?$AAm?$AAn?$AAi?$AAM?$AAI@ 1006f040     OmniMIDI.obj
 0002:0000f080       ??_C@_1BG@GAEFLAOG@?$AAW?$AAi?$AAn?$AAM?$AAM?$AAS?$AAp?$AAe?$AAe?$AAd@ 1006f080     OmniMIDI.obj
 0002:0000f098       ??_C@_1BG@GHDJDJEN@?$AAo?$AAw?$AAi?$AAn?$AAm?$AAm?$AA?4?$AAd?$AAl?$AAl@ 1006f098     OmniMIDI.obj
 0002:0000f0b0       ??_C@_1BG@HPCJEMIP@?$AA?2?$AAw?$AAi?$AAn?$AAm?$AAm?$AA?4?$AAd?$AAl?$AAl@ 1006f0b0     OmniMIDI.obj
 0002:0000f0c8       ??_C@_1BC@GDMECMAK@?$AAk?$AAe?$AAr?$AAn?$AAe?$AAl?$AA3?$AA2@ 1006f0c8     OmniMIDI.obj
 0002:0000f0e0       ??_C@_1PA@KPOGNGKC@?$AAT?$AAh?$AAe?$AA?5?$AAw?$AAr?$AAa?$AAp?$AAp?$AAe?$AAr?$AA?5?$AAw?$AAa?$AAs@ 1006f0e0     OmniMIDI.obj
 0002:0000f1d0       ??_C@_1LA@PIKOGPLB@?$AAT?$AAh?$AAe?$AA?5?$AAw?$AAr?$AAa?$AAp?$AAp?$AAe?$AAr?$AA?5?$AAw?$AAa?$AAs@ 1006f1d0     OmniMIDI.obj
 0002:0000f280       ??_C@_0P@LKABJJMO@IsWow64Process@ 1006f280     OmniMIDI.obj
 0002:0000f290       ??_C@_1GG@MHCAHNPL@?$AAD?$AAE?$AAB?$AAU?$AAG?$AA?5?$AAM?$AAS?$AAG?$AA?5?$AAF?$AAR?$AAO?$AAM?$AA?5@ 1006f290     OmniMIDI.obj
 0002:0000f2f8       ??_C@_1CO@NCLJPGFN@?$AAS?$AAh?$AAa?$AAk?$AAr?$AAa?$AA?5?$AA?9?$AA?5?$AAD?$AAe?$AAb?$AAu?$AAg?$AA?5@ 1006f2f8     OmniMIDI.obj
 0002:0000f328       ??_C@_0M@GNKHANKG@RegisterDrv@ 1006f328     OmniMIDI.obj
 0002:0000f334       ??_C@_0N@KOEOKPEH@RegisterDrvS@ 1006f334     OmniMIDI.obj
 0002:0000f344       ??_C@_0O@IIEFBKOI@UnregisterDrv@ 1006f344     OmniMIDI.obj
 0002:0000f354       ??_C@_0P@DPMPCBMH@UnregisterDrvS@ 1006f354     OmniMIDI.obj
 0002:0000f364       ??_C@_17MACKOFPJ@?$AA1?$AA2?$AA2@ 1006f364     OmniMIDI.obj
 0002:0000f370       ??_C@_1FM@OBIEPFCO@?$AAE?$AA?3?$AA?2?$AAG?$AAi?$AAt?$AAH?$AAu?$AAb?$AA?2?$AAO?$AAm?$AAn?$AAi?$AAM@ 1006f370     OmniMIDI.obj
 0002:0000f3cc       ??_C@_1CG@OOPIDGFG@?$AAD?$AAr?$AAi?$AAv?$AAe?$AAr?$AAR?$AAe?$AAg?$AAi?$AAs?$AAt?$AAr?$AAa?$AAt@ 1006f3cc     OmniMIDI.obj
 0002:0000f3f8       ??_C@_1HK@CKGFMABF@?$AAY?$AAo?$AAu?$AA?5?$AAc?$AAa?$AAn?$AA?5?$AAn?$AAo?$AAt?$AA?5?$AAm?$AAa?$AAn@ 1006f3f8     OmniMIDI.obj
 0002:0000f474       ??_C@_17BHCLGCPI@?$AA1?$AA2?$AA9@ 1006f474     OmniMIDI.obj
 0002:0000f480       ??_C@_1NO@PJFGDFKD@?$AAY?$AAo?$AAu?$AA?5?$AAc?$AAa?$AAn?$AA?5?$AAn?$AAo?$AAt?$AA?5?$AAr?$AAe?$AAg@ 1006f480     OmniMIDI.obj
 0002:0000f560       ??_C@_17DMKIMGGO@?$AA1?$AA3?$AA7@ 1006f560     OmniMIDI.obj
 0002:0000f568       ??_C@_1JG@FKPDEGHE@?$AAS?$AAe?$AAt?$AAu?$AAp?$AAD?$AAi?$AAG?$AAe?$AAt?$AAC?$AAl?$AAa?$AAs?$AAs@ 1006f568     OmniMIDI.obj
 0002:0000f600       ??_C@_1BA@LMNNHBO@?$AAD?$AAr?$AAi?$AAv?$AAe?$AAr?$AAs@ 1006f600     OmniMIDI.obj
 0002:0000f610       ??_C@_19CCIDFGBM@?$AAm?$AAi?$AAd?$AAi@ 1006f610     OmniMIDI.obj
 0002:0000f61c       ??_C@_1O@GAOCKAOK@?$AAD?$AAr?$AAi?$AAv?$AAe?$AAr@ 1006f61c     OmniMIDI.obj
 0002:0000f62c       ??_C@_17FGGPDGKN@?$AA1?$AA8?$AA7@ 1006f62c     OmniMIDI.obj
 0002:0000f634       ??_C@_1BG@PNOHLFJN@?$AAG?$AAo?$AAt?$AA?5?$AAd?$AAr?$AAi?$AAv?$AAe?$AAr@ 1006f634     OmniMIDI.obj
 0002:0000f64c       ??_C@_17DHDKCNID@?$AA1?$AA9?$AA5@ 1006f64c     OmniMIDI.obj
 0002:0000f658       ??_C@_1EE@KPAFBKBM@?$AAT?$AAh?$AAe?$AA?5?$AAd?$AAr?$AAi?$AAv?$AAe?$AAr?$AA?5?$AAi?$AAs?$AA?5?$AAa@ 1006f658     OmniMIDI.obj
 0002:0000f69c       ??_C@_17IMAPNEEG@?$AA2?$AA0?$AA6@ 1006f69c     OmniMIDI.obj
 0002:0000f6a4       ??_C@_1CO@IMHOBONK@?$AAD?$AAr?$AAi?$AAv?$AAe?$AAr?$AA?5?$AAi?$AAs?$AA?5?$AAn?$AAo?$AAt?$AA?5?$AAO@ 1006f6a4     OmniMIDI.obj
 0002:0000f6d4       ??_C@_1M@JBLBEOOM@?$AAA?$AAl?$AAi?$AAa?$AAs@ 1006f6d4     OmniMIDI.obj
 0002:0000f6e0       ??_C@_17MIDBJALE@?$AA2?$AA1?$AA2@ 1006f6e0     OmniMIDI.obj
 0002:0000f6e8       ??_C@_1BI@DLMANABL@?$AAD?$AAe?$AAs?$AAc?$AAr?$AAi?$AAp?$AAt?$AAi?$AAo?$AAn@ 1006f6e8     OmniMIDI.obj
 0002:0000f700       ??_C@_17OEKMCKJB@?$AA2?$AA2?$AA0@ 1006f700     OmniMIDI.obj
 0002:0000f708       ??_C@_1GO@OALKEJDP@?$AAS?$AAO?$AAF?$AAT?$AAW?$AAA?$AAR?$AAE?$AA?2?$AAM?$AAi?$AAc?$AAr?$AAo?$AAs@ 1006f708     OmniMIDI.obj
 0002:0000f778       ??_C@_17FCLDJLO@?$AA2?$AA4?$AA5@ 1006f778     OmniMIDI.obj
 0002:0000f780       ??_C@_1NA@FNOHKMDG@?$AAR?$AAe?$AAg?$AAC?$AAr?$AAe?$AAa?$AAt?$AAe?$AAK?$AAe?$AAy?$AAE?$AAx?$AA?5@ 1006f780     OmniMIDI.obj
 0002:0000f850       ??_C@_17MHIBAPOC@?$AA2?$AA6?$AA1@ 1006f850     OmniMIDI.obj
 0002:0000f858       ??_C@_1HO@GANFCGHC@?$AAS?$AAe?$AAt?$AAu?$AAp?$AAD?$AAi?$AAC?$AAr?$AAe?$AAa?$AAt?$AAe?$AAD?$AAe@ 1006f858     OmniMIDI.obj
 0002:0000f8d8       ??_C@_17LKIJEAGI@?$AA2?$AA6?$AA8@ 1006f8d8     OmniMIDI.obj
 0002:0000f8e0       ??_C@_1IC@MHKKPFJD@?$AAS?$AAe?$AAt?$AAu?$AAp?$AAD?$AAi?$AAR?$AAe?$AAg?$AAi?$AAs?$AAt?$AAe?$AAr@ 1006f8e0     OmniMIDI.obj
 0002:0000f964       ??_C@_17IDLPELBA@?$AA2?$AA7?$AA5@ 1006f964     OmniMIDI.obj
 0002:0000f970       ??_C@_1JA@GCNNGEGD@?$AAS?$AAe?$AAt?$AAu?$AAp?$AAD?$AAi?$AAS?$AAe?$AAt?$AAD?$AAe?$AAv?$AAi?$AAc@ 1006f970     OmniMIDI.obj
 0002:0000fa00       ??_C@_17PNILGOJC@?$AA2?$AA8?$AA1@ 1006fa00     OmniMIDI.obj
 0002:0000fa08       ??_C@_17DIDPEGHN@?$AA2?$AA8?$AA9@ 1006fa08     OmniMIDI.obj
 0002:0000fa10       ??_C@_1KI@BNDKFINB@?$AAS?$AAe?$AAt?$AAu?$AAp?$AAD?$AAi?$AAC?$AAr?$AAe?$AAa?$AAt?$AAe?$AAD?$AAe@ 1006fa10     OmniMIDI.obj
 0002:0000fab8       ??_C@_17LJLFCKGA@?$AA2?$AA9?$AA5@ 1006fab8     OmniMIDI.obj
 0002:0000fac0       ??_C@_1LI@GEHKMFJP@?$AAR?$AAe?$AAg?$AAS?$AAe?$AAt?$AAV?$AAa?$AAl?$AAu?$AAe?$AAE?$AAx?$AA?5?$AAf@ 1006fac0     OmniMIDI.obj
 0002:0000fb78       ??_C@_17NNHCOMGB@?$AA3?$AA0?$AA1@ 1006fb78     OmniMIDI.obj
 0002:0000fb80       ??_C@_1LM@JBENCOED@?$AAR?$AAe?$AAg?$AAS?$AAe?$AAt?$AAV?$AAa?$AAl?$AAu?$AAe?$AAE?$AAx?$AA?5?$AAf@ 1006fb80     OmniMIDI.obj
 0002:0000fc3c       ??_C@_17PIBJLDLN@?$AA3?$AA0?$AA7@ 1006fc3c     OmniMIDI.obj
 0002:0000fc48       ??_C@_1LE@FPGLFBHD@?$AAR?$AAe?$AAg?$AAS?$AAe?$AAt?$AAV?$AAa?$AAl?$AAu?$AAe?$AAE?$AAx?$AA?5?$AAf@ 1006fc48     OmniMIDI.obj
 0002:0000fcfc       ??_C@_17LMCHPHEP@?$AA3?$AA1?$AA3@ 1006fcfc     OmniMIDI.obj
 0002:0000fd08       ??_C@_1LG@GEDPKNKP@?$AAR?$AAe?$AAg?$AAS?$AAe?$AAt?$AAV?$AAa?$AAl?$AAu?$AAe?$AAE?$AAx?$AA?5?$AAf@ 1006fd08     OmniMIDI.obj
 0002:0000fdc0       ??_C@_17NDJKBHCL@?$AA3?$AA1?$AA9@ 1006fdc0     OmniMIDI.obj
 0002:0000fdc8       ??_C@_1KM@LPHONGGG@?$AAR?$AAe?$AAg?$AAS?$AAe?$AAt?$AAV?$AAa?$AAl?$AAu?$AAe?$AAE?$AAx?$AA?5?$AAf@ 1006fdc8     OmniMIDI.obj
 0002:0000fe74       ??_C@_17BPNINKDN@?$AA3?$AA2?$AA5@ 1006fe74     OmniMIDI.obj
 0002:0000fe80       ??_C@_1LE@PAEPADMM@?$AAR?$AAe?$AAg?$AAS?$AAe?$AAt?$AAV?$AAa?$AAl?$AAu?$AAe?$AAE?$AAx?$AA?5?$AAf@ 1006fe80     OmniMIDI.obj
 0002:0000ff34       ??_C@_17FLOGJOMP@?$AA3?$AA3?$AA1@ 1006ff34     OmniMIDI.obj
 0002:0000ff40       ??_C@_1LO@DPKKELPJ@?$AAR?$AAe?$AAg?$AAS?$AAe?$AAt?$AAV?$AAa?$AAl?$AAu?$AAe?$AAE?$AAx?$AA?5?$AAf@ 1006ff40     OmniMIDI.obj
 0002:00010000       ??_C@_17MNKDENJL@?$AA3?$AA9?$AA4@ 10070000     OmniMIDI.obj
 0002:00010008       ??_C@_1MA@DBABDMGN@?$AAR?$AAe?$AAg?$AAS?$AAe?$AAt?$AAV?$AAa?$AAl?$AAu?$AAe?$AAE?$AAx?$AA?5?$AAf@ 10070008     OmniMIDI.obj
 0002:000100c8       ??_C@_17KKLPKKPC@?$AA4?$AA0?$AA8@ 100700c8     OmniMIDI.obj
 0002:000100d0       ??_C@_1LG@ILMEFJJA@?$AAR?$AAe?$AAg?$AAS?$AAe?$AAt?$AAV?$AAa?$AAl?$AAu?$AAe?$AAE?$AAx?$AA?5?$AAf@ 100700d0     OmniMIDI.obj
 0002:00010188       ??_C@_1CK@IPEPOEC@?$AAS?$AAl?$AAo?$AAt?$AA?5?$AAf?$AAr?$AAe?$AAe?$AA?5?$AAo?$AAr?$AA?5?$AAn?$AAo@ 10070188     OmniMIDI.obj
 0002:000101b8       ??_C@_1BOI@HEKJFLCD@?$AAN?$AAo?$AA?5?$AAM?$AAI?$AAD?$AAI?$AA?5?$AAs?$AAl?$AAo?$AAt?$AAs?$AA?5?$AAa@ 100701b8     OmniMIDI.obj
 0002:000103a0       ??_C@_1CC@HKIEGLEM@?$AAO?$AAm?$AAn?$AAi?$AAM?$AAI?$AAD?$AAI?$AA?5?$AA?9?$AA?5?$AAE?$AAR?$AAR?$AAO@ 100703a0     OmniMIDI.obj
 0002:000103c4       ??_C@_1CG@MGLJDAAH@?$AAO?$AAm?$AAn?$AAi?$AAM?$AAI?$AAD?$AAI?$AA?5?$AA?9?$AA?5?$AAS?$AAu?$AAc?$AAc@ 100703c4     OmniMIDI.obj
 0002:000103f0       ??_C@_1EA@FBNOCGOC@?$AAD?$AAr?$AAi?$AAv?$AAe?$AAr?$AA?5?$AAs?$AAu?$AAc?$AAc?$AAe?$AAs?$AAs?$AAf@ 100703f0     OmniMIDI.obj
 0002:00010430       ??_C@_17DBCOOIOE@?$AA4?$AA4?$AA8@ 10070430     OmniMIDI.obj
 0002:00010438       ??_C@_17JMDJDONM@?$AA4?$AA6?$AA6@ 10070438     OmniMIDI.obj
 0002:00010440       ??_C@_1HK@FHBOFNOC@?$AAS?$AAe?$AAt?$AAu?$AAp?$AAD?$AAi?$AAR?$AAe?$AAm?$AAo?$AAv?$AAe?$AAD?$AAe@ 10070440     OmniMIDI.obj
 0002:000104bc       ??_C@_1CO@NHFNGLLM@?$AAO?$AAm?$AAn?$AAi?$AAM?$AAI?$AAD?$AAI?$AA?5?$AA?9?$AA?5?$AAI?$AAn?$AAf?$AAo@ 100704bc     OmniMIDI.obj
 0002:000104f0       ??_C@_1GM@NAHNFKFL@?$AAT?$AAh?$AAe?$AA?5?$AAv?$AAi?$AAr?$AAt?$AAu?$AAa?$AAl?$AA?5?$AAO?$AAm?$AAn@ 100704f0     OmniMIDI.obj
 0002:0001055c       ??_C@_08LHBGKBNI@OmniMIDI@ 1007055c     OmniMIDI.obj
 0002:00010568       ??_C@_0GP@INKOOAHN@RunDLL32?5sent?5an?5empty?5or?5unrec@ 10070568     OmniMIDI.obj
 0002:000105d8       ??_C@_1CG@FOEPFOHP@?$AAB?$AAA?$AAS?$AAS?$AA_?$AAE?$AAR?$AAR?$AAO?$AAR?$AA_?$AAA?$AAL?$AAR?$AAE@ 100705d8     OmniMIDI.obj
 0002:00010600       ??_C@_1CG@LFFLCMCE@?$AAB?$AAA?$AAS?$AAS?$AA_?$AAE?$AAR?$AAR?$AAO?$AAR?$AA_?$AAB?$AAU?$AAF?$AAL@ 10070600     OmniMIDI.obj
 0002:00010628       ??_C@_1CA@EBDCGCHH@?$AAB?$AAA?$AAS?$AAS?$AA_?$AAE?$AAR?$AAR?$AAO?$AAR?$AA_?$AAB?$AAU?$AAS?$AAY@ 10070628     OmniMIDI.obj
 0002:00010648       ??_C@_1CC@ODCAPODI@?$AAB?$AAA?$AAS?$AAS?$AA_?$AAE?$AAR?$AAR?$AAO?$AAR?$AA_?$AAC?$AAO?$AAD?$AAE@ 10070648     OmniMIDI.obj
 0002:0001066c       ??_C@_1CE@GLMJDDK@?$AAB?$AAA?$AAS?$AAS?$AA_?$AAE?$AAR?$AAR?$AAO?$AAR?$AA_?$AAC?$AAR?$AAE?$AAA@ 1007066c     OmniMIDI.obj
 0002:00010690       ??_C@_1CE@LDFNGH@?$AAB?$AAA?$AAS?$AAS?$AA_?$AAE?$AAR?$AAR?$AAO?$AAR?$AA_?$AAD?$AAE?$AAC?$AAO@ 10070690     OmniMIDI.obj
 0002:000106b4       ??_C@_1CE@BKFOCOPE@?$AAB?$AAA?$AAS?$AAS?$AA_?$AAE?$AAR?$AAR?$AAO?$AAR?$AA_?$AAD?$AAE?$AAV?$AAI@ 100706b4     OmniMIDI.obj
 0002:000106d8       ??_C@_1CE@KHHFPFO@?$AAB?$AAA?$AAS?$AAS?$AA_?$AAE?$AAR?$AAR?$AAO?$AAR?$AA_?$AAD?$AAR?$AAI?$AAV@ 100706d8     OmniMIDI.obj
 0002:000106fc       ??_C@_1BM@POBOGELF@?$AAB?$AAA?$AAS?$AAS?$AA_?$AAE?$AAR?$AAR?$AAO?$AAR?$AA_?$AAD?$AAX@ 100706fc     OmniMIDI.obj
 0002:00010718       ??_C@_1CC@HDHNCPB@?$AAB?$AAA?$AAS?$AAS?$AA_?$AAE?$AAR?$AAR?$AAO?$AAR?$AA_?$AAE?$AAM?$AAP?$AAT@ 10070718     OmniMIDI.obj
 0002:0001073c       ??_C@_1CC@HOAIAIFP@?$AAB?$AAA?$AAS?$AAS?$AA_?$AAE?$AAR?$AAR?$AAO?$AAR?$AA_?$AAE?$AAN?$AAD?$AAE@ 1007073c     OmniMIDI.obj
 0002:00010760       ??_C@_1CI@KOCFIOBH@?$AAB?$AAA?$AAS?$AAS?$AA_?$AAE?$AAR?$AAR?$AAO?$AAR?$AA_?$AAF?$AAI?$AAL?$AAE@ 10070760     OmniMIDI.obj
 0002:00010788       ??_C@_1CI@PLMNBLJH@?$AAB?$AAA?$AAS?$AAS?$AA_?$AAE?$AAR?$AAR?$AAO?$AAR?$AA_?$AAF?$AAI?$AAL?$AAE@ 10070788     OmniMIDI.obj
 0002:000107b0       ??_C@_1CE@DJMLDNEJ@?$AAB?$AAA?$AAS?$AAS?$AA_?$AAE?$AAR?$AAR?$AAO?$AAR?$AA_?$AAF?$AAO?$AAR?$AAM@ 100707b0     OmniMIDI.obj
 0002:000107d4       ??_C@_1CA@FCCHACHN@?$AAB?$AAA?$AAS?$AAS?$AA_?$AAE?$AAR?$AAR?$AAO?$AAR?$AA_?$AAF?$AAR?$AAE?$AAQ@ 100707d4     OmniMIDI.obj
 0002:000107f4       ??_C@_1CE@GNIHOCLO@?$AAB?$AAA?$AAS?$AAS?$AA_?$AAE?$AAR?$AAR?$AAO?$AAR?$AA_?$AAH?$AAA?$AAN?$AAD@ 100707f4     OmniMIDI.obj
 0002:00010818       ??_C@_1CI@DGJICCDD@?$AAB?$AAA?$AAS?$AAS?$AA_?$AAE?$AAR?$AAR?$AAO?$AAR?$AA_?$AAI?$AAL?$AAL?$AAP@ 10070818     OmniMIDI.obj
 0002:00010840       ??_C@_1CG@CNMPJHDA@?$AAB?$AAA?$AAS?$AAS?$AA_?$AAE?$AAR?$AAR?$AAO?$AAR?$AA_?$AAI?$AAL?$AAL?$AAT@ 10070840     OmniMIDI.obj
 0002:00010868       ??_C@_1CA@MICEENNN@?$AAB?$AAA?$AAS?$AAS?$AA_?$AAE?$AAR?$AAR?$AAO?$AAR?$AA_?$AAI?$AAN?$AAI?$AAT@ 10070868     OmniMIDI.obj
 0002:00010888       ??_C@_1BO@BKBEILCM@?$AAB?$AAA?$AAS?$AAS?$AA_?$AAE?$AAR?$AAR?$AAO?$AAR?$AA_?$AAM?$AAE?$AAM@ 10070888     OmniMIDI.obj
 0002:000108a8       ??_C@_1DA@HKCOGOPH@?$AAB?$AAA?$AAS?$AAS?$AA_?$AAE?$AAR?$AAR?$AAO?$AAR?$AA_?$AAM?$AAI?$AAD?$AAI@ 100708a8     OmniMIDI.obj
 0002:000108d8       ??_C@_1CA@BMPCCPAC@?$AAB?$AAA?$AAS?$AAS?$AA_?$AAE?$AAR?$AAR?$AAO?$AAR?$AA_?$AAN?$AAO?$AA3?$AAD@ 100708d8     OmniMIDI.obj
 0002:000108f8       ??_C@_1CE@LFLKHADG@?$AAB?$AAA?$AAS?$AAS?$AA_?$AAE?$AAR?$AAR?$AAO?$AAR?$AA_?$AAN?$AAO?$AAC?$AAH@ 100708f8     OmniMIDI.obj
 0002:0001091c       ??_C@_1CC@KNKMGNMA@?$AAB?$AAA?$AAS?$AAS?$AA_?$AAE?$AAR?$AAR?$AAO?$AAR?$AA_?$AAN?$AAO?$AAE?$AAA@ 1007091c     OmniMIDI.obj
 0002:00010940       ??_C@_1CA@FNNCFLFH@?$AAB?$AAA?$AAS?$AAS?$AA_?$AAE?$AAR?$AAR?$AAO?$AAR?$AA_?$AAN?$AAO?$AAF?$AAX@ 10070940     OmniMIDI.obj
 0002:00010960       ??_C@_1CA@DPLLCKHB@?$AAB?$AAA?$AAS?$AAS?$AA_?$AAE?$AAR?$AAR?$AAO?$AAR?$AA_?$AAN?$AAO?$AAH?$AAW@ 10070960     OmniMIDI.obj
 0002:00010980       ??_C@_1CC@CBIBIMDI@?$AAB?$AAA?$AAS?$AAS?$AA_?$AAE?$AAR?$AAR?$AAO?$AAR?$AA_?$AAN?$AAO?$AAN?$AAE@ 10070980     OmniMIDI.obj
 0002:000109a4       ??_C@_1CE@DAKHCLAB@?$AAB?$AAA?$AAS?$AAS?$AA_?$AAE?$AAR?$AAR?$AAO?$AAR?$AA_?$AAN?$AAO?$AAP?$AAL@ 100709a4     OmniMIDI.obj
 0002:000109c8       ??_C@_1CI@FPIBFGDN@?$AAB?$AAA?$AAS?$AAS?$AA_?$AAE?$AAR?$AAR?$AAO?$AAR?$AA_?$AAN?$AAO?$AAT?$AAA@ 100709c8     OmniMIDI.obj
 0002:000109f0       ??_C@_1CG@INLHHDIC@?$AAB?$AAA?$AAS?$AAS?$AA_?$AAE?$AAR?$AAR?$AAO?$AAR?$AA_?$AAN?$AAO?$AAT?$AAF@ 100709f0     OmniMIDI.obj
 0002:00010a18       ??_C@_1CI@KAIOCEIM@?$AAB?$AAA?$AAS?$AAS?$AA_?$AAE?$AAR?$AAR?$AAO?$AAR?$AA_?$AAP?$AAO?$AAS?$AAI@ 10070a18     OmniMIDI.obj
 0002:00010a40       ??_C@_1CG@IPHJAEKG@?$AAB?$AAA?$AAS?$AAS?$AA_?$AAE?$AAR?$AAR?$AAO?$AAR?$AA_?$AAS?$AAP?$AAE?$AAA@ 10070a40     OmniMIDI.obj
 0002:00010a68       ??_C@_1BO@BOBGCONG@?$AAB?$AAA?$AAS?$AAS?$AA_?$AAE?$AAR?$AAR?$AAO?$AAR?$AA_?$AAS?$AAS?$AAL@ 10070a68     OmniMIDI.obj
 0002:00010a88       ??_C@_1CC@KLILDKLK@?$AAB?$AAA?$AAS?$AAS?$AA_?$AAE?$AAR?$AAR?$AAO?$AAR?$AA_?$AAS?$AAT?$AAA?$AAR@ 10070a88     OmniMIDI.obj
 0002:00010aac       ??_C@_1CG@BHHELKMG@?$AAB?$AAA?$AAS?$AAS?$AA_?$AAE?$AAR?$AAR?$AAO?$AAR?$AA_?$AAT?$AAI?$AAM?$AAE@ 10070aac     OmniMIDI.obj
 0002:00010ad4       ??_C@_1CG@LJGAMJHA@?$AAB?$AAA?$AAS?$AAS?$AA_?$AAE?$AAR?$AAR?$AAO?$AAR?$AA_?$AAU?$AAN?$AAK?$AAN@ 10070ad4     OmniMIDI.obj
 0002:00010afc       ??_C@_1CG@LFJLBCCL@?$AAB?$AAA?$AAS?$AAS?$AA_?$AAE?$AAR?$AAR?$AAO?$AAR?$AA_?$AAV?$AAE?$AAR?$AAS@ 10070afc     OmniMIDI.obj
 0002:00010b24       ??_C@_1CE@PJNDBDEA@?$AAB?$AAA?$AAS?$AAS?$AA_?$AAE?$AAR?$AAR?$AAO?$AAR?$AA_?$AAW?$AAA?$AAS?$AAA@ 10070b24     OmniMIDI.obj
 0002:00010b48       ??_C@_1DC@JBKDNCHF@?$AAB?$AAA?$AAS?$AAS?$AA_?$AAE?$AAR?$AAR?$AAO?$AAR?$AA_?$AAW?$AAA?$AAS?$AAA@ 10070b48     OmniMIDI.obj
 0002:00010b7c       ??_C@_1CM@GDOHNPLP@?$AAB?$AAA?$AAS?$AAS?$AA_?$AAE?$AAR?$AAR?$AAO?$AAR?$AA_?$AAW?$AAA?$AAS?$AAA@ 10070b7c     OmniMIDI.obj
 0002:00010ba8       ??_C@_1DC@NKPMCOCE@?$AAB?$AAA?$AAS?$AAS?$AA_?$AAE?$AAR?$AAR?$AAO?$AAR?$AA_?$AAW?$AAA?$AAS?$AAA@ 10070ba8     OmniMIDI.obj
 0002:00010bdc       ??_C@_1BA@EBPHECOM@?$AAB?$AAA?$AAS?$AAS?$AA_?$AAO?$AAK@ 10070bdc     OmniMIDI.obj
 0002:00010bec       ??_C@_1BO@DLMGIDIJ@?$AAU?$AAn?$AAk?$AAn?$AAo?$AAw?$AAn?$AA?5?$AAe?$AAr?$AAr?$AAo?$AAr?$AA?4@ 10070bec     OmniMIDI.obj
 0002:00010c0c       ??_C@_1CG@HKPMNFFB@?$AAN?$AAo?$AA?5?$AAe?$AAr?$AAr?$AAo?$AAr?$AA?5?$AAd?$AAe?$AAt?$AAe?$AAc?$AAt@ 10070c0c     OmniMIDI.obj
 0002:00010c34       ??_C@_1DI@IKNDEDDA@?$AAN?$AAo?$AA?5?$AAe?$AAn?$AAo?$AAu?$AAg?$AAh?$AA?5?$AAm?$AAe?$AAm?$AAo?$AAr@ 10070c34     OmniMIDI.obj
 0002:00010c6c       ??_C@_1DM@GIMOLOIC@?$AAT?$AAh?$AAe?$AA?5?$AAf?$AAi?$AAl?$AAe?$AA?5?$AAc?$AAo?$AAu?$AAl?$AAd?$AA?5@ 10070c6c     OmniMIDI.obj
 0002:00010ca8       ??_C@_1IO@MHOKLAEB@?$AAT?$AAh?$AAe?$AAr?$AAe?$AA?5?$AAi?$AAs?$AA?5?$AAn?$AAo?$AA?5?$AAa?$AAv?$AAa@ 10070ca8     OmniMIDI.obj
 0002:00010d38       ??_C@_1DI@PLNONBAJ@?$AAT?$AAh?$AAe?$AA?5?$AAs?$AAa?$AAm?$AAp?$AAl?$AAe?$AA?5?$AAb?$AAu?$AAf?$AAf@ 10070d38     OmniMIDI.obj
 0002:00010d70       ??_C@_1EC@DJJDKNED@?$AAA?$AAn?$AA?5?$AAi?$AAn?$AAv?$AAa?$AAl?$AAi?$AAd?$AA?5?$AAh?$AAa?$AAn?$AAd@ 10070d70     OmniMIDI.obj
 0002:00010db8       ??_C@_1HC@ICFGOLMD@?$AAT?$AAh?$AAe?$AA?5?$AAs?$AAa?$AAm?$AAp?$AAl?$AAe?$AA?5?$AAf?$AAo?$AAr?$AAm@ 10070db8     OmniMIDI.obj
 0002:00010e30       ??_C@_1MI@CIHPFEBI@?$AAT?$AAh?$AAe?$AA?5?$AAr?$AAe?$AAq?$AAu?$AAe?$AAs?$AAt?$AAe?$AAd?$AA?5?$AAp@ 10070e30     OmniMIDI.obj
 0002:00010ef8       ??_C@_1EG@LKBJFEOL@?$AAB?$AAA?$AAS?$AAS?$AA_?$AAI?$AAn?$AAi?$AAt?$AA?5?$AAh?$AAa?$AAs?$AA?5?$AAn@ 10070ef8     OmniMIDI.obj
 0002:00010f40       ??_C@_1EI@IAMDGCIK@?$AAB?$AAA?$AAS?$AAS?$AA_?$AAS?$AAt?$AAa?$AAr?$AAt?$AA?5?$AAh?$AAa?$AAs?$AA?5@ 10070f40     OmniMIDI.obj
 0002:00010f88       ??_C@_1EG@MIMFOFNC@?$AAS?$AAS?$AAL?$AA?1?$AAH?$AAT?$AAT?$AAP?$AAS?$AA?5?$AAs?$AAu?$AAp?$AAp?$AAo@ 10070f88     OmniMIDI.obj
 0002:00010fd0       ??_C@_1KM@JEMCGGLP@?$AAT?$AAh?$AAe?$AA?5?$AAs?$AAt?$AAr?$AAe?$AAa?$AAm?$AA?5?$AAh?$AAa?$AAn?$AAd@ 10070fd0     OmniMIDI.obj
 0002:00011080       ??_C@_1EA@ECDDIOGC@?$AAN?$AAo?$AA?5?$AAf?$AAr?$AAe?$AAe?$AA?5?$AAc?$AAh?$AAa?$AAn?$AAn?$AAe?$AAl@ 10071080     OmniMIDI.obj
 0002:000110c0       ??_C@_1EK@CEEBEBKO@?$AAA?$AAn?$AA?5?$AAi?$AAl?$AAl?$AAe?$AAg?$AAa?$AAl?$AA?5?$AAd?$AAe?$AAf?$AAi@ 100710c0     OmniMIDI.obj
 0002:00011110       ??_C@_1EI@DNBLEKDJ@?$AAA?$AAn?$AA?5?$AAi?$AAl?$AAl?$AAe?$AAg?$AAa?$AAl?$AA?5?$AAp?$AAa?$AAr?$AAa@ 10071110     OmniMIDI.obj
 0002:00011158       ??_C@_1IA@HMEKJLGB@?$AAT?$AAh?$AAe?$AA?5?$AAs?$AAe?$AAl?$AAe?$AAc?$AAt?$AAe?$AAd?$AA?5?$AAD?$AAi@ 10071158     OmniMIDI.obj
 0002:000111d8       ??_C@_1HO@JCPGKDCF@?$AAT?$AAh?$AAe?$AA?5?$AAs?$AAe?$AAl?$AAe?$AAc?$AAt?$AAe?$AAd?$AA?5?$AAD?$AAi@ 100711d8     OmniMIDI.obj
 0002:00011258       ??_C@_1CG@MEIMGMMB@?$AAI?$AAn?$AAv?$AAa?$AAl?$AAi?$AAd?$AA?5?$AAd?$AAe?$AAv?$AAi?$AAc?$AAe?$AA?5@ 10071258     OmniMIDI.obj
 0002:00011280       ??_C@_1DG@LFBPHOKF@?$AAT?$AAh?$AAe?$AA?5?$AAs?$AAt?$AAr?$AAe?$AAa?$AAm?$AA?5?$AAi?$AAs?$AA?5?$AAn@ 10071280     OmniMIDI.obj
 0002:000112b8       ??_C@_1EE@FFFBMGFJ@?$AAI?$AAn?$AAv?$AAa?$AAl?$AAi?$AAd?$AA?5?$AAa?$AAu?$AAd?$AAi?$AAo?$AA?5?$AAf@ 100712b8     OmniMIDI.obj
 0002:00011300       ??_C@_1EC@BCIFHBKL@?$AAT?$AAh?$AAe?$AA?5?$AAs?$AAt?$AAr?$AAe?$AAa?$AAm?$AA?5?$AAi?$AAs?$AA?5?$AAn@ 10071300     OmniMIDI.obj
 0002:00011344       ??_C@_1DM@JKPDFCGC@?$AAN?$AAo?$AA?5?$AAh?$AAa?$AAr?$AAd?$AAw?$AAa?$AAr?$AAe?$AA?5?$AAv?$AAo?$AAi@ 10071344     OmniMIDI.obj
 0002:00011380       ??_C@_1DM@KJHJODBA@?$AAT?$AAh?$AAe?$AA?5?$AAM?$AAO?$AAD?$AA?5?$AAs?$AAe?$AAq?$AAu?$AAe?$AAn?$AAc@ 10071380     OmniMIDI.obj
 0002:000113c0       ??_C@_1EM@GEBBNGJG@?$AAN?$AAo?$AA?5?$AAI?$AAn?$AAt?$AAe?$AAr?$AAn?$AAe?$AAt?$AA?5?$AAc?$AAo?$AAn@ 100713c0     OmniMIDI.obj
 0002:0001140c       ??_C@_1DE@LFAGJNIO@?$AAC?$AAo?$AAu?$AAl?$AAd?$AAn?$AA?8?$AAt?$AA?5?$AAc?$AAr?$AAe?$AAa?$AAt?$AAe@ 1007140c     OmniMIDI.obj
 0002:00011440       ??_C@_1GI@GDLEHCHE@?$AAE?$AAf?$AAf?$AAe?$AAc?$AAt?$AAs?$AA?5?$AAa?$AAr?$AAe?$AA?5?$AAn?$AAo?$AAt@ 10071440     OmniMIDI.obj
 0002:000114a8       ??_C@_1FC@EMDGOEMI@?$AAT?$AAh?$AAe?$AA?5?$AAr?$AAe?$AAq?$AAu?$AAe?$AAs?$AAt?$AAe?$AAd?$AA?5?$AAd@ 100714a8     OmniMIDI.obj
 0002:00011500       ??_C@_1EE@DEDNONEA@?$AAT?$AAh?$AAe?$AA?5?$AAs?$AAt?$AAr?$AAe?$AAa?$AAm?$AA?5?$AAi?$AAs?$AA?5?$AAa@ 10071500     OmniMIDI.obj
 0002:00011544       ??_C@_1DG@FPIIMMBO@?$AAD?$AAi?$AAr?$AAe?$AAc?$AAt?$AAS?$AAo?$AAu?$AAn?$AAd?$AAC?$AAr?$AAe?$AAa@ 10071544     OmniMIDI.obj
 0002:0001157c       ??_C@_1CM@KPBFIEEF@?$AAC?$AAo?$AAn?$AAn?$AAe?$AAc?$AAt?$AAi?$AAo?$AAn?$AA?5?$AAt?$AAi?$AAm?$AAe@ 1007157c     OmniMIDI.obj
 0002:000115a8       ??_C@_1DC@IBLLGENJ@?$AAU?$AAn?$AAs?$AAu?$AAp?$AAp?$AAo?$AAr?$AAt?$AAe?$AAd?$AA?5?$AAf?$AAi?$AAl@ 100715a8     OmniMIDI.obj
 0002:000115e0       ??_C@_1EI@OIDGNAHP@?$AAS?$AAp?$AAe?$AAa?$AAk?$AAe?$AAr?$AAs?$AA?5?$AAc?$AAo?$AAn?$AAf?$AAi?$AAg@ 100715e0     OmniMIDI.obj
 0002:00011628       ??_C@_1CO@HHNLPLKB@?$AAB?$AAA?$AAS?$AAS?$AA?5?$AAv?$AAe?$AAr?$AAs?$AAi?$AAo?$AAn?$AA?5?$AAm?$AAi@ 10071628     OmniMIDI.obj
 0002:00011658       ??_C@_1EK@CIAJMMKA@?$AAC?$AAo?$AAd?$AAe?$AAc?$AA?5?$AAi?$AAs?$AA?5?$AAn?$AAo?$AAt?$AA?5?$AAa?$AAv@ 10071658     OmniMIDI.obj
 0002:000116a4       ??_C@_1CM@FJEEILEI@?$AAT?$AAh?$AAe?$AA?5?$AAs?$AAt?$AAr?$AAe?$AAa?$AAm?$AA?5?$AAh?$AAa?$AAs?$AA?5@ 100716a4     OmniMIDI.obj
 0002:000116d0       ??_C@_1BAM@GLPNDAPI@?$AAT?$AAh?$AAe?$AA?5?$AAd?$AAe?$AAv?$AAi?$AAc?$AAe?$AA?5?$AAi?$AAs?$AA?5?$AAb@ 100716d0     OmniMIDI.obj
 0002:000117e0       ??_C@_1FA@LFOFBMKM@?$AAW?$AAA?$AAS?$AAA?$AAP?$AAI?$AA?5?$AAi?$AAs?$AA?5?$AAn?$AAo?$AAt?$AA?5?$AAa@ 100717e0     OmniMIDI.obj
 0002:00011830       ??_C@_1EC@NOFIFEEM@?$AAW?$AAA?$AAS?$AAA?$AAP?$AAI?$AA?5?$AAb?$AAu?$AAf?$AAf?$AAe?$AAr?$AA?5?$AAs@ 10071830     OmniMIDI.obj
 0002:00011878       ??_C@_1HO@CICJPCIB@?$AAR?$AAA?$AAW?$AA?5?$AAm?$AAo?$AAd?$AAe?$AA?5?$AAi?$AAs?$AA?5?$AAn?$AAo?$AAt@ 10071878     OmniMIDI.obj
 0002:000118f8       ??_C@_1GA@MJGLJJEI@?$AAC?$AAo?$AAu?$AAl?$AAd?$AAn?$AA?8?$AAt?$AA?5?$AAo?$AAp?$AAe?$AAn?$AA?5?$AAt@ 100718f8     OmniMIDI.obj
 0002:00011958       ??_C@_1GI@BHNBEAJA@?$AAA?$AAn?$AA?5?$AAS?$AAF?$AAZ?$AA?5?$AA?$CD?$AAi?$AAn?$AAc?$AAl?$AAu?$AAd?$AAe@ 10071958     OmniMIDI.obj
 0002:000119c0       ??_C@_1DE@BBJAFFIA@?$AAN?$AAo?$AA?5?$AAd?$AAe?$AAs?$AAc?$AAr?$AAi?$AAp?$AAt?$AAi?$AAo?$AAn?$AA?5@ 100719c0     OmniMIDI.obj
 0002:000119f8       ??_C@_1IA@CEGPCOIH@?$AAT?$AAh?$AAe?$AA?5?$AAc?$AAa?$AAu?$AAs?$AAe?$AA?5?$AAo?$AAf?$AA?5?$AAt?$AAh@ 100719f8     OmniMIDI.obj
 0002:00011a78       ??_C@_1IC@PJNLNONM@?$AAN?$AAo?$AAt?$AAh?$AAi?$AAn?$AAg?$AA?5?$AAw?$AAr?$AAo?$AAn?$AAg?$AA?5?$AAh@ 10071a78     OmniMIDI.obj
 0002:00011b00       ??_C@_1BKE@LEMOKKFD@?$AAT?$AAh?$AAe?$AAr?$AAe?$AA?8?$AAs?$AA?5?$AAn?$AAo?$AAt?$AA?5?$AAe?$AAn?$AAo@ 10071b00     OmniMIDI.obj
 0002:00011ca8       ??_C@_1LG@ICLDLKPP@?$AAE?$AAn?$AAs?$AAu?$AAr?$AAe?$AA?5?$AAt?$AAh?$AAe?$AA?5?$AAf?$AAi?$AAl?$AAe@ 10071ca8     OmniMIDI.obj
 0002:00011d60       ??_C@_1BJG@CDGOEKEN@?$AAA?$AAn?$AAo?$AAt?$AAh?$AAe?$AAr?$AA?5?$AAa?$AAp?$AAp?$AA?5?$AAm?$AAi?$AAg@ 10071d60     OmniMIDI.obj
 0002:00011ef8       ??_C@_1BEG@DEHHOHCD@?$AAT?$AAh?$AAe?$AA?5?$AAs?$AAo?$AAu?$AAn?$AAd?$AA?5?$AAc?$AAa?$AAr?$AAd?$AA?5@ 10071ef8     OmniMIDI.obj
 0002:00012040       ??_C@_1BGO@HLGMAKAA@?$AAY?$AAo?$AAu?$AA?8?$AAr?$AAe?$AA?5?$AAu?$AAs?$AAi?$AAn?$AAg?$AA?5?$AAa?$AAn@ 10072040     OmniMIDI.obj
 0002:000121b0       ??_C@_1BDA@CDILDIGP@?$AAB?$AAA?$AAS?$AAS?$AA?5?$AAo?$AAr?$AA?5?$AAB?$AAA?$AAS?$AAS?$AAM?$AAI?$AAD@ 100721b0     OmniMIDI.obj
 0002:000122e0       ??_C@_1BFG@FBDEOIGN@?$AAT?$AAh?$AAe?$AA?5?$AAA?$AAS?$AAI?$AAO?$AA?1?$AAW?$AAA?$AAS?$AAA?$AAP?$AAI@ 100722e0     OmniMIDI.obj
 0002:00012438       ??_C@_1KM@KOIAICKH@?$AAT?$AAh?$AAe?$AA?5?$AAd?$AAe?$AAv?$AAi?$AAc?$AAe?$AA?5?$AAy?$AAo?$AAu?$AA?5@ 10072438     OmniMIDI.obj
 0002:000124e8       ??_C@_1LM@HJCENBDG@?$AAT?$AAh?$AAe?$AA?5?$AAd?$AAr?$AAi?$AAv?$AAe?$AAr?$AA?5?$AAe?$AAn?$AAc?$AAo@ 100724e8     OmniMIDI.obj
 0002:000125a8       ??_C@_1PE@LIJMLMAA@?$AAY?$AAo?$AAu?$AA?5?$AAm?$AAi?$AAg?$AAh?$AAt?$AA?5?$AAn?$AAo?$AAt?$AA?5?$AAh@ 100725a8     OmniMIDI.obj
 0002:000126a0       ??_C@_1BEE@DCDDFNMB@?$AAT?$AAh?$AAe?$AA?5?$AAa?$AAu?$AAd?$AAi?$AAo?$AA?5?$AAd?$AAa?$AAt?$AAa?$AA?5@ 100726a0     OmniMIDI.obj
 0002:000127e8       ??_C@_1ME@EHKINAOJ@?$AAB?$AAA?$AAS?$AAS?$AA?5?$AAi?$AAs?$AA?5?$AAu?$AAn?$AAa?$AAb?$AAl?$AAe?$AA?5@ 100727e8     OmniMIDI.obj
 0002:000128b0       ??_C@_1OK@NNGHIIAG@?$AAT?$AAh?$AAe?$AA?5?$AAb?$AAu?$AAf?$AAf?$AAe?$AAr?$AA?5?$AAs?$AAi?$AAz?$AAe@ 100728b0     OmniMIDI.obj
 0002:000129a0       ??_C@_1BMK@EGOLODPH@?$AAT?$AAh?$AAi?$AAs?$AA?5?$AAe?$AAr?$AAr?$AAo?$AAr?$AA?5?$AAc?$AAo?$AAu?$AAl@ 100729a0     OmniMIDI.obj
 0002:00012b70       ??_C@_1BAC@NPPNBFI@?$AAT?$AAh?$AAe?$AA?5?$AAS?$AAo?$AAu?$AAn?$AAd?$AAF?$AAo?$AAn?$AAt?$AA?5?$AAp@ 10072b70     OmniMIDI.obj
 0002:00012c78       ??_C@_1MK@GLCDMJAP@?$AAT?$AAh?$AAi?$AAs?$AA?5?$AAi?$AAs?$AA?5?$AAa?$AA?5?$AAs?$AAe?$AAr?$AAi?$AAo@ 10072c78     OmniMIDI.obj
 0002:00012d44       ??_C@_0CH@NJPPIABK@?$CFs?5encountered?5the?5following?5er@ 10072d44     OmniMIDI.obj
 0002:00012d6c       ??_C@_0BO@JFNKMPFJ@OmniMIDI?5?9?5?$CFs?5execution?5error@ 10072d6c     OmniMIDI.obj
 0002:00012d8c       ??_C@_06EKLGOKGE@?5?$CIE?$CFd?$CJ@ 10072d8c     OmniMIDI.obj
 0002:00012d94       ??_C@_0BG@GFFDMKDH@?6?6Code?5line?5error?3?5?$CFs@ 10072d94     OmniMIDI.obj
 0002:00012dac       ??_C@_0BC@IIDFOPBM@?6?6Explanation?3?5?$CFs@ 10072dac     OmniMIDI.obj
 0002:00012dc0       ??_C@_0BF@OEHBGOJI@?6?6Possible?5fixes?3?6?$CFs@ 10072dc0     OmniMIDI.obj
 0002:00012dd8       ??_C@_08CAADLPOA@BASSASIO@ 10072dd8     OmniMIDI.obj
 0002:00012de8       ??_C@_0LM@KJMENHHH@?6?6Change?5the?5device?5through?5the@ 10072de8     OmniMIDI.obj
 0002:00012ea8       ??_C@_0GC@OIBBALPG@?6?6If?5you?8re?5unsure?5about?5what?5t@ 10072ea8     OmniMIDI.obj
 0002:00012f0c       ??_C@_04MHCKKCON@BASS@     10072f0c     OmniMIDI.obj
 0002:00012f14       ??_C@_0BD@ICCBEKLP@Freed?5SoundFont?4?4?4@ 10072f14     OmniMIDI.obj
 0002:00012f28       ??_C@_0M@PFEJMBKI@NewSFLoader@ 10072f28     OmniMIDI.obj
 0002:00012f34       ??_C@_0BJ@IEIDMEJN@Vectors?5resized?5to?5zero?4@ 10072f34     OmniMIDI.obj
 0002:00012f50       ??_C@_15OFBBKPLF@?$AA2?$AA3@ 10072f50     OmniMIDI.obj
 0002:00012f58       ??_C@_1FM@MBDMPPNA@?$AAE?$AA?3?$AA?2?$AAG?$AAi?$AAt?$AAH?$AAu?$AAb?$AA?2?$AAO?$AAm?$AAn?$AAi?$AAM@ 10072f58     OmniMIDI.obj
 0002:00012fb4       ??_C@_1BE@BFMBKIGO@?$AAF?$AAr?$AAe?$AAe?$AAF?$AAo?$AAn?$AAt?$AAs@ 10072fb4     OmniMIDI.obj
 0002:00012fc8       ??_C@_1DOE@NIJEBBLL@?$AA?$CF?$AAs?$AA?6?$AA?6?$AAB?$AAA?$AAS?$AAS?$AA?5?$AAe?$AAr?$AAr?$AAo?$AAr?$AA?5@ 10072fc8     OmniMIDI.obj
 0002:000133ac       ??_C@_1DG@MIPKMMFH@?$AAO?$AAm?$AAn?$AAi?$AAM?$AAI?$AAD?$AAI?$AA?5?$AA?9?$AA?5?$AAS?$AAo?$AAu?$AAn@ 100733ac     OmniMIDI.obj
 0002:000133e4       ??_C@_0BI@DBCMEPMA@Preparing?5FontLoader?4?4?4@ 100733e4     OmniMIDI.obj
 0002:000133fc       ??_C@_0CP@CHPJCCCA@Invalid?5path?5passed?5to?5function@ 100733fc     OmniMIDI.obj
 0002:0001342c       ??_C@_0DC@IDIALNAN@Getting?5extension?5of?5path?5passe@ 1007342c     OmniMIDI.obj
 0002:00013460       ??_C@_0BI@ENCDPEIJ@Path?5has?5been?5parsed?4?4?4@ 10073460     OmniMIDI.obj
 0002:00013478       ??_C@_0CK@OBJKNCCC@Checking?5if?5it?8s?5a?5SoundFont?5or@ 10073478     OmniMIDI.obj
 0002:000134a4       ??_C@_19PJAEEBBK@?$AA?4?$AAs?$AAf?$AA1@ 100734a4     OmniMIDI.obj
 0002:000134b0       ??_C@_19OLLBOOPE@?$AA?4?$AAs?$AAf?$AA2@ 100734b0     OmniMIDI.obj
 0002:000134bc       ??_C@_1BC@COGDNJKP@?$AA?4?$AAs?$AAf?$AA2?$AAp?$AAa?$AAc?$AAk@ 100734bc     OmniMIDI.obj
 0002:000134d0       ??_C@_19FDANIJJB@?$AA?4?$AAs?$AAf?$AA3@ 100734d0     OmniMIDI.obj
 0002:000134dc       ??_C@_19LFBBJOCG@?$AA?4?$AAs?$AAf?$AAz@ 100734dc     OmniMIDI.obj
 0002:000134e8       ??_C@_0CL@HEIDPHGJ@It?8s?5a?5SoundFont?4?5Checking?5if?5i@ 100734e8     OmniMIDI.obj
 0002:00013514       ??_C@_0BK@FECGDJ@Initializing?5SoundFont?4?4?4@ 10073514     OmniMIDI.obj
 0002:00013530       ??_C@_0DI@FPDOCNOL@An?5error?5has?5occurred?5while?5ini@ 10073530     OmniMIDI.obj
 0002:00013568       ??_C@_1HA@JAIKDFDG@?$AAA?$AAn?$AA?5?$AAe?$AAr?$AAr?$AAo?$AAr?$AA?5?$AAh?$AAa?$AAs?$AA?5?$AAo?$AAc@ 10073568     OmniMIDI.obj
 0002:000135d8       ??_C@_0BO@CECHMFBH@Preparing?5BASS_MIDI_FONTEX?4?4?4@ 100735d8     OmniMIDI.obj
 0002:000135f8       ??_C@_0BI@NFKOBLDO@Preloading?5SoundFont?4?4?4@ 100735f8     OmniMIDI.obj
 0002:00013610       ??_C@_0DG@GHBNDCK@An?5error?5has?5occurred?5while?5pre@ 10073610     OmniMIDI.obj
 0002:00013648       ??_C@_1GM@KEBPFALC@?$AAA?$AAn?$AA?5?$AAe?$AAr?$AAr?$AAo?$AAr?$AA?5?$AAh?$AAa?$AAs?$AA?5?$AAo?$AAc@ 10073648     OmniMIDI.obj
 0002:000136b4       ??_C@_0CB@DOGGCHIN@SoundFont?$CIs?$CJ?5loaded?5into?5memory@ 100736b4     OmniMIDI.obj
 0002:000136d8       ??_C@_1GG@NEIFCBFL@?$AAU?$AAn?$AAa?$AAb?$AAl?$AAe?$AA?5?$AAt?$AAo?$AA?5?$AAl?$AAo?$AAa?$AAd?$AA?5@ 100736d8     OmniMIDI.obj
 0002:00013740       ??_C@_1BA@CFNJHIIP@?$AA?4?$AAo?$AAm?$AAl?$AAi?$AAs?$AAt@ 10073740     OmniMIDI.obj
 0002:00013750       ??_C@_1BC@PAPDOLMC@?$AA?4?$AAc?$AAs?$AAf?$AAl?$AAi?$AAs?$AAt@ 10073750     OmniMIDI.obj
 0002:00013764       ??_C@_0BK@CJPONAMI@Opening?5SoundFont?5list?4?4?4@ 10073764     OmniMIDI.obj
 0002:00013780       ??_C@_0DD@JJNKDAJF@SoundFont?5list?5is?5valid?4?5Settin@ 10073780     OmniMIDI.obj
 0002:000137b4       ??_C@_0BE@GNPJOAMD@Preparing?5values?4?4?4@ 100737b4     OmniMIDI.obj
 0002:000137c8       ??_C@_13NOLLCAOD@?$AA?$AA@ 100737c8     OmniMIDI.obj
 0002:000137cc       ??_C@_0BL@MDCKONIN@Beginning?5per?9line?5scan?4?4?4@ 100737cc     OmniMIDI.obj
 0002:000137f0       ??_C@_1BC@MFKFPNGB@?$AAs?$AAf?$AA?4?$AAs?$AAt?$AAa?$AAr?$AAt@ 100737f0     OmniMIDI.obj
 0002:00013808       ??_C@_0GN@DHICJBLK@One?5of?5the?5SoundFont?5list?5items@ 10073808     OmniMIDI.obj
 0002:00013878       ??_C@_0CA@JEKOFDOE@Begin?5loading?5SoundFont?5item?4?4?4@ 10073878     OmniMIDI.obj
 0002:00013898       ??_C@_1O@DAAAEKIM@?$AAs?$AAf?$AA?4?$AAe?$AAn?$AAd@ 10073898     OmniMIDI.obj
 0002:000138a8       ??_C@_0CN@JLOHCLFD@Ended?5loading?5SF?4?5Searching?5for@ 100738a8     OmniMIDI.obj
 0002:000138e0       ??_C@_1BA@OENMMKLO@?$AAs?$AAf?$AA?4?$AAp?$AAa?$AAt?$AAh@ 100738e0     OmniMIDI.obj
 0002:000138f0       ??_C@_15FGOLOFBB@?$AA?$DN?$AA?5@ 100738f0     OmniMIDI.obj
 0002:000138f8       ??_C@_07OJFGPKPG@sf?4path@ 100738f8     OmniMIDI.obj
 0002:00013900       ??_C@_1BG@GDEGOKDA@?$AAs?$AAf?$AA?4?$AAe?$AAn?$AAa?$AAb?$AAl?$AAe?$AAd@ 10073900     OmniMIDI.obj
 0002:00013918       ??_C@_0L@DINHNJIB@sf?4enabled@ 10073918     OmniMIDI.obj
 0002:00013930       ??_C@_1BG@LLKOOKMA@?$AAs?$AAf?$AA?4?$AAp?$AAr?$AAe?$AAl?$AAo?$AAa?$AAd@ 10073930     OmniMIDI.obj
 0002:00013948       ??_C@_0L@JNOPOLDB@sf?4preload@ 10073948     OmniMIDI.obj
 0002:00013960       ??_C@_1BA@HGKBAKCG@?$AAs?$AAf?$AA?4?$AAs?$AAr?$AAc?$AAp@ 10073960     OmniMIDI.obj
 0002:00013970       ??_C@_07HHCIFFPL@sf?4srcp@ 10073970     OmniMIDI.obj
 0002:00013980       ??_C@_1BA@IMLBJFDC@?$AAs?$AAf?$AA?4?$AAs?$AAr?$AAc?$AAb@ 10073980     OmniMIDI.obj
 0002:00013990       ??_C@_07PNMCFCI@sf?4srcb@  10073990     OmniMIDI.obj
 0002:000139a0       ??_C@_1BA@MGHLKKBO@?$AAs?$AAf?$AA?4?$AAd?$AAe?$AAs?$AAp@ 100739a0     OmniMIDI.obj
 0002:000139b0       ??_C@_07HEAANCDP@sf?4desp@ 100739b0     OmniMIDI.obj
 0002:000139c0       ??_C@_1BA@DMGLDFAK@?$AAs?$AAf?$AA?4?$AAd?$AAe?$AAs?$AAb@ 100739c0     OmniMIDI.obj
 0002:000139d0       ??_C@_07MPEKCOM@sf?4desb@  100739d0     OmniMIDI.obj
 0002:000139e0       ??_C@_1BG@JCNBINHF@?$AAs?$AAf?$AA?4?$AAd?$AAe?$AAs?$AAb?$AAl?$AAs?$AAb@ 100739e0     OmniMIDI.obj
 0002:000139f8       ??_C@_0L@PGJFFGDB@sf?4desblsb@ 100739f8     OmniMIDI.obj
 0002:00013a10       ??_C@_1BG@NPBJFIAE@?$AAs?$AAf?$AA?4?$AAx?$AAg?$AAd?$AAr?$AAu?$AAm?$AAs@ 10073a10     OmniMIDI.obj
 0002:00013a28       ??_C@_0L@FMFNHDKC@sf?4xgdrums@ 10073a28     OmniMIDI.obj
 0002:00013a34       ??_C@_0CM@INLBFBAF@SoundFont?5disabled?0?5skipping?5to@ 10073a34     OmniMIDI.obj
 0002:00013a60       ??_C@_0DE@CLDFLCAG@The?5SoundFont?5is?5too?5big?0?5it?5wi@ 10073a60     OmniMIDI.obj
 0002:00013a98       ??_C@_0EG@PAFNGIFO@Everything?5seems?5to?5be?5OK?4?5Push@ 10073a98     OmniMIDI.obj
 0002:00013ae0       ??_C@_05FPHEHGGN@Done?4@   10073ae0     OmniMIDI.obj
 0002:00013ae8       ??_C@_0DD@FDLCOIAJ@Unable?5to?5load?5SoundFont?$CB?5The?5f@ 10073ae8     OmniMIDI.obj
 0002:00013b1c       ??_C@_0DH@JHCPDGAA@Preparing?5vector?5array?5for?5BASS@ 10073b1c     OmniMIDI.obj
 0002:00013b54       ??_C@_0DJ@JNAPBKAI@Loading?5SoundFont?$CIs?$CJ?5through?5BA@ 10073b54     OmniMIDI.obj
 0002:00013b90       ??_C@_1CO@FFNLOKJM@?$AAT?$AAe?$AAm?$AAp?$AAS?$AAo?$AAu?$AAn?$AAd?$AAF?$AAo?$AAn?$AAt?$AAs?$AA?5@ 10073b90     OmniMIDI.obj
 0002:00013bc0       ??_C@_17BJJOKAJC@?$AA3?$AA6?$AA2@ 10073bc0     OmniMIDI.obj
 0002:00013bc8       ??_C@_1BG@ILECDAHH@?$AAF?$AAo?$AAn?$AAt?$AAL?$AAo?$AAa?$AAd?$AAe?$AAr@ 10073bc8     OmniMIDI.obj
 0002:00013be0       ??_C@_0CD@KNJFOLOJ@Ignored?5NoteON?1NoteOFF?5MIDI?5eve@ 10073be0     OmniMIDI.obj
 0002:00013c04       ??_C@_0BL@GABDMLPH@CheckIfEventIsToIgnoreFunc@ 10073c04     OmniMIDI.obj
 0002:00013c20       ??_C@_0BH@FPCOABAC@Stream?5Volume?5FX?5Apply@ 10073c20     OmniMIDI.obj
 0002:00013c38       ??_C@_0CA@IGHHBMBK@Applied?5volume?5HFX?5to?5OMStream?4@ 10073c38     OmniMIDI.obj
 0002:00013c58       ??_C@_0BK@NOEIBPIG@InitializeOrUpdateEffects@ 10073c58     OmniMIDI.obj
 0002:00013c74       ??_C@_0BF@PNMFLNDL@Stream?5Volume?5FX?5Set@ 10073c74     OmniMIDI.obj
 0002:00013c8c       ??_C@_0BJ@KHCFGBLN@Applied?5volume?5settings?4@ 10073c8c     OmniMIDI.obj
 0002:00013ca8       ??_C@_0BH@LLCFBHLA@Stream?5Reverb?5FX?5Apply@ 10073ca8     OmniMIDI.obj
 0002:00013cc0       ??_C@_0CA@KBDJPFOI@Applied?5reverb?5HFX?5to?5OMStream?4@ 10073cc0     OmniMIDI.obj
 0002:00013ce0       ??_C@_0M@CMJHOFAA@Rev?5fInGain@ 10073ce0     OmniMIDI.obj
 0002:00013cec       ??_C@_0BC@DGCJDCEO@LoadSettingsFuncs@ 10073cec     OmniMIDI.obj
 0002:00013d00       ??_C@_0P@MICOAOLI@Rev?5fReverbMix@ 10073d00     OmniMIDI.obj
 0002:00013d10       ??_C@_0BA@KKOFBODK@Rev?5fReverbTime@ 10073d10     OmniMIDI.obj
 0002:00013d20       ??_C@_0BF@JEEFDOHE@Rev?5fHighFreqRTRatio@ 10073d20     OmniMIDI.obj
 0002:00013d38       ??_C@_0BJ@ICKOLIAL@Applied?5reverb?5settings?4@ 10073d38     OmniMIDI.obj
 0002:00013d54       ??_C@_0BI@FHOEKHOC@Stream?5Reverb?5FX?5Remove@ 10073d54     OmniMIDI.obj
 0002:00013d6c       ??_C@_0CC@JBNGLPN@Removed?5reverb?5HFX?5from?5OMStrea@ 10073d6c     OmniMIDI.obj
 0002:00013d90       ??_C@_0BH@BFBEFLJJ@Stream?5Chorus?5FX?5Apply@ 10073d90     OmniMIDI.obj
 0002:00013da8       ??_C@_0CA@MEJKGGGH@Applied?5chorus?5HFX?5to?5OMStream?4@ 10073da8     OmniMIDI.obj
 0002:00013dc8       ??_C@_0P@GLCJMOPE@Cho?5fWetDryMix@ 10073dc8     OmniMIDI.obj
 0002:00013dd8       ??_C@_0L@NLNABBHN@Cho?5fDepth@ 10073dd8     OmniMIDI.obj
 0002:00013de4       ??_C@_0O@JEFHNMLK@Cho?5fFeedback@ 10073de4     OmniMIDI.obj
 0002:00013df4       ??_C@_0P@DPLAEOKG@Cho?5fFrequency@ 10073df4     OmniMIDI.obj
 0002:00013e04       ??_C@_0O@MDFECNLA@Cho?5lSineMode@ 10073e04     OmniMIDI.obj
 0002:00013e14       ??_C@_0L@EHDDJCDN@Cho?5lPhase@ 10073e14     OmniMIDI.obj
 0002:00013e20       ??_C@_0L@IICLLLNB@Cho?5fDelay@ 10073e20     OmniMIDI.obj
 0002:00013e2c       ??_C@_0BJ@MALCBBCL@Applied?5chorus?5settings?4@ 10073e2c     OmniMIDI.obj
 0002:00013e48       ??_C@_0BI@BFPIAOMC@Stream?5Chorus?5FX?5Remove@ 10073e48     OmniMIDI.obj
 0002:00013e60       ??_C@_0CC@NMAAEICE@Removed?5chorus?5HFX?5from?5OMStrea@ 10073e60     OmniMIDI.obj
 0002:00013e84       ??_C@_0BF@GBCKKCEB@Stream?5Echo?5FX?5Apply@ 10073e84     OmniMIDI.obj
 0002:00013e9c       ??_C@_0BO@HJEFFHNL@Applied?5echo?5HFX?5to?5OMStream?4@ 10073e9c     OmniMIDI.obj
 0002:00013ebc       ??_C@_0P@HLJICHLD@Ech?5fWetDryMix@ 10073ebc     OmniMIDI.obj
 0002:00013ecc       ??_C@_0O@PPMEMBCA@Ech?5fFeedback@ 10073ecc     OmniMIDI.obj
 0002:00013edc       ??_C@_0P@EKJOPIDJ@Ech?5fLeftDelay@ 10073edc     OmniMIDI.obj
 0002:00013eec       ??_C@_0BA@PCLNNAIO@Ech?5fRightDelay@ 10073eec     OmniMIDI.obj
 0002:00013efc       ??_C@_0O@INOHJFFE@Ech?5lPanDelay@ 10073efc     OmniMIDI.obj
 0002:00013f0c       ??_C@_0BH@ENLDPDMH@Applied?5echo?5settings?4@ 10073f0c     OmniMIDI.obj
 0002:00013f24       ??_C@_0BG@JNIEGKNN@Stream?5Echo?5FX?5Remove@ 10073f24     OmniMIDI.obj
 0002:00013f3c       ??_C@_0CA@BECIJFIL@Removed?5echo?5HFX?5from?5OMStream?4@ 10073f3c     OmniMIDI.obj
 0002:00013f5c       ??_C@_0BJ@DJNHBOBM@EVBuffer?5has?5been?5reset?4@ 10073f5c     OmniMIDI.obj
 0002:00013f78       ??_C@_0L@JBJLBJMB@ResetSynth@ 10073f78     OmniMIDI.obj
 0002:00013f84       ??_C@_0BI@HJMJFHEO@Sent?5SysEx?5to?5BASSMIDI?4@ 10073f84     OmniMIDI.obj
 0002:00013f9c       ??_C@_0CE@OKLKNHON@Sent?5NoteOFFs?5to?5all?5MIDI?5chann@ 10073f9c     OmniMIDI.obj
 0002:00013fc0       ??_C@_17HDAEGJHB@?$AA1?$AA8?$AA1@ 10073fc0     OmniMIDI.obj
 0002:00013fc8       ??_C@_1EO@PLFHOMCN@?$AAE?$AA?3?$AA?2?$AAG?$AAi?$AAt?$AAH?$AAu?$AAb?$AA?2?$AAO?$AAm?$AAn?$AAi?$AAM@ 10073fc8     OmniMIDI.obj
 0002:00014018       ??_C@_1CA@JJFLODNG@?$AAO?$AAp?$AAe?$AAn?$AAR?$AAe?$AAg?$AAi?$AAs?$AAt?$AAr?$AAy?$AAK?$AAe?$AAy@ 10074018     OmniMIDI.obj
 0002:00014038       ??_C@_17OENNLB@?$AA1?$AA9?$AA0@ 10074038     OmniMIDI.obj
 0002:00014040       ??_C@_1CC@INPGAOAL@?$AAC?$AAl?$AAo?$AAs?$AAe?$AAR?$AAe?$AAg?$AAi?$AAs?$AAt?$AAr?$AAy?$AAK?$AAe@ 10074040     OmniMIDI.obj
 0002:00014064       ??_C@_0CH@FAAPKAFA@Waiting?5for?5passed?5thread?5to?5fi@ 10074064     OmniMIDI.obj
 0002:0001408c       ??_C@_0M@BMIDKNOE@CloseThread@ 1007408c     OmniMIDI.obj
 0002:00014098       ??_C@_0P@IAMPCEMI@Cleaning?5up?4?4?4@ 10074098     OmniMIDI.obj
 0002:000140a8       ??_C@_17HAINPHNB@?$AA2?$AA1?$AA3@ 100740a8     OmniMIDI.obj
 0002:000140b0       ??_C@_1BI@LLAAOCGA@?$AAC?$AAl?$AAo?$AAs?$AAe?$AAT?$AAh?$AAr?$AAe?$AAa?$AAd@ 100740b0     OmniMIDI.obj
 0002:000140c8       ??_C@_0BA@KMOCCDGG@Thread?5is?5down?4@ 100740c8     OmniMIDI.obj
 0002:000140d8       ??_C@_0CB@MAIHPKPK@The?5passed?5thread?5doesn?8t?5exist@ 100740d8     OmniMIDI.obj
 0002:000140fc       ??_C@_0CO@PFEALCOH@ERROR?5?$HM?5Unable?5to?5load?5the?5foll@ 100740fc     OmniMIDI.obj
 0002:00014130       ??_C@_1LM@HPDEIAHL@?$AAA?$AAn?$AA?5?$AAe?$AAr?$AAr?$AAo?$AAr?$AA?5?$AAh?$AAa?$AAs?$AA?5?$AAo?$AAc@ 10074130     OmniMIDI.obj
 0002:000141ec       ??_C@_1DE@FIHCNCCF@?$AAO?$AAm?$AAn?$AAi?$AAM?$AAI?$AAD?$AAI?$AA?5?$AA?9?$AA?5?$AAD?$AAL?$AAL?$AA?5@ 100741ec     OmniMIDI.obj
 0002:00014220       ??_C@_0BK@LPEIIBE@Loading?5soundfont?5list?4?4?4@ 10074220     OmniMIDI.obj
 0002:0001423c       ??_C@_0BC@KIIAPMJE@LoadSoundFontFunc@ 1007423c     OmniMIDI.obj
 0002:00014250       ??_C@_1O@CPGEMHML@?$AAo?$AAm?$AAl?$AAi?$AAs?$AAt@ 10074250     OmniMIDI.obj
 0002:00014260       ??_C@_1M@EPGGOBHF@?$AAl?$AAi?$AAs?$AAt?$AAs@ 10074260     OmniMIDI.obj
 0002:0001426c       ??_C@_1CE@JPGLPDDC@?$AAL?$AAo?$AAa?$AAd?$AAS?$AAo?$AAu?$AAn?$AAd?$AAF?$AAo?$AAn?$AAt?$AAF?$AAu@ 1007426c     OmniMIDI.obj
 0002:00014290       ??_C@_1DG@BNJPLBJA@?$AAS?$AAo?$AAf?$AAt?$AAw?$AAa?$AAr?$AAe?$AA?2?$AAO?$AAm?$AAn?$AAi?$AAM?$AAI@ 10074290     OmniMIDI.obj
 0002:000142c8       ??_C@_1BM@HMKDBPLD@?$AAc?$AAu?$AAr?$AAr?$AAe?$AAn?$AAt?$AAs?$AAf?$AAl?$AAi?$AAs?$AAt@ 100742c8     OmniMIDI.obj
 0002:000142e4       ??_C@_05NIOMGKKC@Done?$CB@ 100742e4     OmniMIDI.obj
 0002:000142ec       ??_C@_1BA@CHNMINMH@?$AAa?$AAp?$AAp?$AAl?$AAi?$AAs?$AAt@ 100742ec     OmniMIDI.obj
 0002:000142fc       ??_C@_1BC@GODIJGLK@?$AAa?$AAp?$AAp?$AAl?$AAi?$AAs?$AAt?$AAs@ 100742fc     OmniMIDI.obj
 0002:00014310       ??_C@_1CK@BNLCJED@?$AAL?$AAo?$AAa?$AAd?$AAS?$AAo?$AAu?$AAn?$AAd?$AAf?$AAo?$AAn?$AAt?$AAS?$AAt@ 10074310     OmniMIDI.obj
 0002:0001433c       ??_C@_0BH@JNNEEFAI@Found?5list?4?5Loading?4?4?4@ 1007433c     OmniMIDI.obj
 0002:00014354       ??_C@_0BF@BADIDKHH@LoadSoundfontStartup@ 10074354     OmniMIDI.obj
 0002:0001436c       ??_C@_0CN@FOCBCNEJ@No?5default?5startup?5list?5found?4?5@ 1007436c     OmniMIDI.obj
 0002:000143a0       ??_C@_0EJ@LLCIPKE@No?5library?5has?5been?5found?5in?5me@ 100743a0     OmniMIDI.obj
 0002:000143ec       ??_C@_0CE@NEECMDMG@Checking?5through?5GetModuleHandl@ 100743ec     OmniMIDI.obj
 0002:00014410       ??_C@_0CM@PDHMMEEF@Non?5OM?9library?5detected?5in?5memo@ 10074410     OmniMIDI.obj
 0002:00014440       ??_C@_1EM@IACKBDHO@?$AAO?$AAm?$AAn?$AAi?$AAM?$AAI?$AAD?$AAI?$AA?5?$AA?9?$AA?5?$AAP?$AAo?$AAs?$AAs@ 10074440     OmniMIDI.obj
 0002:00014490       ??_C@_1BNK@KHDIGPLD@?$AAO?$AAm?$AAn?$AAi?$AAM?$AAI?$AAD?$AAI?$AA?5?$AAh?$AAa?$AAs?$AA?5?$AAd?$AAe@ 10074490     OmniMIDI.obj
 0002:00014670       ??_C@_0EI@FFJMHNNO@The?5user?5forced?5OmniMIDI?5to?5use@ 10074670     OmniMIDI.obj
 0002:000146b8       ??_C@_0ED@PAALINHM@The?5user?5made?5the?5right?5choice?0@ 100746b8     OmniMIDI.obj
 0002:000146fc       ??_C@_1CA@MJCAJADJ@?$AA?$CF?$AAs?$AA?2?$AAO?$AAm?$AAn?$AAi?$AAM?$AAI?$AAD?$AAI?$AA?2?$AA?$CF?$AAs?$AA?$AA@ 100746fc     OmniMIDI.obj
 0002:0001471c       ??_C@_0CP@KGDIJLHC@OmniMIDI?5couldn?8t?5find?5the?5requ@ 1007471c     OmniMIDI.obj
 0002:00014750       ??_C@_0FN@FODKIBAK@Failed?5to?5load?5requested?5librar@ 10074750     OmniMIDI.obj
 0002:000147b0       ??_C@_0BO@DAGHIGK@The?5library?5is?5now?5in?5memory?4@ 100747b0     OmniMIDI.obj
 0002:000147d0       ??_C@_0FB@JMOMMBJG@The?5library?5is?5already?5in?5memor@ 100747d0     OmniMIDI.obj
 0002:00014828       ??_C@_0EI@BIOKJKLL@No?5plugin?5has?5been?5found?5in?5mem@ 10074828     OmniMIDI.obj
 0002:00014870       ??_C@_1BO@GJCBPILO@?$AA?$CF?$AAs?$AA?2?$AAO?$AAm?$AAn?$AAi?$AAM?$AAI?$AAD?$AAI?$AA?2?$AA?$CF?$AAs@ 10074870     OmniMIDI.obj
 0002:00014890       ??_C@_0IF@CMHODPGL@Failed?5to?5load?5requested?5plugin@ 10074890     OmniMIDI.obj
 0002:00014918       ??_C@_0BN@IHMDAJKG@The?5plugin?5is?5now?5in?5memory?4@ 10074918     OmniMIDI.obj
 0002:00014938       ??_C@_0FA@KGLNODFA@The?5plugin?5is?5already?5in?5memory@ 10074938     OmniMIDI.obj
 0002:00014988       ??_C@_0CB@FACCAMIB@Importing?5BASS?5DLLs?5to?5memory?4?4@ 10074988     OmniMIDI.obj
 0002:000149ac       ??_C@_0L@PBLPLDKB@ImportBASS@ 100749ac     OmniMIDI.obj
 0002:000149b8       ??_C@_1BC@CDPLFAFF@?$AAb?$AAa?$AAs?$AAs?$AA?4?$AAd?$AAl?$AAl@ 100749b8     OmniMIDI.obj
 0002:000149cc       ??_C@_1BK@DOGPDENO@?$AAb?$AAa?$AAs?$AAs?$AAm?$AAi?$AAd?$AAi?$AA?4?$AAd?$AAl?$AAl@ 100749cc     OmniMIDI.obj
 0002:000149e8       ??_C@_1BK@GIMFBMNN@?$AAb?$AAa?$AAs?$AAs?$AAa?$AAs?$AAi?$AAo?$AA?4?$AAd?$AAl?$AAl@ 100749e8     OmniMIDI.obj
 0002:00014a04       ??_C@_1BO@OMBPIHCE@?$AAb?$AAa?$AAs?$AAs?$AAw?$AAa?$AAs?$AAa?$AAp?$AAi?$AA?4?$AAd?$AAl?$AAl@ 10074a04     OmniMIDI.obj
 0002:00014a24       ??_C@_1BI@BLBCFJHL@?$AAb?$AAa?$AAs?$AAs?$AAe?$AAn?$AAc?$AA?4?$AAd?$AAl?$AAl@ 10074a24     OmniMIDI.obj
 0002:00014a3c       ??_C@_0DA@LDLMCFMP@DLLs?5loaded?5into?5memory?4?5Import@ 10074a3c     OmniMIDI.obj
 0002:00014a6c       ??_C@_0BE@FHMIDIKA@BASS_ASIO_CheckRate@ 10074a6c     OmniMIDI.obj
 0002:00014a80       ??_C@_0BI@GGDIKDDM@BASS_ASIO_ChannelEnable@ 10074a80     OmniMIDI.obj
 0002:00014a98       ??_C@_0BM@CMHKHGLJ@BASS_ASIO_ChannelEnableBASS@ 10074a98     OmniMIDI.obj
 0002:00014ab4       ??_C@_0BO@CLHLEDLG@BASS_ASIO_ChannelEnableMirror@ 10074ab4     OmniMIDI.obj
 0002:00014ad4       ??_C@_0BK@IPBILJAK@BASS_ASIO_ChannelGetLevel@ 10074ad4     OmniMIDI.obj
 0002:00014af0       ??_C@_0BG@CKMPMCPB@BASS_ASIO_ChannelJoin@ 10074af0     OmniMIDI.obj
 0002:00014b08       ??_C@_0BL@LIELANJD@BASS_ASIO_ChannelSetFormat@ 10074b08     OmniMIDI.obj
 0002:00014b24       ??_C@_0BJ@JCOEINKE@BASS_ASIO_ChannelSetRate@ 10074b24     OmniMIDI.obj
 0002:00014b40       ??_C@_0BH@IDPPMAOC@BASS_ASIO_ControlPanel@ 10074b40     OmniMIDI.obj
 0002:00014b58       ??_C@_0BH@DKIEGOFB@BASS_ASIO_ErrorGetCode@ 10074b58     OmniMIDI.obj
 0002:00014b70       ??_C@_0P@IBPJPOFM@BASS_ASIO_Free@ 10074b70     OmniMIDI.obj
 0002:00014b80       ??_C@_0BE@MHPBDMIE@BASS_ASIO_GetDevice@ 10074b80     OmniMIDI.obj
 0002:00014b94       ??_C@_0BI@GHMIMAIF@BASS_ASIO_GetDeviceInfo@ 10074b94     OmniMIDI.obj
 0002:00014bac       ??_C@_0BF@ENJKKDHJ@BASS_ASIO_GetLatency@ 10074bac     OmniMIDI.obj
 0002:00014bc4       ??_C@_0BC@FGEIIJKA@BASS_ASIO_GetRate@ 10074bc4     OmniMIDI.obj
 0002:00014bd8       ??_C@_0P@EDKFFLNO@BASS_ASIO_Init@ 10074bd8     OmniMIDI.obj
 0002:00014be8       ??_C@_0BC@KOLJLGHB@BASS_ASIO_SetRate@ 10074be8     OmniMIDI.obj
 0002:00014bfc       ??_C@_0BA@GDFPBMPJ@BASS_ASIO_Start@ 10074bfc     OmniMIDI.obj
 0002:00014c0c       ??_C@_0P@DGLANKLA@BASS_ASIO_Stop@ 10074c0c     OmniMIDI.obj
 0002:00014c1c       ??_C@_0BE@IMMGNPLG@BASS_ASIO_IsStarted@ 10074c1c     OmniMIDI.obj
 0002:00014c30       ??_C@_0BC@CPEBHBOP@BASS_Encode_Start@ 10074c30     OmniMIDI.obj
 0002:00014c44       ??_C@_0BB@EBMNJCJB@BASS_Encode_Stop@ 10074c44     OmniMIDI.obj
 0002:00014c58       ??_C@_0BC@KJHALBBE@BASS_Encode_Write@ 10074c58     OmniMIDI.obj
 0002:00014c6c       ??_C@_0BG@BKHAAFFB@BASS_Encode_SetPaused@ 10074c6c     OmniMIDI.obj
 0002:00014c84       ??_C@_0BC@INLFFEEL@BASS_ChannelFlags@ 10074c84     OmniMIDI.obj
 0002:00014c98       ??_C@_0BJ@CHMMDMDE@BASS_ChannelGetAttribute@ 10074c98     OmniMIDI.obj
 0002:00014cb4       ??_C@_0BE@CGMNAIFJ@BASS_ChannelGetData@ 10074cb4     OmniMIDI.obj
 0002:00014cc8       ??_C@_0BH@DBMEONBP@BASS_ChannelGetLevelEx@ 10074cc8     OmniMIDI.obj
 0002:00014ce0       ??_C@_0BF@ILOFMFLK@BASS_ChannelIsActive@ 10074ce0     OmniMIDI.obj
 0002:00014cf8       ??_C@_0BB@EPLEMDGE@BASS_ChannelPlay@ 10074cf8     OmniMIDI.obj
 0002:00014d0c       ??_C@_0BF@BOOOPDNP@BASS_ChannelRemoveFX@ 10074d0c     OmniMIDI.obj
 0002:00014d24       ??_C@_0BK@EFJNAHNN@BASS_ChannelSeconds2Bytes@ 10074d24     OmniMIDI.obj
 0002:00014d40       ??_C@_0BJ@FDHCPAHI@BASS_ChannelSetAttribute@ 10074d40     OmniMIDI.obj
 0002:00014d5c       ??_C@_0BG@DNBJLKHC@BASS_ChannelSetDevice@ 10074d5c     OmniMIDI.obj
 0002:00014d74       ??_C@_0BC@PLIGNDAB@BASS_ChannelSetFX@ 10074d74     OmniMIDI.obj
 0002:00014d88       ??_C@_0BB@EGOFFAIH@BASS_ChannelStop@ 10074d88     OmniMIDI.obj
 0002:00014d9c       ??_C@_0BD@DDOPDADE@BASS_ChannelUpdate@ 10074d9c     OmniMIDI.obj
 0002:00014db0       ??_C@_0BC@IDLELEKM@BASS_ErrorGetCode@ 10074db0     OmniMIDI.obj
 0002:00014dc4       ??_C@_0BF@MHHPJFKL@BASS_FXSetParameters@ 10074dc4     OmniMIDI.obj
 0002:00014ddc       ??_C@_09DLIMLJKK@BASS_Free@ 10074ddc     OmniMIDI.obj
 0002:00014de8       ??_C@_0P@EKFGBFHE@BASS_GetDevice@ 10074de8     OmniMIDI.obj
 0002:00014df8       ??_C@_0BD@KEHNHOPO@BASS_GetDeviceInfo@ 10074df8     OmniMIDI.obj
 0002:00014e0c       ??_C@_0N@NCEIPDFI@BASS_GetInfo@ 10074e0c     OmniMIDI.obj
 0002:00014e1c       ??_C@_09PJNABMCI@BASS_Init@ 10074e1c     OmniMIDI.obj
 0002:00014e28       ??_C@_0BA@NHODJFAL@BASS_PluginFree@ 10074e28     OmniMIDI.obj
 0002:00014e38       ??_C@_0BA@CBDCJLHF@BASS_PluginLoad@ 10074e38     OmniMIDI.obj
 0002:00014e48       ??_C@_0P@DHHNACEP@BASS_SetConfig@ 10074e48     OmniMIDI.obj
 0002:00014e58       ??_C@_09IMMFJNEG@BASS_Stop@ 10074e58     OmniMIDI.obj
 0002:00014e64       ??_C@_0BA@OJEHGEGL@BASS_StreamFree@ 10074e64     OmniMIDI.obj
 0002:00014e74       ??_C@_0BB@OKMFMOOL@BASS_WASAPI_Init@ 10074e74     OmniMIDI.obj
 0002:00014e88       ??_C@_0BB@CIJJGLGJ@BASS_WASAPI_Free@ 10074e88     OmniMIDI.obj
 0002:00014e9c       ??_C@_0BG@FIILDFFG@BASS_WASAPI_IsStarted@ 10074e9c     OmniMIDI.obj
 0002:00014eb4       ??_C@_0BC@DFEFLIEP@BASS_WASAPI_Start@ 10074eb4     OmniMIDI.obj
 0002:00014ec8       ??_C@_0BB@JPNAEPIF@BASS_WASAPI_Stop@ 10074ec8     OmniMIDI.obj
 0002:00014edc       ??_C@_0BK@NBKLPDEO@BASS_WASAPI_GetDeviceInfo@ 10074edc     OmniMIDI.obj
 0002:00014ef8       ??_C@_0BE@JPHCJICE@BASS_WASAPI_GetInfo@ 10074ef8     OmniMIDI.obj
 0002:00014f0c       ??_C@_0BG@BDLMNGGE@BASS_WASAPI_GetDevice@ 10074f0c     OmniMIDI.obj
 0002:00014f24       ??_C@_0BH@NLBBEKGL@BASS_WASAPI_GetLevelEx@ 10074f24     OmniMIDI.obj
 0002:00014f3c       ??_C@_0BE@KPAALCKP@BASS_WASAPI_PutData@ 10074f3c     OmniMIDI.obj
 0002:00014f50       ??_C@_0BD@NONHGPBH@BASS_MIDI_FontFree@ 10074f50     OmniMIDI.obj
 0002:00014f64       ??_C@_0BD@BMILMKJF@BASS_MIDI_FontInit@ 10074f64     OmniMIDI.obj
 0002:00014f78       ??_C@_0BD@CIAGGBGJ@BASS_MIDI_FontLoad@ 10074f78     OmniMIDI.obj
 0002:00014f8c       ??_C@_0BH@PBPKGKIM@BASS_MIDI_StreamCreate@ 10074f8c     OmniMIDI.obj
 0002:00014fa4       ??_C@_0BG@DLNFFJOG@BASS_MIDI_StreamEvent@ 10074fa4     OmniMIDI.obj
 0002:00014fbc       ??_C@_0BH@ENEALICB@BASS_MIDI_StreamEvents@ 10074fbc     OmniMIDI.obj
 0002:00014fd4       ??_C@_0BJ@DPINBOCH@BASS_MIDI_StreamGetEvent@ 10074fd4     OmniMIDI.obj
 0002:00014ff0       ??_C@_0BM@LAEJEHNE@BASS_MIDI_StreamLoadSamples@ 10074ff0     OmniMIDI.obj
 0002:0001500c       ??_C@_0BJ@KMDELNGH@BASS_MIDI_StreamSetFonts@ 1007500c     OmniMIDI.obj
 0002:00015028       ??_C@_0BL@PCCFIGBC@BASS_MIDI_StreamGetChannel@ 10075028     OmniMIDI.obj
 0002:00015044       ??_C@_1BK@NHHFBMKK@?$AAb?$AAa?$AAs?$AAs?$AAf?$AAl?$AAa?$AAc?$AA?4?$AAd?$AAl?$AAl@ 10075044     OmniMIDI.obj
 0002:00015060       ??_C@_1BG@OLFCJECI@?$AAb?$AAa?$AAs?$AAs?$AAw?$AAv?$AA?4?$AAd?$AAl?$AAl@ 10075060     OmniMIDI.obj
 0002:00015078       ??_C@_1BK@BNHFLHJK@?$AAb?$AAa?$AAs?$AAs?$AAo?$AAp?$AAu?$AAs?$AA?4?$AAd?$AAl?$AAl@ 10075078     OmniMIDI.obj
 0002:00015094       ??_C@_0CG@FJANJOIO@Function?5pointers?5loaded?5into?5m@ 10075094     OmniMIDI.obj
 0002:000150bc       ??_C@_0CM@GNPFADLC@BASS?5has?5been?5already?5loaded?5by@ 100750bc     OmniMIDI.obj
 0002:000150e8       ??_C@_0BL@FHPBIOKF@Setting?5BASS?5flag?5to?5true?4@ 100750e8     OmniMIDI.obj
 0002:00015104       ??_C@_17OHJPMGHB@?$AA5?$AA1?$AA4@ 10075104     OmniMIDI.obj
 0002:0001510c       ??_C@_1CE@KOBNOGAN@?$AAL?$AAo?$AAa?$AAd?$AAB?$AAA?$AAS?$AAS?$AAF?$AAu?$AAn?$AAc?$AAt?$AAi?$AAo@ 1007510c     OmniMIDI.obj
 0002:00015130       ??_C@_0BK@FJPLPNOG@Freeing?5BASS?5libraries?4?4?4@ 10075130     OmniMIDI.obj
 0002:0001514c       ??_C@_0L@KBHAGLAD@UnloadBASS@ 1007514c     OmniMIDI.obj
 0002:00015158       ??_C@_0O@DIFILCBB@BASSFLAC?5Free@ 10075158     OmniMIDI.obj
 0002:00015168       ??_C@_0M@OBBOGJL@BASSWV?5Free@ 10075168     OmniMIDI.obj
 0002:00015174       ??_C@_0O@BBJGILKB@BASSOPUS?5Free@ 10075174     OmniMIDI.obj
 0002:00015184       ??_C@_17EFDIIPBP@?$AA5?$AA4?$AA9@ 10075184     OmniMIDI.obj
 0002:0001518c       ??_C@_1CI@PNBFKHDI@?$AAU?$AAn?$AAl?$AAo?$AAa?$AAd?$AAB?$AAA?$AAS?$AAS?$AAF?$AAu?$AAn?$AAc?$AAt@ 1007518c     OmniMIDI.obj
 0002:000151b4       ??_C@_17NGAHEMOM@?$AA5?$AA5?$AA6@ 100751b4     OmniMIDI.obj
 0002:000151bc       ??_C@_17GHENMOHA@?$AA5?$AA6?$AA3@ 100751bc     OmniMIDI.obj
 0002:000151c4       ??_C@_17LOKELCDL@?$AA5?$AA7?$AA0@ 100751c4     OmniMIDI.obj
 0002:000151cc       ??_C@_17CDHDIKIC@?$AA5?$AA7?$AA7@ 100751cc     OmniMIDI.obj
 0002:000151d4       ??_C@_17HICMPANM@?$AA5?$AA8?$AA5@ 100751d4     OmniMIDI.obj
 0002:000151dc       ??_C@_0DP@MMFJGJBH@The?5BASS?5libraries?5have?5been?5fr@ 100751dc     OmniMIDI.obj
 0002:0001521c       ??_C@_0CL@NJKAKLFP@BASS?5hasn?8t?5been?5loaded?5by?5the?5@ 1007521c     OmniMIDI.obj
 0002:00015248       ??_C@_17KBMFIMJH@?$AA5?$AA9?$AA6@ 10075248     OmniMIDI.obj
 0002:00015250       ??_C@_1BK@DGOEJPLB@?$AAE?$AAv?$AAB?$AAu?$AAf?$AAf?$AAe?$AAr?$AAS?$AAi?$AAz?$AAe@ 10075250     OmniMIDI.obj
 0002:0001526c       ??_C@_1CE@LHJPBEFL@?$AAE?$AAv?$AAB?$AAu?$AAf?$AAf?$AAe?$AAr?$AAM?$AAu?$AAl?$AAt?$AAR?$AAa?$AAt@ 1007526c     OmniMIDI.obj
 0002:00015290       ??_C@_0BF@DGHJDMCC@Freeing?5EV?5buffer?4?4?4@ 10075290     OmniMIDI.obj
 0002:000152a8       ??_C@_0BB@IDGIKEEE@FreeUpMemoryFunc@ 100752a8     OmniMIDI.obj
 0002:000152bc       ??_C@_0BK@IPDHELGE@Unlocked?5buffer?5from?5RAM?4@ 100752bc     OmniMIDI.obj
 0002:000152d8       ??_C@_0BD@MDLAIDKN@AllocateMemoryFunc@ 100752d8     OmniMIDI.obj
 0002:000152ec       ??_C@_17CDMGHOCK@?$AA6?$AA1?$AA8@ 100752ec     OmniMIDI.obj
 0002:000152f4       ??_C@_1BK@EMJEDGFL@?$AAF?$AAr?$AAe?$AAe?$AAU?$AAp?$AAM?$AAe?$AAm?$AAo?$AAr?$AAy@ 100752f4     OmniMIDI.obj
 0002:00015310       ??_C@_06BKFBFJNE@Freed?4@  10075310     OmniMIDI.obj
 0002:00015318       ??_C@_0DB@BBIOLJDH@Allocating?5memory?5for?5EV?5buffer@ 10075318     OmniMIDI.obj
 0002:00015350       ??_C@_1FC@IGPGFIJJ@?$AAO?$AAm?$AAn?$AAi?$AAM?$AAI?$AAD?$AAI?$AA?5?$AA?9?$AA?5?$AAI?$AAl?$AAl?$AAe@ 10075350     OmniMIDI.obj
 0002:000153a8       ??_C@_1BCO@LMPLLPKK@?$AAT?$AAh?$AAe?$AA?5?$AAe?$AAv?$AAe?$AAn?$AAt?$AAs?$AA?5?$AAb?$AAu?$AAf?$AAf@ 100753a8     OmniMIDI.obj
 0002:000154d8       ??_C@_0CL@NPAHPKE@EV?5buffer?5is?5too?5big?0?5limiting?5@ 100754d8     OmniMIDI.obj
 0002:00015508       ??_C@_1NK@BLDMDFHL@?$AAT?$AAh?$AAe?$AA?5?$AAs?$AAi?$AAz?$AAe?$AA?5?$AAo?$AAf?$AA?5?$AAt?$AAh?$AAe@ 10075508     OmniMIDI.obj
 0002:000155e4       ??_C@_0BN@FMKOMDII@EV?5buffer?5already?5allocated?4@ 100755e4     OmniMIDI.obj
 0002:00015604       ??_C@_0CF@LMKIEHMO@EV?5buffer?5size?5?$CIin?5amount?5of?5DW@ 10075604     OmniMIDI.obj
 0002:0001562c       ??_C@_0BJ@NELKHPL@EV?5buffer?5division?5ratio@ 1007562c     OmniMIDI.obj
 0002:00015648       ??_C@_0DJ@IEFPGKDK@EV?5buffer?5final?5size?5?$CIin?5bytes?0@ 10075648     OmniMIDI.obj
 0002:00015684       ??_C@_0BP@JPMCDCEL@Total?5RAM?5available?5?$CIin?5bytes?$CJ@ 10075684     OmniMIDI.obj
 0002:000156a4       ??_C@_0BI@FDGEIHEK@Allocating?5EV?5buffer?4?4?4@ 100756a4     OmniMIDI.obj
 0002:000156bc       ??_C@_1DA@DFGMPKEM@?$AAO?$AAm?$AAn?$AAi?$AAM?$AAI?$AAD?$AAI?$AA?5?$AA?9?$AA?5?$AAF?$AAA?$AAT?$AAA@ 100756bc     OmniMIDI.obj
 0002:000156f0       ??_C@_1KO@POFANPHH@?$AAT?$AAh?$AAe?$AA?5?$AAd?$AAr?$AAi?$AAv?$AAe?$AAr?$AA?5?$AAf?$AAa?$AAi?$AAl@ 100756f0     OmniMIDI.obj
 0002:000157a0       ??_C@_0GC@KJFKNHP@VirtualLock?5failed?5to?5lock?5the?5@ 100757a0     OmniMIDI.obj
 0002:00015808       ??_C@_0EI@GDHFAFKP@VirtualLock?5successfully?5locked@ 10075808     OmniMIDI.obj
 0002:00015850       ??_C@_0BF@NGMONLLH@EV?5buffer?5allocated?4@ 10075850     OmniMIDI.obj
 0002:00015868       ??_C@_0BA@BKELJILD@Set?5heads?5to?50?4@ 10075868     OmniMIDI.obj
 0002:00015878       ??_C@_17FHNABJNB@?$AA7?$AA1?$AA9@ 10075878     OmniMIDI.obj
 0002:00015880       ??_C@_1BO@POAGJPI@?$AAA?$AAl?$AAl?$AAo?$AAc?$AAa?$AAt?$AAe?$AAM?$AAe?$AAm?$AAo?$AAr?$AAy@ 10075880     OmniMIDI.obj
 0002:000158a0       ??_C@_0CC@EPGLPHCM@Loading?5settings?5from?5registry?4@ 100758a0     OmniMIDI.obj
 0002:000158c4       ??_C@_1CE@LIDABOJP@?$AAS?$AAo?$AAf?$AAt?$AAw?$AAa?$AAr?$AAe?$AA?2?$AAO?$AAm?$AAn?$AAi?$AAM?$AAI@ 100758c4     OmniMIDI.obj
 0002:000158e8       ??_C@_1BO@LIEHBNKE@?$AAD?$AAr?$AAi?$AAv?$AAe?$AAr?$AAP?$AAr?$AAi?$AAo?$AAr?$AAi?$AAt?$AAy@ 100758e8     OmniMIDI.obj
 0002:00015908       ??_C@_1BO@OCFCGNEA@?$AAA?$AAS?$AAI?$AAO?$AAD?$AAi?$AAr?$AAe?$AAc?$AAt?$AAF?$AAe?$AAe?$AAd@ 10075908     OmniMIDI.obj
 0002:00015928       ??_C@_1CI@FBIGFJCK@?$AAD?$AAi?$AAs?$AAa?$AAb?$AAl?$AAe?$AAA?$AAS?$AAI?$AAO?$AAF?$AAr?$AAe?$AAq@ 10075928     OmniMIDI.obj
 0002:00015950       ??_C@_1CI@LDBGMPMH@?$AAL?$AAe?$AAa?$AAv?$AAe?$AAA?$AAS?$AAI?$AAO?$AAD?$AAe?$AAv?$AAi?$AAc?$AAe@ 10075950     OmniMIDI.obj
 0002:00015978       ??_C@_1BM@FPMGIBHE@?$AAA?$AAu?$AAd?$AAi?$AAo?$AAB?$AAi?$AAt?$AAD?$AAe?$AAp?$AAt?$AAh@ 10075978     OmniMIDI.obj
 0002:00015994       ??_C@_1BO@HHFLIEBN@?$AAA?$AAu?$AAd?$AAi?$AAo?$AAF?$AAr?$AAe?$AAq?$AAu?$AAe?$AAn?$AAc?$AAy@ 10075994     OmniMIDI.obj
 0002:000159b4       ??_C@_1BI@NFGGCNKE@?$AAA?$AAu?$AAd?$AAi?$AAo?$AAO?$AAu?$AAt?$AAp?$AAu?$AAt@ 100759b4     OmniMIDI.obj
 0002:000159cc       ??_C@_1BM@LAAJBPKH@?$AAC?$AAu?$AAr?$AAr?$AAe?$AAn?$AAt?$AAE?$AAn?$AAg?$AAi?$AAn?$AAe@ 100759cc     OmniMIDI.obj
 0002:000159e8       ??_C@_1BI@FBOMODHE@?$AAE?$AAx?$AAt?$AAr?$AAa?$AA8?$AAL?$AAi?$AAs?$AAt?$AAs@ 100759e8     OmniMIDI.obj
 0002:00015a00       ??_C@_1DC@OMIPNNBC@?$AAF?$AAo?$AAl?$AAl?$AAo?$AAw?$AAD?$AAe?$AAf?$AAa?$AAu?$AAl?$AAt?$AAA?$AAu@ 10075a00     OmniMIDI.obj
 0002:00015a34       ??_C@_1CK@BBCDIGFP@?$AAG?$AAe?$AAt?$AAE?$AAv?$AAB?$AAu?$AAf?$AAf?$AAS?$AAi?$AAz?$AAe?$AAF?$AAr@ 10075a34     OmniMIDI.obj
 0002:00015a60       ??_C@_1BM@HDDMJHBB@?$AAM?$AAo?$AAn?$AAo?$AAR?$AAe?$AAn?$AAd?$AAe?$AAr?$AAi?$AAn?$AAg@ 10075a60     OmniMIDI.obj
 0002:00015a7c       ??_C@_1BM@JCFODBEO@?$AAV?$AAo?$AAl?$AAu?$AAm?$AAe?$AAM?$AAo?$AAn?$AAi?$AAt?$AAo?$AAr@ 10075a7c     OmniMIDI.obj
 0002:00015a98       ??_C@_1CA@LBAMDLHJ@?$AAW?$AAA?$AAS?$AAA?$AAP?$AAI?$AAE?$AAx?$AAc?$AAl?$AAu?$AAs?$AAi?$AAv?$AAe@ 10075a98     OmniMIDI.obj
 0002:00015ab8       ??_C@_1BM@EDKABIAB@?$AAW?$AAA?$AAS?$AAA?$AAP?$AAI?$AAR?$AAA?$AAW?$AAM?$AAo?$AAd?$AAe@ 10075ab8     OmniMIDI.obj
 0002:00015ad4       ??_C@_1CA@OOPHNBDL@?$AAW?$AAA?$AAS?$AAA?$AAP?$AAI?$AAD?$AAo?$AAu?$AAb?$AAl?$AAe?$AAB?$AAu?$AAf@ 10075ad4     OmniMIDI.obj
 0002:00015af4       ??_C@_1CE@IGHLNPPB@?$AAR?$AAe?$AAd?$AAu?$AAc?$AAe?$AAB?$AAo?$AAo?$AAt?$AAU?$AAp?$AAD?$AAe?$AAl@ 10075af4     OmniMIDI.obj
 0002:00015b18       ??_C@_1CE@OCLBEBA@?$AAX?$AAA?$AAS?$AAa?$AAm?$AAp?$AAl?$AAe?$AAs?$AAP?$AAe?$AAr?$AAF?$AAr?$AAa@ 10075b18     OmniMIDI.obj
